ARM GAS  C:\Users\HP\AppData\Local\Temp\ccIObROV.s 			page 1


   1              		.cpu cortex-m3
   2              		.eabi_attribute 20, 1
   3              		.eabi_attribute 21, 1
   4              		.eabi_attribute 23, 3
   5              		.eabi_attribute 24, 1
   6              		.eabi_attribute 25, 1
   7              		.eabi_attribute 26, 1
   8              		.eabi_attribute 30, 1
   9              		.eabi_attribute 34, 1
  10              		.eabi_attribute 18, 4
  11              		.file	"caslav.c"
  12              		.text
  13              	.Ltext0:
  14              		.cfi_sections	.debug_frame
  15              		.section	.text.writeLCD,"ax",%progbits
  16              		.align	1
  17              		.global	writeLCD
  18              		.arch armv7-m
  19              		.syntax unified
  20              		.thumb
  21              		.thumb_func
  22              		.fpu softvfp
  24              	writeLCD:
  25              	.LVL0:
  26              	.LFB69:
  27              		.file 1 "../Core/Src/caslav.c"
   1:../Core/Src/caslav.c **** 
  28              		.loc 1 11 47 view -0
  29              		.cfi_startproc
  30              		@ args = 0, pretend = 0, frame = 0
  31              		@ frame_needed = 0, uses_anonymous_args = 0
  32              		.loc 1 11 47 is_stmt 0 view .LVU1
  33 0000 38B5     		push	{r3, r4, r5, lr}
  34              	.LCFI0:
  35              		.cfi_def_cfa_offset 16
  36              		.cfi_offset 3, -16
  37              		.cfi_offset 4, -12
  38              		.cfi_offset 5, -8
  39              		.cfi_offset 14, -4
  40 0002 0D46     		mov	r5, r1
  41              		.loc 1 12 2 is_stmt 1 view .LVU2
  42 0004 60F07F01 		orn	r1, r0, #127
  43              	.LVL1:
  44              		.loc 1 12 2 is_stmt 0 view .LVU3
  45 0008 C9B2     		uxtb	r1, r1
  46 000a 0020     		movs	r0, #0
  47              	.LVL2:
  48              		.loc 1 12 2 view .LVU4
  49 000c 074B     		ldr	r3, .L5
  50 000e 9847     		blx	r3
  51              	.LVL3:
  52              		.loc 1 13 2 is_stmt 1 view .LVU5
  53              	.LBB2:
  54              		.loc 1 13 7 view .LVU6
  55              		.loc 1 13 14 is_stmt 0 view .LVU7
  56 0010 0024     		movs	r4, #0
  57              		.loc 1 13 2 view .LVU8
ARM GAS  C:\Users\HP\AppData\Local\Temp\ccIObROV.s 			page 2


  58 0012 04E0     		b	.L2
  59              	.LVL4:
  60              	.L3:
  61              		.loc 1 14 3 is_stmt 1 discriminator 3 view .LVU9
  62 0014 295D     		ldrb	r1, [r5, r4]	@ zero_extendqisi2
  63 0016 0120     		movs	r0, #1
  64 0018 044B     		ldr	r3, .L5
  65 001a 9847     		blx	r3
  66              	.LVL5:
  67              		.loc 1 13 38 discriminator 3 view .LVU10
  68 001c 0134     		adds	r4, r4, #1
  69              	.LVL6:
  70              	.L2:
  71              		.loc 1 13 21 discriminator 1 view .LVU11
  72              		.loc 1 13 25 is_stmt 0 discriminator 1 view .LVU12
  73 001e 2846     		mov	r0, r5
  74 0020 034B     		ldr	r3, .L5+4
  75 0022 9847     		blx	r3
  76              	.LVL7:
  77              		.loc 1 13 2 discriminator 1 view .LVU13
  78 0024 A042     		cmp	r0, r4
  79 0026 F5D8     		bhi	.L3
  80              	.LBE2:
  81              		.loc 1 16 1 view .LVU14
  82 0028 38BD     		pop	{r3, r4, r5, pc}
  83              	.LVL8:
  84              	.L6:
  85              		.loc 1 16 1 view .LVU15
  86 002a 00BF     		.align	2
  87              	.L5:
  88 002c 00000000 		.word	LCD_Use
  89 0030 00000000 		.word	strlen
  90              		.cfi_endproc
  91              	.LFE69:
  93              		.section	.rodata.SpamTask.str1.4,"aMS",%progbits,1
  94              		.align	2
  95              	.LC0:
  96 0000 75636B79 		.ascii	"uckySRB :)\000"
  96      53524220 
  96      3A2900
  97 000b 00       		.align	2
  98              	.LC1:
  99 000c 63687563 		.ascii	"chucky\000"
  99      6B7900
 100 0013 00       		.align	2
 101              	.LC2:
 102 0014 53524200 		.ascii	"SRB\000"
 103              		.section	.text.SpamTask,"ax",%progbits
 104              		.align	1
 105              		.global	SpamTask
 106              		.syntax unified
 107              		.thumb
 108              		.thumb_func
 109              		.fpu softvfp
 111              	SpamTask:
 112              	.LVL9:
 113              	.LFB70:
ARM GAS  C:\Users\HP\AppData\Local\Temp\ccIObROV.s 			page 3


 114              		.loc 1 18 28 is_stmt 1 view -0
 115              		.cfi_startproc
 116              		@ Volatile: function does not return.
 117              		@ args = 0, pretend = 0, frame = 0
 118              		@ frame_needed = 0, uses_anonymous_args = 0
 119              		.loc 1 18 28 is_stmt 0 view .LVU17
 120 0000 08B5     		push	{r3, lr}
 121              	.LCFI1:
 122              		.cfi_def_cfa_offset 8
 123              		.cfi_offset 3, -8
 124              		.cfi_offset 14, -4
 125              		.loc 1 19 2 is_stmt 1 view .LVU18
 126 0002 4821     		movs	r1, #72
 127 0004 0020     		movs	r0, #0
 128              	.LVL10:
 129              		.loc 1 19 2 is_stmt 0 view .LVU19
 130 0006 1A4C     		ldr	r4, .L10
 131 0008 A047     		blx	r4
 132              	.LVL11:
 133              		.loc 1 20 2 is_stmt 1 view .LVU20
 134 000a 1521     		movs	r1, #21
 135 000c 0120     		movs	r0, #1
 136 000e A047     		blx	r4
 137              	.LVL12:
 138              		.loc 1 21 2 view .LVU21
 139 0010 0E21     		movs	r1, #14
 140 0012 0120     		movs	r0, #1
 141 0014 A047     		blx	r4
 142              	.LVL13:
 143              		.loc 1 22 2 view .LVU22
 144 0016 1D21     		movs	r1, #29
 145 0018 0120     		movs	r0, #1
 146 001a A047     		blx	r4
 147              	.LVL14:
 148              		.loc 1 23 2 view .LVU23
 149 001c 1521     		movs	r1, #21
 150 001e 0120     		movs	r0, #1
 151 0020 A047     		blx	r4
 152              	.LVL15:
 153              		.loc 1 24 2 view .LVU24
 154 0022 1521     		movs	r1, #21
 155 0024 0120     		movs	r0, #1
 156 0026 A047     		blx	r4
 157              	.LVL16:
 158              		.loc 1 25 2 view .LVU25
 159 0028 0E21     		movs	r1, #14
 160 002a 0120     		movs	r0, #1
 161 002c A047     		blx	r4
 162              	.LVL17:
 163              		.loc 1 26 2 view .LVU26
 164 002e 0421     		movs	r1, #4
 165 0030 0120     		movs	r0, #1
 166 0032 A047     		blx	r4
 167              	.LVL18:
 168              	.L8:
 169              		.loc 1 27 2 discriminator 1 view .LVU27
 170              		.loc 1 28 3 discriminator 1 view .LVU28
ARM GAS  C:\Users\HP\AppData\Local\Temp\ccIObROV.s 			page 4


 171 0034 C820     		movs	r0, #200
 172 0036 0F4B     		ldr	r3, .L10+4
 173 0038 9847     		blx	r3
 174              	.LVL19:
 175              		.loc 1 29 3 discriminator 1 view .LVU29
 176 003a 4320     		movs	r0, #67
 177 003c 0E4C     		ldr	r4, .L10+8
 178 003e A047     		blx	r4
 179              	.LVL20:
 180              		.loc 1 30 3 discriminator 1 view .LVU30
 181 0040 0E48     		ldr	r0, .L10+12
 182 0042 0F4B     		ldr	r3, .L10+16
 183 0044 9847     		blx	r3
 184              	.LVL21:
 185              		.loc 1 31 3 discriminator 1 view .LVU31
 186 0046 0D20     		movs	r0, #13
 187 0048 A047     		blx	r4
 188              	.LVL22:
 189              		.loc 1 32 3 discriminator 1 view .LVU32
 190 004a 0E49     		ldr	r1, .L10+20
 191 004c 0020     		movs	r0, #0
 192 004e 0E4C     		ldr	r4, .L10+24
 193 0050 A047     		blx	r4
 194              	.LVL23:
 195              		.loc 1 33 3 discriminator 1 view .LVU33
 196 0052 0E4D     		ldr	r5, .L10+28
 197 0054 2946     		mov	r1, r5
 198 0056 4020     		movs	r0, #64
 199 0058 A047     		blx	r4
 200              	.LVL24:
 201              		.loc 1 34 3 discriminator 1 view .LVU34
 202 005a 2946     		mov	r1, r5
 203 005c 1020     		movs	r0, #16
 204 005e A047     		blx	r4
 205              	.LVL25:
 206              		.loc 1 35 3 discriminator 1 view .LVU35
 207 0060 C421     		movs	r1, #196
 208 0062 0020     		movs	r0, #0
 209 0064 024C     		ldr	r4, .L10
 210 0066 A047     		blx	r4
 211              	.LVL26:
 212              		.loc 1 36 3 discriminator 1 view .LVU36
 213 0068 0121     		movs	r1, #1
 214 006a 0846     		mov	r0, r1
 215 006c A047     		blx	r4
 216              	.LVL27:
 217              		.loc 1 27 8 discriminator 1 view .LVU37
 218 006e E1E7     		b	.L8
 219              	.L11:
 220              		.align	2
 221              	.L10:
 222 0070 00000000 		.word	LCD_Use
 223 0074 00000000 		.word	vTaskDelay
 224 0078 00000000 		.word	Transmit_Char
 225 007c 00000000 		.word	.LC0
 226 0080 00000000 		.word	Transmit_String
 227 0084 0C000000 		.word	.LC1
ARM GAS  C:\Users\HP\AppData\Local\Temp\ccIObROV.s 			page 5


 228 0088 00000000 		.word	writeLCD
 229 008c 14000000 		.word	.LC2
 230              		.cfi_endproc
 231              	.LFE70:
 233              		.section	.rodata.caki.str1.4,"aMS",%progbits,1
 234              		.align	2
 235              	.LC3:
 236 0000 5370616D 		.ascii	"Spam\000"
 236      00
 237              		.section	.text.caki,"ax",%progbits
 238              		.align	1
 239              		.global	caki
 240              		.syntax unified
 241              		.thumb
 242              		.thumb_func
 243              		.fpu softvfp
 245              	caki:
 246              	.LFB71:
 247              		.loc 1 40 12 view -0
 248              		.cfi_startproc
 249              		@ args = 0, pretend = 0, frame = 0
 250              		@ frame_needed = 0, uses_anonymous_args = 0
 251 0000 10B5     		push	{r4, lr}
 252              	.LCFI2:
 253              		.cfi_def_cfa_offset 8
 254              		.cfi_offset 4, -8
 255              		.cfi_offset 14, -4
 256 0002 82B0     		sub	sp, sp, #8
 257              	.LCFI3:
 258              		.cfi_def_cfa_offset 16
 259              		.loc 1 41 2 view .LVU39
 260 0004 074B     		ldr	r3, .L14
 261 0006 9847     		blx	r3
 262              	.LVL28:
 263              		.loc 1 42 2 view .LVU40
 264 0008 074B     		ldr	r3, .L14+4
 265 000a 9847     		blx	r3
 266              	.LVL29:
 267              		.loc 1 43 2 view .LVU41
 268 000c 0023     		movs	r3, #0
 269 000e 0193     		str	r3, [sp, #4]
 270 0010 0222     		movs	r2, #2
 271 0012 0092     		str	r2, [sp]
 272 0014 6422     		movs	r2, #100
 273 0016 0549     		ldr	r1, .L14+8
 274 0018 0548     		ldr	r0, .L14+12
 275 001a 064C     		ldr	r4, .L14+16
 276 001c A047     		blx	r4
 277              	.LVL30:
 278              		.loc 1 44 1 is_stmt 0 view .LVU42
 279 001e 02B0     		add	sp, sp, #8
 280              	.LCFI4:
 281              		.cfi_def_cfa_offset 8
 282              		@ sp needed
 283 0020 10BD     		pop	{r4, pc}
 284              	.L15:
 285 0022 00BF     		.align	2
ARM GAS  C:\Users\HP\AppData\Local\Temp\ccIObROV.s 			page 6


 286              	.L14:
 287 0024 00000000 		.word	uart_init
 288 0028 00000000 		.word	lcd_init
 289 002c 00000000 		.word	.LC3
 290 0030 00000000 		.word	SpamTask
 291 0034 00000000 		.word	xTaskCreate
 292              		.cfi_endproc
 293              	.LFE71:
 295              		.text
 296              	.Letext0:
 297              		.file 2 "../d:\\program files\\gnu mcu\\arm-none-eabi-gcc-10.2.1-1.1\\arm-none-eabi\\include\\mach
 298              		.file 3 "../d:\\program files\\gnu mcu\\arm-none-eabi-gcc-10.2.1-1.1\\arm-none-eabi\\include\\sys\
 299              		.file 4 "../d:\\program files\\gnu mcu\\arm-none-eabi-gcc-10.2.1-1.1\\lib\\gcc\\arm-none-eabi\\10.
 300              		.file 5 "../Middlewares/Third_Party/FreeRTOS/Source/portable/GCC/ARM_CM3/portmacro.h"
 301              		.file 6 "../Core/Inc/driver_uart.h"
 302              		.file 7 "../Core/Inc/driver_lcd.h"
 303              		.file 8 "../Middlewares/Third_Party/FreeRTOS/Source/include/task.h"
 304              		.file 9 "../<built-in>"
ARM GAS  C:\Users\HP\AppData\Local\Temp\ccIObROV.s 			page 7


DEFINED SYMBOLS
                            *ABS*:0000000000000000 caslav.c
C:\Users\HP\AppData\Local\Temp\ccIObROV.s:16     .text.writeLCD:0000000000000000 $t
C:\Users\HP\AppData\Local\Temp\ccIObROV.s:24     .text.writeLCD:0000000000000000 writeLCD
C:\Users\HP\AppData\Local\Temp\ccIObROV.s:88     .text.writeLCD:000000000000002c $d
C:\Users\HP\AppData\Local\Temp\ccIObROV.s:94     .rodata.SpamTask.str1.4:0000000000000000 $d
C:\Users\HP\AppData\Local\Temp\ccIObROV.s:104    .text.SpamTask:0000000000000000 $t
C:\Users\HP\AppData\Local\Temp\ccIObROV.s:111    .text.SpamTask:0000000000000000 SpamTask
C:\Users\HP\AppData\Local\Temp\ccIObROV.s:222    .text.SpamTask:0000000000000070 $d
C:\Users\HP\AppData\Local\Temp\ccIObROV.s:234    .rodata.caki.str1.4:0000000000000000 $d
C:\Users\HP\AppData\Local\Temp\ccIObROV.s:238    .text.caki:0000000000000000 $t
C:\Users\HP\AppData\Local\Temp\ccIObROV.s:245    .text.caki:0000000000000000 caki
C:\Users\HP\AppData\Local\Temp\ccIObROV.s:287    .text.caki:0000000000000024 $d

UNDEFINED SYMBOLS
LCD_Use
strlen
vTaskDelay
Transmit_Char
Transmit_String
uart_init
lcd_init
xTaskCreate
