ARM GAS  C:\Users\HP\AppData\Local\Temp\ccUtCZ4i.s 			page 1


   1              		.cpu cortex-m3
   2              		.eabi_attribute 20, 1
   3              		.eabi_attribute 21, 1
   4              		.eabi_attribute 23, 3
   5              		.eabi_attribute 24, 1
   6              		.eabi_attribute 25, 1
   7              		.eabi_attribute 26, 1
   8              		.eabi_attribute 30, 1
   9              		.eabi_attribute 34, 1
  10              		.eabi_attribute 18, 4
  11              		.file	"stm32f1xx_hal_rcc.c"
  12              		.text
  13              	.Ltext0:
  14              		.cfi_sections	.debug_frame
  15              		.section	.text.RCC_Delay,"ax",%progbits
  16              		.align	1
  17              		.arch armv7-m
  18              		.syntax unified
  19              		.thumb
  20              		.thumb_func
  21              		.fpu softvfp
  23              	RCC_Delay:
  24              	.LVL0:
  25              	.LFB78:
  26              		.file 1 "../Drivers/STM32F1xx_HAL_Driver/Src/stm32f1xx_hal_rcc.c"
   1:../Drivers/STM32F1xx_HAL_Driver/Src/stm32f1xx_hal_rcc.c **** 
  27              		.loc 1 1364 1 view -0
  28              		.cfi_startproc
  29              		@ args = 0, pretend = 0, frame = 8
  30              		@ frame_needed = 0, uses_anonymous_args = 0
  31              		@ link register save eliminated.
  32              		.loc 1 1364 1 is_stmt 0 view .LVU1
  33 0000 82B0     		sub	sp, sp, #8
  34              	.LCFI0:
  35              		.cfi_def_cfa_offset 8
  36              		.loc 1 1365 3 is_stmt 1 view .LVU2
  37              		.loc 1 1365 56 is_stmt 0 view .LVU3
  38 0002 084B     		ldr	r3, .L4
  39 0004 1B68     		ldr	r3, [r3]
  40 0006 084A     		ldr	r2, .L4+4
  41 0008 A2FB0323 		umull	r2, r3, r2, r3
  42 000c 5B0A     		lsrs	r3, r3, #9
  43              		.loc 1 1365 32 view .LVU4
  44 000e 00FB03F3 		mul	r3, r0, r3
  45              		.loc 1 1365 17 view .LVU5
  46 0012 0193     		str	r3, [sp, #4]
  47              	.L2:
  48              		.loc 1 1366 3 is_stmt 1 discriminator 1 view .LVU6
  49              		.loc 1 1368 5 discriminator 1 view .LVU7
  50              		.syntax unified
  51              	@ 1368 "Drivers/STM32F1xx_HAL_Driver/Src/stm32f1xx_hal_rcc.c" 1
  52 0014 00BF     		nop
  53              	@ 0 "" 2
  54              		.loc 1 1370 9 discriminator 1 view .LVU8
  55              		.loc 1 1370 16 is_stmt 0 discriminator 1 view .LVU9
  56              		.thumb
  57              		.syntax unified
ARM GAS  C:\Users\HP\AppData\Local\Temp\ccUtCZ4i.s 			page 2


  58 0016 019B     		ldr	r3, [sp, #4]
  59 0018 5A1E     		subs	r2, r3, #1
  60 001a 0192     		str	r2, [sp, #4]
  61              		.loc 1 1370 3 discriminator 1 view .LVU10
  62 001c 002B     		cmp	r3, #0
  63 001e F9D1     		bne	.L2
  64              		.loc 1 1371 1 view .LVU11
  65 0020 02B0     		add	sp, sp, #8
  66              	.LCFI1:
  67              		.cfi_def_cfa_offset 0
  68              		@ sp needed
  69 0022 7047     		bx	lr
  70              	.L5:
  71              		.align	2
  72              	.L4:
  73 0024 00000000 		.word	SystemCoreClock
  74 0028 D34D6210 		.word	274877907
  75              		.cfi_endproc
  76              	.LFE78:
  78              		.section	.text.HAL_RCC_DeInit,"ax",%progbits
  79              		.align	1
  80              		.global	HAL_RCC_DeInit
  81              		.syntax unified
  82              		.thumb
  83              		.thumb_func
  84              		.fpu softvfp
  86              	HAL_RCC_DeInit:
  87              	.LFB65:
  88              		.loc 1 201 1 is_stmt 1 view -0
  89              		.cfi_startproc
  90              		@ args = 0, pretend = 0, frame = 0
  91              		@ frame_needed = 0, uses_anonymous_args = 0
  92 0000 70B5     		push	{r4, r5, r6, lr}
  93              	.LCFI2:
  94              		.cfi_def_cfa_offset 16
  95              		.cfi_offset 4, -16
  96              		.cfi_offset 5, -12
  97              		.cfi_offset 6, -8
  98              		.cfi_offset 14, -4
  99              		.loc 1 202 3 view .LVU13
 100              		.loc 1 205 3 view .LVU14
 101              		.loc 1 205 15 is_stmt 0 view .LVU15
 102 0002 384B     		ldr	r3, .L27
 103 0004 9847     		blx	r3
 104              	.LVL1:
 105 0006 0446     		mov	r4, r0
 106              	.LVL2:
 107              		.loc 1 208 3 is_stmt 1 view .LVU16
 108 0008 374A     		ldr	r2, .L27+4
 109 000a 1368     		ldr	r3, [r2]
 110 000c 43F00103 		orr	r3, r3, #1
 111 0010 1360     		str	r3, [r2]
 112              		.loc 1 211 3 view .LVU17
 113              	.LVL3:
 114              	.L7:
 115              		.loc 1 211 9 view .LVU18
 116              		.loc 1 211 10 is_stmt 0 view .LVU19
ARM GAS  C:\Users\HP\AppData\Local\Temp\ccUtCZ4i.s 			page 3


 117 0012 354B     		ldr	r3, .L27+4
 118 0014 1B68     		ldr	r3, [r3]
 119              		.loc 1 211 9 view .LVU20
 120 0016 13F0020F 		tst	r3, #2
 121 001a 07D1     		bne	.L22
 122              		.loc 1 213 5 is_stmt 1 view .LVU21
 123              		.loc 1 213 10 is_stmt 0 view .LVU22
 124 001c 314B     		ldr	r3, .L27
 125 001e 9847     		blx	r3
 126              	.LVL4:
 127              		.loc 1 213 24 view .LVU23
 128 0020 001B     		subs	r0, r0, r4
 129              		.loc 1 213 8 view .LVU24
 130 0022 0228     		cmp	r0, #2
 131 0024 F5D9     		bls	.L7
 132              		.loc 1 215 14 view .LVU25
 133 0026 0324     		movs	r4, #3
 134              	.LVL5:
 135              	.L8:
 136              		.loc 1 328 1 view .LVU26
 137 0028 2046     		mov	r0, r4
 138 002a 70BD     		pop	{r4, r5, r6, pc}
 139              	.LVL6:
 140              	.L22:
 141              		.loc 1 220 3 is_stmt 1 view .LVU27
 142 002c 2E4D     		ldr	r5, .L27+4
 143 002e 2B68     		ldr	r3, [r5]
 144 0030 23F0F803 		bic	r3, r3, #248
 145 0034 43F08003 		orr	r3, r3, #128
 146 0038 2B60     		str	r3, [r5]
 147              		.loc 1 223 3 view .LVU28
 148              		.loc 1 223 15 is_stmt 0 view .LVU29
 149 003a 2A4B     		ldr	r3, .L27
 150 003c 9847     		blx	r3
 151              	.LVL7:
 152 003e 0446     		mov	r4, r0
 153              	.LVL8:
 154              		.loc 1 226 3 is_stmt 1 view .LVU30
 155 0040 0023     		movs	r3, #0
 156 0042 6B60     		str	r3, [r5, #4]
 157              		.loc 1 229 3 view .LVU31
 158              	.LVL9:
 159              	.L10:
 160              		.loc 1 229 9 view .LVU32
 161              		.loc 1 229 10 is_stmt 0 view .LVU33
 162 0044 284B     		ldr	r3, .L27+4
 163 0046 5B68     		ldr	r3, [r3, #4]
 164              		.loc 1 229 9 view .LVU34
 165 0048 13F00C0F 		tst	r3, #12
 166 004c 08D0     		beq	.L23
 167              		.loc 1 231 5 is_stmt 1 view .LVU35
 168              		.loc 1 231 10 is_stmt 0 view .LVU36
 169 004e 254B     		ldr	r3, .L27
 170 0050 9847     		blx	r3
 171              	.LVL10:
 172              		.loc 1 231 24 view .LVU37
 173 0052 001B     		subs	r0, r0, r4
ARM GAS  C:\Users\HP\AppData\Local\Temp\ccUtCZ4i.s 			page 4


 174              		.loc 1 231 8 view .LVU38
 175 0054 41F28833 		movw	r3, #5000
 176 0058 9842     		cmp	r0, r3
 177 005a F3D9     		bls	.L10
 178              		.loc 1 233 14 view .LVU39
 179 005c 0324     		movs	r4, #3
 180              	.LVL11:
 181              		.loc 1 233 14 view .LVU40
 182 005e E3E7     		b	.L8
 183              	.LVL12:
 184              	.L23:
 185              		.loc 1 238 3 is_stmt 1 view .LVU41
 186              		.loc 1 238 19 is_stmt 0 view .LVU42
 187 0060 224B     		ldr	r3, .L27+8
 188 0062 234A     		ldr	r2, .L27+12
 189 0064 1A60     		str	r2, [r3]
 190              		.loc 1 241 3 is_stmt 1 view .LVU43
 191              		.loc 1 241 7 is_stmt 0 view .LVU44
 192 0066 234B     		ldr	r3, .L27+16
 193 0068 1868     		ldr	r0, [r3]
 194 006a 234B     		ldr	r3, .L27+20
 195 006c 9847     		blx	r3
 196              	.LVL13:
 197              		.loc 1 241 6 view .LVU45
 198 006e 0446     		mov	r4, r0
 199              	.LVL14:
 200              		.loc 1 241 6 view .LVU46
 201 0070 08B1     		cbz	r0, .L24
 202              		.loc 1 243 12 view .LVU47
 203 0072 0124     		movs	r4, #1
 204 0074 D8E7     		b	.L8
 205              	.L24:
 206              		.loc 1 247 3 is_stmt 1 view .LVU48
 207              		.loc 1 247 15 is_stmt 0 view .LVU49
 208 0076 1B4B     		ldr	r3, .L27
 209 0078 9847     		blx	r3
 210              	.LVL15:
 211 007a 0546     		mov	r5, r0
 212              	.LVL16:
 213              		.loc 1 250 3 is_stmt 1 view .LVU50
 214 007c 1A4A     		ldr	r2, .L27+4
 215 007e 1368     		ldr	r3, [r2]
 216 0080 23F08073 		bic	r3, r3, #16777216
 217 0084 1360     		str	r3, [r2]
 218              		.loc 1 253 3 view .LVU51
 219              	.LVL17:
 220              	.L12:
 221              		.loc 1 253 9 view .LVU52
 222              		.loc 1 253 10 is_stmt 0 view .LVU53
 223 0086 184B     		ldr	r3, .L27+4
 224 0088 1B68     		ldr	r3, [r3]
 225              		.loc 1 253 9 view .LVU54
 226 008a 13F0007F 		tst	r3, #33554432
 227 008e 06D0     		beq	.L25
 228              		.loc 1 255 5 is_stmt 1 view .LVU55
 229              		.loc 1 255 10 is_stmt 0 view .LVU56
 230 0090 144B     		ldr	r3, .L27
ARM GAS  C:\Users\HP\AppData\Local\Temp\ccUtCZ4i.s 			page 5


 231 0092 9847     		blx	r3
 232              	.LVL18:
 233              		.loc 1 255 24 view .LVU57
 234 0094 401B     		subs	r0, r0, r5
 235              		.loc 1 255 8 view .LVU58
 236 0096 0228     		cmp	r0, #2
 237 0098 F5D9     		bls	.L12
 238              		.loc 1 257 14 view .LVU59
 239 009a 0324     		movs	r4, #3
 240 009c C4E7     		b	.L8
 241              	.L25:
 242              		.loc 1 262 3 is_stmt 1 view .LVU60
 243 009e 124E     		ldr	r6, .L27+4
 244 00a0 0023     		movs	r3, #0
 245 00a2 7360     		str	r3, [r6, #4]
 246              		.loc 1 265 3 view .LVU61
 247              		.loc 1 265 15 is_stmt 0 view .LVU62
 248 00a4 0F4B     		ldr	r3, .L27
 249 00a6 9847     		blx	r3
 250              	.LVL19:
 251 00a8 0546     		mov	r5, r0
 252              	.LVL20:
 253              		.loc 1 268 3 is_stmt 1 view .LVU63
 254 00aa 3368     		ldr	r3, [r6]
 255 00ac 23F41023 		bic	r3, r3, #589824
 256 00b0 3360     		str	r3, [r6]
 257              		.loc 1 271 3 view .LVU64
 258              	.LVL21:
 259              	.L14:
 260              		.loc 1 271 9 view .LVU65
 261              		.loc 1 271 10 is_stmt 0 view .LVU66
 262 00b2 0D4B     		ldr	r3, .L27+4
 263 00b4 1B68     		ldr	r3, [r3]
 264              		.loc 1 271 9 view .LVU67
 265 00b6 13F4003F 		tst	r3, #131072
 266 00ba 06D0     		beq	.L26
 267              		.loc 1 273 5 is_stmt 1 view .LVU68
 268              		.loc 1 273 10 is_stmt 0 view .LVU69
 269 00bc 094B     		ldr	r3, .L27
 270 00be 9847     		blx	r3
 271              	.LVL22:
 272              		.loc 1 273 24 view .LVU70
 273 00c0 401B     		subs	r0, r0, r5
 274              		.loc 1 273 8 view .LVU71
 275 00c2 6428     		cmp	r0, #100
 276 00c4 F5D9     		bls	.L14
 277              		.loc 1 275 14 view .LVU72
 278 00c6 0324     		movs	r4, #3
 279 00c8 AEE7     		b	.L8
 280              	.L26:
 281              		.loc 1 280 3 is_stmt 1 view .LVU73
 282 00ca 074B     		ldr	r3, .L27+4
 283 00cc 1A68     		ldr	r2, [r3]
 284 00ce 22F48022 		bic	r2, r2, #262144
 285 00d2 1A60     		str	r2, [r3]
 286              		.loc 1 322 3 view .LVU74
 287 00d4 5A6A     		ldr	r2, [r3, #36]
ARM GAS  C:\Users\HP\AppData\Local\Temp\ccUtCZ4i.s 			page 6


 288 00d6 42F08072 		orr	r2, r2, #16777216
 289 00da 5A62     		str	r2, [r3, #36]
 290              		.loc 1 325 3 view .LVU75
 291 00dc 0022     		movs	r2, #0
 292 00de 9A60     		str	r2, [r3, #8]
 293              		.loc 1 327 3 view .LVU76
 294              		.loc 1 327 10 is_stmt 0 view .LVU77
 295 00e0 A2E7     		b	.L8
 296              	.L28:
 297 00e2 00BF     		.align	2
 298              	.L27:
 299 00e4 00000000 		.word	HAL_GetTick
 300 00e8 00100240 		.word	1073876992
 301 00ec 00000000 		.word	SystemCoreClock
 302 00f0 00127A00 		.word	8000000
 303 00f4 00000000 		.word	uwTickPrio
 304 00f8 00000000 		.word	HAL_InitTick
 305              		.cfi_endproc
 306              	.LFE65:
 308              		.section	.text.HAL_RCC_OscConfig,"ax",%progbits
 309              		.align	1
 310              		.global	HAL_RCC_OscConfig
 311              		.syntax unified
 312              		.thumb
 313              		.thumb_func
 314              		.fpu softvfp
 316              	HAL_RCC_OscConfig:
 317              	.LVL23:
 318              	.LFB66:
 319              		.loc 1 346 1 is_stmt 1 view -0
 320              		.cfi_startproc
 321              		@ args = 0, pretend = 0, frame = 8
 322              		@ frame_needed = 0, uses_anonymous_args = 0
 323              		.loc 1 347 3 view .LVU79
 324              		.loc 1 348 3 view .LVU80
 325              		.loc 1 351 3 view .LVU81
 326              		.loc 1 351 6 is_stmt 0 view .LVU82
 327 0000 0028     		cmp	r0, #0
 328 0002 00F0F581 		beq	.L82
 329              		.loc 1 346 1 view .LVU83
 330 0006 70B5     		push	{r4, r5, r6, lr}
 331              	.LCFI3:
 332              		.cfi_def_cfa_offset 16
 333              		.cfi_offset 4, -16
 334              		.cfi_offset 5, -12
 335              		.cfi_offset 6, -8
 336              		.cfi_offset 14, -4
 337 0008 82B0     		sub	sp, sp, #8
 338              	.LCFI4:
 339              		.cfi_def_cfa_offset 24
 340 000a 0446     		mov	r4, r0
 341              		.loc 1 357 3 is_stmt 1 view .LVU84
 342              		.loc 1 360 3 view .LVU85
 343              		.loc 1 360 26 is_stmt 0 view .LVU86
 344 000c 0368     		ldr	r3, [r0]
 345              		.loc 1 360 6 view .LVU87
 346 000e 13F0010F 		tst	r3, #1
ARM GAS  C:\Users\HP\AppData\Local\Temp\ccUtCZ4i.s 			page 7


 347 0012 2CD0     		beq	.L31
 348              		.loc 1 363 5 is_stmt 1 view .LVU88
 349              		.loc 1 366 5 view .LVU89
 350              		.loc 1 366 10 is_stmt 0 view .LVU90
 351 0014 8F4B     		ldr	r3, .L122
 352 0016 5B68     		ldr	r3, [r3, #4]
 353 0018 03F00C03 		and	r3, r3, #12
 354              		.loc 1 366 8 view .LVU91
 355 001c 042B     		cmp	r3, #4
 356 001e 1DD0     		beq	.L32
 357              		.loc 1 367 14 view .LVU92
 358 0020 8C4B     		ldr	r3, .L122
 359 0022 5B68     		ldr	r3, [r3, #4]
 360 0024 03F00C03 		and	r3, r3, #12
 361              		.loc 1 367 9 view .LVU93
 362 0028 082B     		cmp	r3, #8
 363 002a 12D0     		beq	.L106
 364              	.L33:
 365              		.loc 1 377 7 is_stmt 1 view .LVU94
 366              		.loc 1 377 7 view .LVU95
 367 002c 6368     		ldr	r3, [r4, #4]
 368 002e B3F5803F 		cmp	r3, #65536
 369 0032 41D0     		beq	.L107
 370              		.loc 1 377 7 discriminator 2 view .LVU96
 371 0034 002B     		cmp	r3, #0
 372 0036 55D1     		bne	.L36
 373              		.loc 1 377 7 discriminator 4 view .LVU97
 374 0038 03F18043 		add	r3, r3, #1073741824
 375 003c 03F50433 		add	r3, r3, #135168
 376 0040 1A68     		ldr	r2, [r3]
 377 0042 22F48032 		bic	r2, r2, #65536
 378 0046 1A60     		str	r2, [r3]
 379              		.loc 1 377 7 discriminator 4 view .LVU98
 380 0048 1A68     		ldr	r2, [r3]
 381 004a 22F48022 		bic	r2, r2, #262144
 382 004e 1A60     		str	r2, [r3]
 383 0050 37E0     		b	.L35
 384              	.L106:
 385              		.loc 1 367 83 is_stmt 0 discriminator 1 view .LVU99
 386 0052 804B     		ldr	r3, .L122
 387 0054 5B68     		ldr	r3, [r3, #4]
 388              		.loc 1 367 79 discriminator 1 view .LVU100
 389 0056 13F4803F 		tst	r3, #65536
 390 005a E7D0     		beq	.L33
 391              	.L32:
 392              		.loc 1 369 7 is_stmt 1 view .LVU101
 393              		.loc 1 369 12 is_stmt 0 view .LVU102
 394 005c 7D4B     		ldr	r3, .L122
 395 005e 1B68     		ldr	r3, [r3]
 396              		.loc 1 369 10 view .LVU103
 397 0060 13F4003F 		tst	r3, #131072
 398 0064 03D0     		beq	.L31
 399              		.loc 1 369 79 discriminator 1 view .LVU104
 400 0066 6368     		ldr	r3, [r4, #4]
 401              		.loc 1 369 58 discriminator 1 view .LVU105
 402 0068 002B     		cmp	r3, #0
 403 006a 00F0C381 		beq	.L108
ARM GAS  C:\Users\HP\AppData\Local\Temp\ccUtCZ4i.s 			page 8


 404              	.LVL24:
 405              	.L31:
 406              		.loc 1 412 3 is_stmt 1 view .LVU106
 407              		.loc 1 412 26 is_stmt 0 view .LVU107
 408 006e 2368     		ldr	r3, [r4]
 409              		.loc 1 412 6 view .LVU108
 410 0070 13F0020F 		tst	r3, #2
 411 0074 75D0     		beq	.L43
 412              		.loc 1 415 5 is_stmt 1 view .LVU109
 413              		.loc 1 416 5 view .LVU110
 414              		.loc 1 419 5 view .LVU111
 415              		.loc 1 419 10 is_stmt 0 view .LVU112
 416 0076 774B     		ldr	r3, .L122
 417 0078 5B68     		ldr	r3, [r3, #4]
 418              		.loc 1 419 8 view .LVU113
 419 007a 13F00C0F 		tst	r3, #12
 420 007e 5FD0     		beq	.L44
 421              		.loc 1 420 14 view .LVU114
 422 0080 744B     		ldr	r3, .L122
 423 0082 5B68     		ldr	r3, [r3, #4]
 424 0084 03F00C03 		and	r3, r3, #12
 425              		.loc 1 420 9 view .LVU115
 426 0088 082B     		cmp	r3, #8
 427 008a 54D0     		beq	.L109
 428              	.L45:
 429              		.loc 1 437 7 is_stmt 1 view .LVU116
 430              		.loc 1 437 28 is_stmt 0 view .LVU117
 431 008c 2369     		ldr	r3, [r4, #16]
 432              		.loc 1 437 10 view .LVU118
 433 008e 002B     		cmp	r3, #0
 434 0090 00F08A80 		beq	.L47
 435              		.loc 1 440 9 is_stmt 1 view .LVU119
 436 0094 704B     		ldr	r3, .L122+4
 437 0096 0122     		movs	r2, #1
 438 0098 1A60     		str	r2, [r3]
 439              		.loc 1 443 9 view .LVU120
 440              		.loc 1 443 21 is_stmt 0 view .LVU121
 441 009a 704B     		ldr	r3, .L122+8
 442 009c 9847     		blx	r3
 443              	.LVL25:
 444 009e 0546     		mov	r5, r0
 445              	.LVL26:
 446              		.loc 1 446 9 is_stmt 1 view .LVU122
 447              	.L48:
 448              		.loc 1 446 15 view .LVU123
 449              		.loc 1 446 16 is_stmt 0 view .LVU124
 450 00a0 6C4B     		ldr	r3, .L122
 451 00a2 1B68     		ldr	r3, [r3]
 452              		.loc 1 446 15 view .LVU125
 453 00a4 13F0020F 		tst	r3, #2
 454 00a8 75D1     		bne	.L110
 455              		.loc 1 448 11 is_stmt 1 view .LVU126
 456              		.loc 1 448 16 is_stmt 0 view .LVU127
 457 00aa 6C4B     		ldr	r3, .L122+8
 458 00ac 9847     		blx	r3
 459              	.LVL27:
 460              		.loc 1 448 30 view .LVU128
ARM GAS  C:\Users\HP\AppData\Local\Temp\ccUtCZ4i.s 			page 9


 461 00ae 401B     		subs	r0, r0, r5
 462              		.loc 1 448 14 view .LVU129
 463 00b0 0228     		cmp	r0, #2
 464 00b2 F5D9     		bls	.L48
 465              		.loc 1 450 20 view .LVU130
 466 00b4 0320     		movs	r0, #3
 467 00b6 A2E1     		b	.L30
 468              	.LVL28:
 469              	.L107:
 470              		.loc 1 377 7 is_stmt 1 discriminator 1 view .LVU131
 471 00b8 664A     		ldr	r2, .L122
 472 00ba 1368     		ldr	r3, [r2]
 473 00bc 43F48033 		orr	r3, r3, #65536
 474 00c0 1360     		str	r3, [r2]
 475              	.L35:
 476              		.loc 1 377 7 discriminator 10 view .LVU132
 477              		.loc 1 381 7 discriminator 10 view .LVU133
 478              		.loc 1 381 28 is_stmt 0 discriminator 10 view .LVU134
 479 00c2 6368     		ldr	r3, [r4, #4]
 480              		.loc 1 381 10 discriminator 10 view .LVU135
 481 00c4 43B3     		cbz	r3, .L38
 482              		.loc 1 384 9 is_stmt 1 view .LVU136
 483              		.loc 1 384 21 is_stmt 0 view .LVU137
 484 00c6 654B     		ldr	r3, .L122+8
 485 00c8 9847     		blx	r3
 486              	.LVL29:
 487              		.loc 1 384 21 view .LVU138
 488 00ca 0546     		mov	r5, r0
 489              	.LVL30:
 490              		.loc 1 387 9 is_stmt 1 view .LVU139
 491              	.L39:
 492              		.loc 1 387 15 view .LVU140
 493              		.loc 1 387 16 is_stmt 0 view .LVU141
 494 00cc 614B     		ldr	r3, .L122
 495 00ce 1B68     		ldr	r3, [r3]
 496              		.loc 1 387 15 view .LVU142
 497 00d0 13F4003F 		tst	r3, #131072
 498 00d4 CBD1     		bne	.L31
 499              		.loc 1 389 11 is_stmt 1 view .LVU143
 500              		.loc 1 389 16 is_stmt 0 view .LVU144
 501 00d6 614B     		ldr	r3, .L122+8
 502 00d8 9847     		blx	r3
 503              	.LVL31:
 504              		.loc 1 389 30 view .LVU145
 505 00da 401B     		subs	r0, r0, r5
 506              		.loc 1 389 14 view .LVU146
 507 00dc 6428     		cmp	r0, #100
 508 00de F5D9     		bls	.L39
 509              		.loc 1 391 20 view .LVU147
 510 00e0 0320     		movs	r0, #3
 511 00e2 8CE1     		b	.L30
 512              	.LVL32:
 513              	.L36:
 514              		.loc 1 377 7 is_stmt 1 discriminator 5 view .LVU148
 515 00e4 B3F5A02F 		cmp	r3, #327680
 516 00e8 09D0     		beq	.L111
 517              		.loc 1 377 7 discriminator 8 view .LVU149
ARM GAS  C:\Users\HP\AppData\Local\Temp\ccUtCZ4i.s 			page 10


 518 00ea 5A4B     		ldr	r3, .L122
 519 00ec 1A68     		ldr	r2, [r3]
 520 00ee 22F48032 		bic	r2, r2, #65536
 521 00f2 1A60     		str	r2, [r3]
 522              		.loc 1 377 7 discriminator 8 view .LVU150
 523 00f4 1A68     		ldr	r2, [r3]
 524 00f6 22F48022 		bic	r2, r2, #262144
 525 00fa 1A60     		str	r2, [r3]
 526 00fc E1E7     		b	.L35
 527              	.L111:
 528              		.loc 1 377 7 discriminator 7 view .LVU151
 529 00fe 03F18043 		add	r3, r3, #1073741824
 530 0102 A3F53C33 		sub	r3, r3, #192512
 531 0106 1A68     		ldr	r2, [r3]
 532 0108 42F48022 		orr	r2, r2, #262144
 533 010c 1A60     		str	r2, [r3]
 534              		.loc 1 377 7 discriminator 7 view .LVU152
 535 010e 1A68     		ldr	r2, [r3]
 536 0110 42F48032 		orr	r2, r2, #65536
 537 0114 1A60     		str	r2, [r3]
 538 0116 D4E7     		b	.L35
 539              	.L38:
 540              		.loc 1 398 9 view .LVU153
 541              		.loc 1 398 21 is_stmt 0 view .LVU154
 542 0118 504B     		ldr	r3, .L122+8
 543 011a 9847     		blx	r3
 544              	.LVL33:
 545              		.loc 1 398 21 view .LVU155
 546 011c 0546     		mov	r5, r0
 547              	.LVL34:
 548              		.loc 1 401 9 is_stmt 1 view .LVU156
 549              	.L41:
 550              		.loc 1 401 15 view .LVU157
 551              		.loc 1 401 16 is_stmt 0 view .LVU158
 552 011e 4D4B     		ldr	r3, .L122
 553 0120 1B68     		ldr	r3, [r3]
 554              		.loc 1 401 15 view .LVU159
 555 0122 13F4003F 		tst	r3, #131072
 556 0126 A2D0     		beq	.L31
 557              		.loc 1 403 11 is_stmt 1 view .LVU160
 558              		.loc 1 403 16 is_stmt 0 view .LVU161
 559 0128 4C4B     		ldr	r3, .L122+8
 560 012a 9847     		blx	r3
 561              	.LVL35:
 562              		.loc 1 403 30 view .LVU162
 563 012c 401B     		subs	r0, r0, r5
 564              		.loc 1 403 14 view .LVU163
 565 012e 6428     		cmp	r0, #100
 566 0130 F5D9     		bls	.L41
 567              		.loc 1 405 20 view .LVU164
 568 0132 0320     		movs	r0, #3
 569 0134 63E1     		b	.L30
 570              	.LVL36:
 571              	.L109:
 572              		.loc 1 420 83 discriminator 1 view .LVU165
 573 0136 474B     		ldr	r3, .L122
 574 0138 5B68     		ldr	r3, [r3, #4]
ARM GAS  C:\Users\HP\AppData\Local\Temp\ccUtCZ4i.s 			page 11


 575              		.loc 1 420 79 discriminator 1 view .LVU166
 576 013a 13F4803F 		tst	r3, #65536
 577 013e A5D1     		bne	.L45
 578              	.L44:
 579              		.loc 1 423 7 is_stmt 1 view .LVU167
 580              		.loc 1 423 12 is_stmt 0 view .LVU168
 581 0140 444B     		ldr	r3, .L122
 582 0142 1B68     		ldr	r3, [r3]
 583              		.loc 1 423 10 view .LVU169
 584 0144 13F0020F 		tst	r3, #2
 585 0148 03D0     		beq	.L46
 586              		.loc 1 423 79 discriminator 1 view .LVU170
 587 014a 2369     		ldr	r3, [r4, #16]
 588              		.loc 1 423 58 discriminator 1 view .LVU171
 589 014c 012B     		cmp	r3, #1
 590 014e 40F05381 		bne	.L86
 591              	.L46:
 592              		.loc 1 431 9 is_stmt 1 view .LVU172
 593 0152 404A     		ldr	r2, .L122
 594 0154 1368     		ldr	r3, [r2]
 595 0156 23F0F803 		bic	r3, r3, #248
 596 015a 6169     		ldr	r1, [r4, #20]
 597 015c 43EAC103 		orr	r3, r3, r1, lsl #3
 598 0160 1360     		str	r3, [r2]
 599              	.L43:
 600              		.loc 1 477 3 view .LVU173
 601              		.loc 1 477 26 is_stmt 0 view .LVU174
 602 0162 2368     		ldr	r3, [r4]
 603              		.loc 1 477 6 view .LVU175
 604 0164 13F0080F 		tst	r3, #8
 605 0168 33D0     		beq	.L52
 606              		.loc 1 480 5 is_stmt 1 view .LVU176
 607              		.loc 1 483 5 view .LVU177
 608              		.loc 1 483 26 is_stmt 0 view .LVU178
 609 016a A369     		ldr	r3, [r4, #24]
 610              		.loc 1 483 8 view .LVU179
 611 016c 002B     		cmp	r3, #0
 612 016e 5CD0     		beq	.L53
 613              		.loc 1 486 7 is_stmt 1 view .LVU180
 614 0170 394B     		ldr	r3, .L122+4
 615 0172 0122     		movs	r2, #1
 616 0174 C3F88024 		str	r2, [r3, #1152]
 617              		.loc 1 489 7 view .LVU181
 618              		.loc 1 489 19 is_stmt 0 view .LVU182
 619 0178 384B     		ldr	r3, .L122+8
 620 017a 9847     		blx	r3
 621              	.LVL37:
 622 017c 0546     		mov	r5, r0
 623              	.LVL38:
 624              		.loc 1 492 7 is_stmt 1 view .LVU183
 625              	.L54:
 626              		.loc 1 492 13 view .LVU184
 627              		.loc 1 492 14 is_stmt 0 view .LVU185
 628 017e 354B     		ldr	r3, .L122
 629 0180 5B6A     		ldr	r3, [r3, #36]
 630              		.loc 1 492 13 view .LVU186
 631 0182 13F0020F 		tst	r3, #2
ARM GAS  C:\Users\HP\AppData\Local\Temp\ccUtCZ4i.s 			page 12


 632 0186 21D1     		bne	.L112
 633              		.loc 1 494 9 is_stmt 1 view .LVU187
 634              		.loc 1 494 14 is_stmt 0 view .LVU188
 635 0188 344B     		ldr	r3, .L122+8
 636 018a 9847     		blx	r3
 637              	.LVL39:
 638              		.loc 1 494 28 view .LVU189
 639 018c 401B     		subs	r0, r0, r5
 640              		.loc 1 494 12 view .LVU190
 641 018e 0228     		cmp	r0, #2
 642 0190 F5D9     		bls	.L54
 643              		.loc 1 496 18 view .LVU191
 644 0192 0320     		movs	r0, #3
 645 0194 33E1     		b	.L30
 646              	.L110:
 647              		.loc 1 455 9 is_stmt 1 view .LVU192
 648 0196 2F4A     		ldr	r2, .L122
 649 0198 1368     		ldr	r3, [r2]
 650 019a 23F0F803 		bic	r3, r3, #248
 651 019e 6169     		ldr	r1, [r4, #20]
 652 01a0 43EAC103 		orr	r3, r3, r1, lsl #3
 653 01a4 1360     		str	r3, [r2]
 654 01a6 DCE7     		b	.L43
 655              	.LVL40:
 656              	.L47:
 657              		.loc 1 460 9 view .LVU193
 658 01a8 2B4B     		ldr	r3, .L122+4
 659 01aa 0022     		movs	r2, #0
 660 01ac 1A60     		str	r2, [r3]
 661              		.loc 1 463 9 view .LVU194
 662              		.loc 1 463 21 is_stmt 0 view .LVU195
 663 01ae 2B4B     		ldr	r3, .L122+8
 664 01b0 9847     		blx	r3
 665              	.LVL41:
 666 01b2 0546     		mov	r5, r0
 667              	.LVL42:
 668              		.loc 1 466 9 is_stmt 1 view .LVU196
 669              	.L50:
 670              		.loc 1 466 15 view .LVU197
 671              		.loc 1 466 16 is_stmt 0 view .LVU198
 672 01b4 274B     		ldr	r3, .L122
 673 01b6 1B68     		ldr	r3, [r3]
 674              		.loc 1 466 15 view .LVU199
 675 01b8 13F0020F 		tst	r3, #2
 676 01bc D1D0     		beq	.L43
 677              		.loc 1 468 11 is_stmt 1 view .LVU200
 678              		.loc 1 468 16 is_stmt 0 view .LVU201
 679 01be 274B     		ldr	r3, .L122+8
 680 01c0 9847     		blx	r3
 681              	.LVL43:
 682              		.loc 1 468 30 view .LVU202
 683 01c2 401B     		subs	r0, r0, r5
 684              		.loc 1 468 14 view .LVU203
 685 01c4 0228     		cmp	r0, #2
 686 01c6 F5D9     		bls	.L50
 687              		.loc 1 470 20 view .LVU204
 688 01c8 0320     		movs	r0, #3
ARM GAS  C:\Users\HP\AppData\Local\Temp\ccUtCZ4i.s 			page 13


 689 01ca 18E1     		b	.L30
 690              	.L112:
 691              		.loc 1 501 7 is_stmt 1 view .LVU205
 692 01cc 0120     		movs	r0, #1
 693 01ce 244B     		ldr	r3, .L122+12
 694 01d0 9847     		blx	r3
 695              	.LVL44:
 696              	.L52:
 697              		.loc 1 522 3 view .LVU206
 698              		.loc 1 522 26 is_stmt 0 view .LVU207
 699 01d2 2368     		ldr	r3, [r4]
 700              		.loc 1 522 6 view .LVU208
 701 01d4 13F0040F 		tst	r3, #4
 702 01d8 00F09A80 		beq	.L58
 703              	.LBB2:
 704              		.loc 1 524 5 is_stmt 1 view .LVU209
 705              	.LVL45:
 706              		.loc 1 527 5 view .LVU210
 707              		.loc 1 531 5 view .LVU211
 708              		.loc 1 531 9 is_stmt 0 view .LVU212
 709 01dc 1D4B     		ldr	r3, .L122
 710 01de DB69     		ldr	r3, [r3, #28]
 711              		.loc 1 531 8 view .LVU213
 712 01e0 13F0805F 		tst	r3, #268435456
 713 01e4 34D1     		bne	.L91
 714              		.loc 1 533 7 is_stmt 1 view .LVU214
 715              	.LBB3:
 716              		.loc 1 533 7 view .LVU215
 717              		.loc 1 533 7 view .LVU216
 718 01e6 1B4B     		ldr	r3, .L122
 719 01e8 DA69     		ldr	r2, [r3, #28]
 720 01ea 42F08052 		orr	r2, r2, #268435456
 721 01ee DA61     		str	r2, [r3, #28]
 722              		.loc 1 533 7 view .LVU217
 723 01f0 DB69     		ldr	r3, [r3, #28]
 724 01f2 03F08053 		and	r3, r3, #268435456
 725 01f6 0193     		str	r3, [sp, #4]
 726              		.loc 1 533 7 view .LVU218
 727 01f8 019B     		ldr	r3, [sp, #4]
 728              	.LBE3:
 729              		.loc 1 533 7 view .LVU219
 730              		.loc 1 534 7 view .LVU220
 731              	.LVL46:
 732              		.loc 1 534 21 is_stmt 0 view .LVU221
 733 01fa 0125     		movs	r5, #1
 734              	.LVL47:
 735              	.L59:
 736              		.loc 1 537 5 is_stmt 1 view .LVU222
 737              		.loc 1 537 9 is_stmt 0 view .LVU223
 738 01fc 194B     		ldr	r3, .L122+16
 739 01fe 1B68     		ldr	r3, [r3]
 740              		.loc 1 537 8 view .LVU224
 741 0200 13F4807F 		tst	r3, #256
 742 0204 30D0     		beq	.L113
 743              	.L60:
 744              		.loc 1 555 5 is_stmt 1 view .LVU225
 745              		.loc 1 555 5 view .LVU226
ARM GAS  C:\Users\HP\AppData\Local\Temp\ccUtCZ4i.s 			page 14


 746 0206 E368     		ldr	r3, [r4, #12]
 747 0208 012B     		cmp	r3, #1
 748 020a 41D0     		beq	.L114
 749              		.loc 1 555 5 discriminator 2 view .LVU227
 750 020c 002B     		cmp	r3, #0
 751 020e 57D1     		bne	.L65
 752              		.loc 1 555 5 discriminator 4 view .LVU228
 753 0210 03F18043 		add	r3, r3, #1073741824
 754 0214 03F50433 		add	r3, r3, #135168
 755 0218 1A6A     		ldr	r2, [r3, #32]
 756 021a 22F00102 		bic	r2, r2, #1
 757 021e 1A62     		str	r2, [r3, #32]
 758              		.loc 1 555 5 discriminator 4 view .LVU229
 759 0220 1A6A     		ldr	r2, [r3, #32]
 760 0222 22F00402 		bic	r2, r2, #4
 761 0226 1A62     		str	r2, [r3, #32]
 762 0228 37E0     		b	.L64
 763              	.LVL48:
 764              	.L53:
 765              		.loc 1 555 5 is_stmt 0 discriminator 4 view .LVU230
 766              	.LBE2:
 767              		.loc 1 506 7 is_stmt 1 view .LVU231
 768 022a 0B4B     		ldr	r3, .L122+4
 769 022c 0022     		movs	r2, #0
 770 022e C3F88024 		str	r2, [r3, #1152]
 771              		.loc 1 509 7 view .LVU232
 772              		.loc 1 509 19 is_stmt 0 view .LVU233
 773 0232 0A4B     		ldr	r3, .L122+8
 774 0234 9847     		blx	r3
 775              	.LVL49:
 776 0236 0546     		mov	r5, r0
 777              	.LVL50:
 778              		.loc 1 512 7 is_stmt 1 view .LVU234
 779              	.L56:
 780              		.loc 1 512 13 view .LVU235
 781              		.loc 1 512 14 is_stmt 0 view .LVU236
 782 0238 064B     		ldr	r3, .L122
 783 023a 5B6A     		ldr	r3, [r3, #36]
 784              		.loc 1 512 13 view .LVU237
 785 023c 13F0020F 		tst	r3, #2
 786 0240 C7D0     		beq	.L52
 787              		.loc 1 514 9 is_stmt 1 view .LVU238
 788              		.loc 1 514 14 is_stmt 0 view .LVU239
 789 0242 064B     		ldr	r3, .L122+8
 790 0244 9847     		blx	r3
 791              	.LVL51:
 792              		.loc 1 514 28 view .LVU240
 793 0246 401B     		subs	r0, r0, r5
 794              		.loc 1 514 12 view .LVU241
 795 0248 0228     		cmp	r0, #2
 796 024a F5D9     		bls	.L56
 797              		.loc 1 516 18 view .LVU242
 798 024c 0320     		movs	r0, #3
 799 024e D6E0     		b	.L30
 800              	.LVL52:
 801              	.L91:
 802              	.LBB4:
ARM GAS  C:\Users\HP\AppData\Local\Temp\ccUtCZ4i.s 			page 15


 803              		.loc 1 524 22 view .LVU243
 804 0250 0025     		movs	r5, #0
 805 0252 D3E7     		b	.L59
 806              	.L123:
 807              		.align	2
 808              	.L122:
 809 0254 00100240 		.word	1073876992
 810 0258 00004242 		.word	1111621632
 811 025c 00000000 		.word	HAL_GetTick
 812 0260 00000000 		.word	RCC_Delay
 813 0264 00700040 		.word	1073770496
 814              	.LVL53:
 815              	.L113:
 816              		.loc 1 540 7 is_stmt 1 view .LVU244
 817 0268 694A     		ldr	r2, .L124
 818 026a 1368     		ldr	r3, [r2]
 819 026c 43F48073 		orr	r3, r3, #256
 820 0270 1360     		str	r3, [r2]
 821              		.loc 1 543 7 view .LVU245
 822              		.loc 1 543 19 is_stmt 0 view .LVU246
 823 0272 684B     		ldr	r3, .L124+4
 824 0274 9847     		blx	r3
 825              	.LVL54:
 826 0276 0646     		mov	r6, r0
 827              	.LVL55:
 828              		.loc 1 545 7 is_stmt 1 view .LVU247
 829              	.L61:
 830              		.loc 1 545 13 view .LVU248
 831              		.loc 1 545 14 is_stmt 0 view .LVU249
 832 0278 654B     		ldr	r3, .L124
 833 027a 1B68     		ldr	r3, [r3]
 834              		.loc 1 545 13 view .LVU250
 835 027c 13F4807F 		tst	r3, #256
 836 0280 C1D1     		bne	.L60
 837              		.loc 1 547 9 is_stmt 1 view .LVU251
 838              		.loc 1 547 14 is_stmt 0 view .LVU252
 839 0282 644B     		ldr	r3, .L124+4
 840 0284 9847     		blx	r3
 841              	.LVL56:
 842              		.loc 1 547 28 view .LVU253
 843 0286 801B     		subs	r0, r0, r6
 844              		.loc 1 547 12 view .LVU254
 845 0288 6428     		cmp	r0, #100
 846 028a F5D9     		bls	.L61
 847              		.loc 1 549 18 view .LVU255
 848 028c 0320     		movs	r0, #3
 849 028e B6E0     		b	.L30
 850              	.LVL57:
 851              	.L114:
 852              		.loc 1 555 5 is_stmt 1 discriminator 1 view .LVU256
 853 0290 614A     		ldr	r2, .L124+8
 854 0292 136A     		ldr	r3, [r2, #32]
 855 0294 43F00103 		orr	r3, r3, #1
 856 0298 1362     		str	r3, [r2, #32]
 857              	.L64:
 858              		.loc 1 555 5 discriminator 10 view .LVU257
 859              		.loc 1 557 5 discriminator 10 view .LVU258
ARM GAS  C:\Users\HP\AppData\Local\Temp\ccUtCZ4i.s 			page 16


 860              		.loc 1 557 26 is_stmt 0 discriminator 10 view .LVU259
 861 029a E368     		ldr	r3, [r4, #12]
 862              		.loc 1 557 8 discriminator 10 view .LVU260
 863 029c 33B3     		cbz	r3, .L67
 864              		.loc 1 560 7 is_stmt 1 view .LVU261
 865              		.loc 1 560 19 is_stmt 0 view .LVU262
 866 029e 5D4B     		ldr	r3, .L124+4
 867 02a0 9847     		blx	r3
 868              	.LVL58:
 869 02a2 0646     		mov	r6, r0
 870              	.LVL59:
 871              		.loc 1 563 7 is_stmt 1 view .LVU263
 872              	.L68:
 873              		.loc 1 563 13 view .LVU264
 874              		.loc 1 563 14 is_stmt 0 view .LVU265
 875 02a4 5C4B     		ldr	r3, .L124+8
 876 02a6 1B6A     		ldr	r3, [r3, #32]
 877              		.loc 1 563 13 view .LVU266
 878 02a8 13F0020F 		tst	r3, #2
 879 02ac 2FD1     		bne	.L70
 880              		.loc 1 565 9 is_stmt 1 view .LVU267
 881              		.loc 1 565 14 is_stmt 0 view .LVU268
 882 02ae 594B     		ldr	r3, .L124+4
 883 02b0 9847     		blx	r3
 884              	.LVL60:
 885              		.loc 1 565 28 view .LVU269
 886 02b2 801B     		subs	r0, r0, r6
 887              		.loc 1 565 12 view .LVU270
 888 02b4 41F28833 		movw	r3, #5000
 889 02b8 9842     		cmp	r0, r3
 890 02ba F3D9     		bls	.L68
 891              		.loc 1 567 18 view .LVU271
 892 02bc 0320     		movs	r0, #3
 893 02be 9EE0     		b	.L30
 894              	.LVL61:
 895              	.L65:
 896              		.loc 1 555 5 is_stmt 1 discriminator 5 view .LVU272
 897 02c0 052B     		cmp	r3, #5
 898 02c2 09D0     		beq	.L115
 899              		.loc 1 555 5 discriminator 8 view .LVU273
 900 02c4 544B     		ldr	r3, .L124+8
 901 02c6 1A6A     		ldr	r2, [r3, #32]
 902 02c8 22F00102 		bic	r2, r2, #1
 903 02cc 1A62     		str	r2, [r3, #32]
 904              		.loc 1 555 5 discriminator 8 view .LVU274
 905 02ce 1A6A     		ldr	r2, [r3, #32]
 906 02d0 22F00402 		bic	r2, r2, #4
 907 02d4 1A62     		str	r2, [r3, #32]
 908 02d6 E0E7     		b	.L64
 909              	.L115:
 910              		.loc 1 555 5 discriminator 7 view .LVU275
 911 02d8 4F4B     		ldr	r3, .L124+8
 912 02da 1A6A     		ldr	r2, [r3, #32]
 913 02dc 42F00402 		orr	r2, r2, #4
 914 02e0 1A62     		str	r2, [r3, #32]
 915              		.loc 1 555 5 discriminator 7 view .LVU276
 916 02e2 1A6A     		ldr	r2, [r3, #32]
ARM GAS  C:\Users\HP\AppData\Local\Temp\ccUtCZ4i.s 			page 17


 917 02e4 42F00102 		orr	r2, r2, #1
 918 02e8 1A62     		str	r2, [r3, #32]
 919 02ea D6E7     		b	.L64
 920              	.L67:
 921              		.loc 1 574 7 view .LVU277
 922              		.loc 1 574 19 is_stmt 0 view .LVU278
 923 02ec 494B     		ldr	r3, .L124+4
 924 02ee 9847     		blx	r3
 925              	.LVL62:
 926 02f0 0646     		mov	r6, r0
 927              	.LVL63:
 928              		.loc 1 577 7 is_stmt 1 view .LVU279
 929              	.L71:
 930              		.loc 1 577 13 view .LVU280
 931              		.loc 1 577 14 is_stmt 0 view .LVU281
 932 02f2 494B     		ldr	r3, .L124+8
 933 02f4 1B6A     		ldr	r3, [r3, #32]
 934              		.loc 1 577 13 view .LVU282
 935 02f6 13F0020F 		tst	r3, #2
 936 02fa 08D0     		beq	.L70
 937              		.loc 1 579 9 is_stmt 1 view .LVU283
 938              		.loc 1 579 14 is_stmt 0 view .LVU284
 939 02fc 454B     		ldr	r3, .L124+4
 940 02fe 9847     		blx	r3
 941              	.LVL64:
 942              		.loc 1 579 28 view .LVU285
 943 0300 801B     		subs	r0, r0, r6
 944              		.loc 1 579 12 view .LVU286
 945 0302 41F28833 		movw	r3, #5000
 946 0306 9842     		cmp	r0, r3
 947 0308 F3D9     		bls	.L71
 948              		.loc 1 581 18 view .LVU287
 949 030a 0320     		movs	r0, #3
 950 030c 77E0     		b	.L30
 951              	.L70:
 952              		.loc 1 587 5 is_stmt 1 view .LVU288
 953              		.loc 1 587 8 is_stmt 0 view .LVU289
 954 030e E5B9     		cbnz	r5, .L116
 955              	.LVL65:
 956              	.L58:
 957              		.loc 1 587 8 view .LVU290
 958              	.LBE4:
 959              		.loc 1 685 3 is_stmt 1 view .LVU291
 960              		.loc 1 686 3 view .LVU292
 961              		.loc 1 686 30 is_stmt 0 view .LVU293
 962 0310 E369     		ldr	r3, [r4, #28]
 963              		.loc 1 686 6 view .LVU294
 964 0312 002B     		cmp	r3, #0
 965 0314 72D0     		beq	.L95
 966              		.loc 1 689 5 is_stmt 1 view .LVU295
 967              		.loc 1 689 9 is_stmt 0 view .LVU296
 968 0316 404A     		ldr	r2, .L124+8
 969 0318 5268     		ldr	r2, [r2, #4]
 970 031a 02F00C02 		and	r2, r2, #12
 971              		.loc 1 689 8 view .LVU297
 972 031e 082A     		cmp	r2, #8
 973 0320 56D0     		beq	.L73
ARM GAS  C:\Users\HP\AppData\Local\Temp\ccUtCZ4i.s 			page 18


 974              		.loc 1 691 7 is_stmt 1 view .LVU298
 975              		.loc 1 691 10 is_stmt 0 view .LVU299
 976 0322 022B     		cmp	r3, #2
 977 0324 17D0     		beq	.L117
 978              		.loc 1 750 9 is_stmt 1 view .LVU300
 979 0326 3D4B     		ldr	r3, .L124+12
 980 0328 0022     		movs	r2, #0
 981 032a 1A66     		str	r2, [r3, #96]
 982              		.loc 1 753 9 view .LVU301
 983              		.loc 1 753 21 is_stmt 0 view .LVU302
 984 032c 394B     		ldr	r3, .L124+4
 985 032e 9847     		blx	r3
 986              	.LVL66:
 987 0330 0446     		mov	r4, r0
 988              	.LVL67:
 989              		.loc 1 756 9 is_stmt 1 view .LVU303
 990              	.L80:
 991              		.loc 1 756 15 view .LVU304
 992              		.loc 1 756 16 is_stmt 0 view .LVU305
 993 0332 394B     		ldr	r3, .L124+8
 994 0334 1B68     		ldr	r3, [r3]
 995              		.loc 1 756 15 view .LVU306
 996 0336 13F0007F 		tst	r3, #33554432
 997 033a 47D0     		beq	.L118
 998              		.loc 1 758 11 is_stmt 1 view .LVU307
 999              		.loc 1 758 16 is_stmt 0 view .LVU308
 1000 033c 354B     		ldr	r3, .L124+4
 1001 033e 9847     		blx	r3
 1002              	.LVL68:
 1003              		.loc 1 758 30 view .LVU309
 1004 0340 001B     		subs	r0, r0, r4
 1005              		.loc 1 758 14 view .LVU310
 1006 0342 0228     		cmp	r0, #2
 1007 0344 F5D9     		bls	.L80
 1008              		.loc 1 760 20 view .LVU311
 1009 0346 0320     		movs	r0, #3
 1010 0348 59E0     		b	.L30
 1011              	.LVL69:
 1012              	.L116:
 1013              	.LBB5:
 1014              		.loc 1 589 7 is_stmt 1 view .LVU312
 1015 034a 334A     		ldr	r2, .L124+8
 1016 034c D369     		ldr	r3, [r2, #28]
 1017 034e 23F08053 		bic	r3, r3, #268435456
 1018 0352 D361     		str	r3, [r2, #28]
 1019 0354 DCE7     		b	.L58
 1020              	.LVL70:
 1021              	.L117:
 1022              		.loc 1 589 7 is_stmt 0 view .LVU313
 1023              	.LBE5:
 1024              		.loc 1 694 9 is_stmt 1 view .LVU314
 1025              		.loc 1 695 9 view .LVU315
 1026              		.loc 1 698 9 view .LVU316
 1027 0356 314B     		ldr	r3, .L124+12
 1028 0358 0022     		movs	r2, #0
 1029 035a 1A66     		str	r2, [r3, #96]
 1030              		.loc 1 701 9 view .LVU317
ARM GAS  C:\Users\HP\AppData\Local\Temp\ccUtCZ4i.s 			page 19


 1031              		.loc 1 701 21 is_stmt 0 view .LVU318
 1032 035c 2D4B     		ldr	r3, .L124+4
 1033 035e 9847     		blx	r3
 1034              	.LVL71:
 1035 0360 0546     		mov	r5, r0
 1036              	.LVL72:
 1037              		.loc 1 704 9 is_stmt 1 view .LVU319
 1038              	.L75:
 1039              		.loc 1 704 15 view .LVU320
 1040              		.loc 1 704 16 is_stmt 0 view .LVU321
 1041 0362 2D4B     		ldr	r3, .L124+8
 1042 0364 1B68     		ldr	r3, [r3]
 1043              		.loc 1 704 15 view .LVU322
 1044 0366 13F0007F 		tst	r3, #33554432
 1045 036a 06D0     		beq	.L119
 1046              		.loc 1 706 11 is_stmt 1 view .LVU323
 1047              		.loc 1 706 16 is_stmt 0 view .LVU324
 1048 036c 294B     		ldr	r3, .L124+4
 1049 036e 9847     		blx	r3
 1050              	.LVL73:
 1051              		.loc 1 706 30 view .LVU325
 1052 0370 401B     		subs	r0, r0, r5
 1053              		.loc 1 706 14 view .LVU326
 1054 0372 0228     		cmp	r0, #2
 1055 0374 F5D9     		bls	.L75
 1056              		.loc 1 708 20 view .LVU327
 1057 0376 0320     		movs	r0, #3
 1058 0378 41E0     		b	.L30
 1059              	.L119:
 1060              		.loc 1 714 9 is_stmt 1 view .LVU328
 1061              		.loc 1 714 35 is_stmt 0 view .LVU329
 1062 037a 236A     		ldr	r3, [r4, #32]
 1063              		.loc 1 714 12 view .LVU330
 1064 037c B3F5803F 		cmp	r3, #65536
 1065 0380 1AD0     		beq	.L120
 1066              	.L77:
 1067              		.loc 1 730 9 is_stmt 1 view .LVU331
 1068 0382 2549     		ldr	r1, .L124+8
 1069 0384 4B68     		ldr	r3, [r1, #4]
 1070 0386 23F47413 		bic	r3, r3, #3997696
 1071 038a 226A     		ldr	r2, [r4, #32]
 1072 038c 606A     		ldr	r0, [r4, #36]
 1073 038e 0243     		orrs	r2, r2, r0
 1074 0390 1343     		orrs	r3, r3, r2
 1075 0392 4B60     		str	r3, [r1, #4]
 1076              		.loc 1 733 9 view .LVU332
 1077 0394 214B     		ldr	r3, .L124+12
 1078 0396 0122     		movs	r2, #1
 1079 0398 1A66     		str	r2, [r3, #96]
 1080              		.loc 1 736 9 view .LVU333
 1081              		.loc 1 736 21 is_stmt 0 view .LVU334
 1082 039a 1E4B     		ldr	r3, .L124+4
 1083 039c 9847     		blx	r3
 1084              	.LVL74:
 1085 039e 0446     		mov	r4, r0
 1086              	.LVL75:
 1087              		.loc 1 739 9 is_stmt 1 view .LVU335
ARM GAS  C:\Users\HP\AppData\Local\Temp\ccUtCZ4i.s 			page 20


 1088              	.L78:
 1089              		.loc 1 739 15 view .LVU336
 1090              		.loc 1 739 16 is_stmt 0 view .LVU337
 1091 03a0 1D4B     		ldr	r3, .L124+8
 1092 03a2 1B68     		ldr	r3, [r3]
 1093              		.loc 1 739 15 view .LVU338
 1094 03a4 13F0007F 		tst	r3, #33554432
 1095 03a8 0ED1     		bne	.L121
 1096              		.loc 1 741 11 is_stmt 1 view .LVU339
 1097              		.loc 1 741 16 is_stmt 0 view .LVU340
 1098 03aa 1A4B     		ldr	r3, .L124+4
 1099 03ac 9847     		blx	r3
 1100              	.LVL76:
 1101              		.loc 1 741 30 view .LVU341
 1102 03ae 001B     		subs	r0, r0, r4
 1103              		.loc 1 741 14 view .LVU342
 1104 03b0 0228     		cmp	r0, #2
 1105 03b2 F5D9     		bls	.L78
 1106              		.loc 1 743 20 view .LVU343
 1107 03b4 0320     		movs	r0, #3
 1108 03b6 22E0     		b	.L30
 1109              	.LVL77:
 1110              	.L120:
 1111              		.loc 1 717 11 is_stmt 1 view .LVU344
 1112              		.loc 1 726 11 view .LVU345
 1113 03b8 174A     		ldr	r2, .L124+8
 1114 03ba 5368     		ldr	r3, [r2, #4]
 1115 03bc 23F40033 		bic	r3, r3, #131072
 1116 03c0 A168     		ldr	r1, [r4, #8]
 1117 03c2 0B43     		orrs	r3, r3, r1
 1118 03c4 5360     		str	r3, [r2, #4]
 1119 03c6 DCE7     		b	.L77
 1120              	.LVL78:
 1121              	.L121:
 1122              		.loc 1 785 10 is_stmt 0 view .LVU346
 1123 03c8 0020     		movs	r0, #0
 1124 03ca 18E0     		b	.L30
 1125              	.L118:
 1126              		.loc 1 785 10 view .LVU347
 1127 03cc 0020     		movs	r0, #0
 1128 03ce 16E0     		b	.L30
 1129              	.LVL79:
 1130              	.L73:
 1131              		.loc 1 768 7 is_stmt 1 view .LVU348
 1132              		.loc 1 768 10 is_stmt 0 view .LVU349
 1133 03d0 012B     		cmp	r3, #1
 1134 03d2 16D0     		beq	.L99
 1135              		.loc 1 775 9 is_stmt 1 view .LVU350
 1136              		.loc 1 775 20 is_stmt 0 view .LVU351
 1137 03d4 104B     		ldr	r3, .L124+8
 1138 03d6 5B68     		ldr	r3, [r3, #4]
 1139              	.LVL80:
 1140              		.loc 1 776 9 is_stmt 1 view .LVU352
 1141              		.loc 1 776 14 is_stmt 0 view .LVU353
 1142 03d8 03F48031 		and	r1, r3, #65536
 1143              		.loc 1 776 77 view .LVU354
 1144 03dc 226A     		ldr	r2, [r4, #32]
ARM GAS  C:\Users\HP\AppData\Local\Temp\ccUtCZ4i.s 			page 21


 1145              		.loc 1 776 12 view .LVU355
 1146 03de 9142     		cmp	r1, r2
 1147 03e0 11D1     		bne	.L100
 1148              		.loc 1 777 14 discriminator 1 view .LVU356
 1149 03e2 03F47013 		and	r3, r3, #3932160
 1150              	.LVL81:
 1151              		.loc 1 777 78 discriminator 1 view .LVU357
 1152 03e6 626A     		ldr	r2, [r4, #36]
 1153              		.loc 1 776 89 discriminator 1 view .LVU358
 1154 03e8 9342     		cmp	r3, r2
 1155 03ea 0ED1     		bne	.L101
 1156              		.loc 1 785 10 view .LVU359
 1157 03ec 0020     		movs	r0, #0
 1158 03ee 06E0     		b	.L30
 1159              	.LVL82:
 1160              	.L82:
 1161              	.LCFI5:
 1162              		.cfi_def_cfa_offset 0
 1163              		.cfi_restore 4
 1164              		.cfi_restore 5
 1165              		.cfi_restore 6
 1166              		.cfi_restore 14
 1167              		.loc 1 353 12 view .LVU360
 1168 03f0 0120     		movs	r0, #1
 1169              	.LVL83:
 1170              		.loc 1 786 1 view .LVU361
 1171 03f2 7047     		bx	lr
 1172              	.LVL84:
 1173              	.L108:
 1174              	.LCFI6:
 1175              		.cfi_def_cfa_offset 24
 1176              		.cfi_offset 4, -16
 1177              		.cfi_offset 5, -12
 1178              		.cfi_offset 6, -8
 1179              		.cfi_offset 14, -4
 1180              		.loc 1 371 16 view .LVU362
 1181 03f4 0120     		movs	r0, #1
 1182              	.LVL85:
 1183              		.loc 1 371 16 view .LVU363
 1184 03f6 02E0     		b	.L30
 1185              	.L86:
 1186              		.loc 1 425 16 view .LVU364
 1187 03f8 0120     		movs	r0, #1
 1188 03fa 00E0     		b	.L30
 1189              	.L95:
 1190              		.loc 1 785 10 view .LVU365
 1191 03fc 0020     		movs	r0, #0
 1192              	.LVL86:
 1193              	.L30:
 1194              		.loc 1 786 1 view .LVU366
 1195 03fe 02B0     		add	sp, sp, #8
 1196              	.LCFI7:
 1197              		.cfi_remember_state
 1198              		.cfi_def_cfa_offset 16
 1199              		@ sp needed
 1200 0400 70BD     		pop	{r4, r5, r6, pc}
 1201              	.LVL87:
ARM GAS  C:\Users\HP\AppData\Local\Temp\ccUtCZ4i.s 			page 22


 1202              	.L99:
 1203              	.LCFI8:
 1204              		.cfi_restore_state
 1205              		.loc 1 770 16 view .LVU367
 1206 0402 0120     		movs	r0, #1
 1207 0404 FBE7     		b	.L30
 1208              	.LVL88:
 1209              	.L100:
 1210              		.loc 1 779 18 view .LVU368
 1211 0406 0120     		movs	r0, #1
 1212 0408 F9E7     		b	.L30
 1213              	.LVL89:
 1214              	.L101:
 1215              		.loc 1 779 18 view .LVU369
 1216 040a 0120     		movs	r0, #1
 1217 040c F7E7     		b	.L30
 1218              	.L125:
 1219 040e 00BF     		.align	2
 1220              	.L124:
 1221 0410 00700040 		.word	1073770496
 1222 0414 00000000 		.word	HAL_GetTick
 1223 0418 00100240 		.word	1073876992
 1224 041c 00004242 		.word	1111621632
 1225              		.cfi_endproc
 1226              	.LFE66:
 1228              		.section	.text.HAL_RCC_MCOConfig,"ax",%progbits
 1229              		.align	1
 1230              		.global	HAL_RCC_MCOConfig
 1231              		.syntax unified
 1232              		.thumb
 1233              		.thumb_func
 1234              		.fpu softvfp
 1236              	HAL_RCC_MCOConfig:
 1237              	.LVL90:
 1238              	.LFB68:
 1239              		.loc 1 1001 1 is_stmt 1 view -0
 1240              		.cfi_startproc
 1241              		@ args = 0, pretend = 0, frame = 24
 1242              		@ frame_needed = 0, uses_anonymous_args = 0
 1243              		.loc 1 1001 1 is_stmt 0 view .LVU371
 1244 0000 30B5     		push	{r4, r5, lr}
 1245              	.LCFI9:
 1246              		.cfi_def_cfa_offset 12
 1247              		.cfi_offset 4, -12
 1248              		.cfi_offset 5, -8
 1249              		.cfi_offset 14, -4
 1250 0002 87B0     		sub	sp, sp, #28
 1251              	.LCFI10:
 1252              		.cfi_def_cfa_offset 40
 1253 0004 0D46     		mov	r5, r1
 1254              		.loc 1 1002 3 is_stmt 1 view .LVU372
 1255              		.loc 1 1002 20 is_stmt 0 view .LVU373
 1256 0006 0023     		movs	r3, #0
 1257 0008 0293     		str	r3, [sp, #8]
 1258 000a 0393     		str	r3, [sp, #12]
 1259 000c 0493     		str	r3, [sp, #16]
 1260 000e 0593     		str	r3, [sp, #20]
ARM GAS  C:\Users\HP\AppData\Local\Temp\ccUtCZ4i.s 			page 23


 1261              		.loc 1 1005 3 is_stmt 1 view .LVU374
 1262              		.loc 1 1006 3 view .LVU375
 1263              		.loc 1 1007 3 view .LVU376
 1264              		.loc 1 1010 3 view .LVU377
 1265              		.loc 1 1011 3 view .LVU378
 1266              		.loc 1 1014 3 view .LVU379
 1267              		.loc 1 1014 18 is_stmt 0 view .LVU380
 1268 0010 0223     		movs	r3, #2
 1269 0012 0393     		str	r3, [sp, #12]
 1270              		.loc 1 1015 3 is_stmt 1 view .LVU381
 1271              		.loc 1 1015 18 is_stmt 0 view .LVU382
 1272 0014 0323     		movs	r3, #3
 1273 0016 0593     		str	r3, [sp, #20]
 1274              		.loc 1 1016 3 is_stmt 1 view .LVU383
 1275              		.loc 1 1017 3 view .LVU384
 1276              		.loc 1 1017 18 is_stmt 0 view .LVU385
 1277 0018 4FF48073 		mov	r3, #256
 1278 001c 0293     		str	r3, [sp, #8]
 1279              		.loc 1 1020 3 is_stmt 1 view .LVU386
 1280              	.LBB6:
 1281              		.loc 1 1020 3 view .LVU387
 1282              		.loc 1 1020 3 view .LVU388
 1283 001e 0A4C     		ldr	r4, .L128
 1284 0020 A369     		ldr	r3, [r4, #24]
 1285 0022 43F00403 		orr	r3, r3, #4
 1286 0026 A361     		str	r3, [r4, #24]
 1287              		.loc 1 1020 3 view .LVU389
 1288 0028 A369     		ldr	r3, [r4, #24]
 1289 002a 03F00403 		and	r3, r3, #4
 1290 002e 0193     		str	r3, [sp, #4]
 1291              		.loc 1 1020 3 view .LVU390
 1292 0030 019B     		ldr	r3, [sp, #4]
 1293              	.LBE6:
 1294              		.loc 1 1020 3 view .LVU391
 1295              		.loc 1 1022 3 view .LVU392
 1296 0032 02A9     		add	r1, sp, #8
 1297              	.LVL91:
 1298              		.loc 1 1022 3 is_stmt 0 view .LVU393
 1299 0034 0548     		ldr	r0, .L128+4
 1300              	.LVL92:
 1301              		.loc 1 1022 3 view .LVU394
 1302 0036 064B     		ldr	r3, .L128+8
 1303 0038 9847     		blx	r3
 1304              	.LVL93:
 1305              		.loc 1 1025 3 is_stmt 1 view .LVU395
 1306 003a 6368     		ldr	r3, [r4, #4]
 1307 003c 23F0E063 		bic	r3, r3, #117440512
 1308 0040 2B43     		orrs	r3, r3, r5
 1309 0042 6360     		str	r3, [r4, #4]
 1310              		.loc 1 1026 1 is_stmt 0 view .LVU396
 1311 0044 07B0     		add	sp, sp, #28
 1312              	.LCFI11:
 1313              		.cfi_def_cfa_offset 12
 1314              		@ sp needed
 1315 0046 30BD     		pop	{r4, r5, pc}
 1316              	.LVL94:
 1317              	.L129:
ARM GAS  C:\Users\HP\AppData\Local\Temp\ccUtCZ4i.s 			page 24


 1318              		.loc 1 1026 1 view .LVU397
 1319              		.align	2
 1320              	.L128:
 1321 0048 00100240 		.word	1073876992
 1322 004c 00080140 		.word	1073809408
 1323 0050 00000000 		.word	HAL_GPIO_Init
 1324              		.cfi_endproc
 1325              	.LFE68:
 1327              		.section	.text.HAL_RCC_EnableCSS,"ax",%progbits
 1328              		.align	1
 1329              		.global	HAL_RCC_EnableCSS
 1330              		.syntax unified
 1331              		.thumb
 1332              		.thumb_func
 1333              		.fpu softvfp
 1335              	HAL_RCC_EnableCSS:
 1336              	.LFB69:
 1337              		.loc 1 1038 1 is_stmt 1 view -0
 1338              		.cfi_startproc
 1339              		@ args = 0, pretend = 0, frame = 0
 1340              		@ frame_needed = 0, uses_anonymous_args = 0
 1341              		@ link register save eliminated.
 1342              		.loc 1 1039 3 view .LVU399
 1343              		.loc 1 1039 38 is_stmt 0 view .LVU400
 1344 0000 014B     		ldr	r3, .L131
 1345 0002 0122     		movs	r2, #1
 1346 0004 DA64     		str	r2, [r3, #76]
 1347              		.loc 1 1040 1 view .LVU401
 1348 0006 7047     		bx	lr
 1349              	.L132:
 1350              		.align	2
 1351              	.L131:
 1352 0008 00004242 		.word	1111621632
 1353              		.cfi_endproc
 1354              	.LFE69:
 1356              		.section	.text.HAL_RCC_DisableCSS,"ax",%progbits
 1357              		.align	1
 1358              		.global	HAL_RCC_DisableCSS
 1359              		.syntax unified
 1360              		.thumb
 1361              		.thumb_func
 1362              		.fpu softvfp
 1364              	HAL_RCC_DisableCSS:
 1365              	.LFB70:
 1366              		.loc 1 1047 1 is_stmt 1 view -0
 1367              		.cfi_startproc
 1368              		@ args = 0, pretend = 0, frame = 0
 1369              		@ frame_needed = 0, uses_anonymous_args = 0
 1370              		@ link register save eliminated.
 1371              		.loc 1 1048 3 view .LVU403
 1372              		.loc 1 1048 38 is_stmt 0 view .LVU404
 1373 0000 014B     		ldr	r3, .L134
 1374 0002 0022     		movs	r2, #0
 1375 0004 DA64     		str	r2, [r3, #76]
 1376              		.loc 1 1049 1 view .LVU405
 1377 0006 7047     		bx	lr
 1378              	.L135:
ARM GAS  C:\Users\HP\AppData\Local\Temp\ccUtCZ4i.s 			page 25


 1379              		.align	2
 1380              	.L134:
 1381 0008 00004242 		.word	1111621632
 1382              		.cfi_endproc
 1383              	.LFE70:
 1385              		.section	.text.HAL_RCC_GetSysClockFreq,"ax",%progbits
 1386              		.align	1
 1387              		.global	HAL_RCC_GetSysClockFreq
 1388              		.syntax unified
 1389              		.thumb
 1390              		.thumb_func
 1391              		.fpu softvfp
 1393              	HAL_RCC_GetSysClockFreq:
 1394              	.LFB71:
 1395              		.loc 1 1081 1 is_stmt 1 view -0
 1396              		.cfi_startproc
 1397              		@ args = 0, pretend = 0, frame = 0
 1398              		@ frame_needed = 0, uses_anonymous_args = 0
 1399              		@ link register save eliminated.
 1400              		.loc 1 1086 3 view .LVU407
 1401              		.loc 1 1090 3 view .LVU408
 1402              		.loc 1 1094 3 view .LVU409
 1403              	.LVL95:
 1404              		.loc 1 1095 3 view .LVU410
 1405              		.loc 1 1100 3 view .LVU411
 1406              		.loc 1 1100 10 is_stmt 0 view .LVU412
 1407 0000 0F4B     		ldr	r3, .L141
 1408 0002 5B68     		ldr	r3, [r3, #4]
 1409              	.LVL96:
 1410              		.loc 1 1103 3 is_stmt 1 view .LVU413
 1411              		.loc 1 1103 18 is_stmt 0 view .LVU414
 1412 0004 03F00C02 		and	r2, r3, #12
 1413              		.loc 1 1103 3 view .LVU415
 1414 0008 082A     		cmp	r2, #8
 1415 000a 01D0     		beq	.L140
 1416              		.loc 1 1107 20 view .LVU416
 1417 000c 0D48     		ldr	r0, .L141+4
 1418              	.LVL97:
 1419              		.loc 1 1162 3 is_stmt 1 view .LVU417
 1420              		.loc 1 1163 1 is_stmt 0 view .LVU418
 1421 000e 7047     		bx	lr
 1422              	.LVL98:
 1423              	.L140:
 1424              		.loc 1 1112 7 is_stmt 1 view .LVU419
 1425              		.loc 1 1112 73 is_stmt 0 view .LVU420
 1426 0010 C3F38342 		ubfx	r2, r3, #18, #4
 1427              		.loc 1 1112 34 view .LVU421
 1428 0014 0C49     		ldr	r1, .L141+8
 1429 0016 885C     		ldrb	r0, [r1, r2]	@ zero_extendqisi2
 1430              	.LVL99:
 1431              		.loc 1 1113 7 is_stmt 1 view .LVU422
 1432              		.loc 1 1113 10 is_stmt 0 view .LVU423
 1433 0018 13F4803F 		tst	r3, #65536
 1434 001c 0BD0     		beq	.L138
 1435              		.loc 1 1118 9 is_stmt 1 view .LVU424
 1436              		.loc 1 1118 51 is_stmt 0 view .LVU425
 1437 001e 084B     		ldr	r3, .L141
ARM GAS  C:\Users\HP\AppData\Local\Temp\ccUtCZ4i.s 			page 26


 1438              	.LVL100:
 1439              		.loc 1 1118 51 view .LVU426
 1440 0020 5B68     		ldr	r3, [r3, #4]
 1441              		.loc 1 1118 79 view .LVU427
 1442 0022 C3F34043 		ubfx	r3, r3, #17, #1
 1443              		.loc 1 1118 36 view .LVU428
 1444 0026 094A     		ldr	r2, .L141+12
 1445 0028 D35C     		ldrb	r3, [r2, r3]	@ zero_extendqisi2
 1446              	.LVL101:
 1447              		.loc 1 1144 9 is_stmt 1 view .LVU429
 1448              		.loc 1 1144 41 is_stmt 0 view .LVU430
 1449 002a 064A     		ldr	r2, .L141+4
 1450 002c 02FB00F0 		mul	r0, r2, r0
 1451              	.LVL102:
 1452              		.loc 1 1144 16 view .LVU431
 1453 0030 B0FBF3F0 		udiv	r0, r0, r3
 1454              	.LVL103:
 1455              		.loc 1 1144 16 view .LVU432
 1456 0034 7047     		bx	lr
 1457              	.LVL104:
 1458              	.L138:
 1459              		.loc 1 1150 9 is_stmt 1 view .LVU433
 1460              		.loc 1 1150 16 is_stmt 0 view .LVU434
 1461 0036 064B     		ldr	r3, .L141+16
 1462              	.LVL105:
 1463              		.loc 1 1150 16 view .LVU435
 1464 0038 03FB00F0 		mul	r0, r3, r0
 1465              	.LVL106:
 1466              		.loc 1 1150 16 view .LVU436
 1467 003c 7047     		bx	lr
 1468              	.L142:
 1469 003e 00BF     		.align	2
 1470              	.L141:
 1471 0040 00100240 		.word	1073876992
 1472 0044 00127A00 		.word	8000000
 1473 0048 00000000 		.word	.LANCHOR0
 1474 004c 00000000 		.word	.LANCHOR1
 1475 0050 00093D00 		.word	4000000
 1476              		.cfi_endproc
 1477              	.LFE71:
 1479              		.section	.text.HAL_RCC_ClockConfig,"ax",%progbits
 1480              		.align	1
 1481              		.global	HAL_RCC_ClockConfig
 1482              		.syntax unified
 1483              		.thumb
 1484              		.thumb_func
 1485              		.fpu softvfp
 1487              	HAL_RCC_ClockConfig:
 1488              	.LVL107:
 1489              	.LFB67:
 1490              		.loc 1 812 1 is_stmt 1 view -0
 1491              		.cfi_startproc
 1492              		@ args = 0, pretend = 0, frame = 0
 1493              		@ frame_needed = 0, uses_anonymous_args = 0
 1494              		.loc 1 813 3 view .LVU438
 1495              		.loc 1 816 3 view .LVU439
 1496              		.loc 1 816 6 is_stmt 0 view .LVU440
ARM GAS  C:\Users\HP\AppData\Local\Temp\ccUtCZ4i.s 			page 27


 1497 0000 0028     		cmp	r0, #0
 1498 0002 00F0A080 		beq	.L158
 1499              		.loc 1 812 1 view .LVU441
 1500 0006 70B5     		push	{r4, r5, r6, lr}
 1501              	.LCFI12:
 1502              		.cfi_def_cfa_offset 16
 1503              		.cfi_offset 4, -16
 1504              		.cfi_offset 5, -12
 1505              		.cfi_offset 6, -8
 1506              		.cfi_offset 14, -4
 1507 0008 0D46     		mov	r5, r1
 1508 000a 0446     		mov	r4, r0
 1509              		.loc 1 822 3 is_stmt 1 view .LVU442
 1510              		.loc 1 823 3 view .LVU443
 1511              		.loc 1 831 3 view .LVU444
 1512              		.loc 1 831 18 is_stmt 0 view .LVU445
 1513 000c 524B     		ldr	r3, .L171
 1514 000e 1B68     		ldr	r3, [r3]
 1515 0010 03F00703 		and	r3, r3, #7
 1516              		.loc 1 831 6 view .LVU446
 1517 0014 8B42     		cmp	r3, r1
 1518 0016 0BD2     		bcs	.L145
 1519              		.loc 1 834 5 is_stmt 1 view .LVU447
 1520 0018 4F4A     		ldr	r2, .L171
 1521 001a 1368     		ldr	r3, [r2]
 1522 001c 23F00703 		bic	r3, r3, #7
 1523 0020 0B43     		orrs	r3, r3, r1
 1524 0022 1360     		str	r3, [r2]
 1525              		.loc 1 838 5 view .LVU448
 1526              		.loc 1 838 9 is_stmt 0 view .LVU449
 1527 0024 1368     		ldr	r3, [r2]
 1528 0026 03F00703 		and	r3, r3, #7
 1529              		.loc 1 838 8 view .LVU450
 1530 002a 8B42     		cmp	r3, r1
 1531 002c 40F08D80 		bne	.L159
 1532              	.L145:
 1533              		.loc 1 846 1 is_stmt 1 view .LVU451
 1534              		.loc 1 846 24 is_stmt 0 view .LVU452
 1535 0030 2368     		ldr	r3, [r4]
 1536              		.loc 1 846 4 view .LVU453
 1537 0032 13F0020F 		tst	r3, #2
 1538 0036 17D0     		beq	.L146
 1539              		.loc 1 850 5 is_stmt 1 view .LVU454
 1540              		.loc 1 850 8 is_stmt 0 view .LVU455
 1541 0038 13F0040F 		tst	r3, #4
 1542 003c 04D0     		beq	.L147
 1543              		.loc 1 852 7 is_stmt 1 view .LVU456
 1544 003e 474A     		ldr	r2, .L171+4
 1545 0040 5368     		ldr	r3, [r2, #4]
 1546 0042 43F4E063 		orr	r3, r3, #1792
 1547 0046 5360     		str	r3, [r2, #4]
 1548              	.L147:
 1549              		.loc 1 855 5 view .LVU457
 1550              		.loc 1 855 28 is_stmt 0 view .LVU458
 1551 0048 2368     		ldr	r3, [r4]
 1552              		.loc 1 855 8 view .LVU459
 1553 004a 13F0080F 		tst	r3, #8
ARM GAS  C:\Users\HP\AppData\Local\Temp\ccUtCZ4i.s 			page 28


 1554 004e 04D0     		beq	.L148
 1555              		.loc 1 857 7 is_stmt 1 view .LVU460
 1556 0050 424A     		ldr	r2, .L171+4
 1557 0052 5368     		ldr	r3, [r2, #4]
 1558 0054 43F46053 		orr	r3, r3, #14336
 1559 0058 5360     		str	r3, [r2, #4]
 1560              	.L148:
 1561              		.loc 1 861 5 view .LVU461
 1562              		.loc 1 862 5 view .LVU462
 1563 005a 404A     		ldr	r2, .L171+4
 1564 005c 5368     		ldr	r3, [r2, #4]
 1565 005e 23F0F003 		bic	r3, r3, #240
 1566 0062 A168     		ldr	r1, [r4, #8]
 1567              	.LVL108:
 1568              		.loc 1 862 5 is_stmt 0 view .LVU463
 1569 0064 0B43     		orrs	r3, r3, r1
 1570 0066 5360     		str	r3, [r2, #4]
 1571              	.L146:
 1572              		.loc 1 866 3 is_stmt 1 view .LVU464
 1573              		.loc 1 866 26 is_stmt 0 view .LVU465
 1574 0068 2368     		ldr	r3, [r4]
 1575              		.loc 1 866 6 view .LVU466
 1576 006a 13F0010F 		tst	r3, #1
 1577 006e 31D0     		beq	.L149
 1578              		.loc 1 868 5 is_stmt 1 view .LVU467
 1579              		.loc 1 871 5 view .LVU468
 1580              		.loc 1 871 26 is_stmt 0 view .LVU469
 1581 0070 6368     		ldr	r3, [r4, #4]
 1582              		.loc 1 871 8 view .LVU470
 1583 0072 012B     		cmp	r3, #1
 1584 0074 20D0     		beq	.L169
 1585              		.loc 1 880 10 is_stmt 1 view .LVU471
 1586              		.loc 1 880 13 is_stmt 0 view .LVU472
 1587 0076 022B     		cmp	r3, #2
 1588 0078 25D0     		beq	.L170
 1589              		.loc 1 892 7 is_stmt 1 view .LVU473
 1590              		.loc 1 892 11 is_stmt 0 view .LVU474
 1591 007a 384A     		ldr	r2, .L171+4
 1592 007c 1268     		ldr	r2, [r2]
 1593              		.loc 1 892 10 view .LVU475
 1594 007e 12F0020F 		tst	r2, #2
 1595 0082 64D0     		beq	.L162
 1596              	.L151:
 1597              		.loc 1 897 5 is_stmt 1 view .LVU476
 1598 0084 3549     		ldr	r1, .L171+4
 1599 0086 4A68     		ldr	r2, [r1, #4]
 1600 0088 22F00302 		bic	r2, r2, #3
 1601 008c 1343     		orrs	r3, r3, r2
 1602 008e 4B60     		str	r3, [r1, #4]
 1603              		.loc 1 900 5 view .LVU477
 1604              		.loc 1 900 17 is_stmt 0 view .LVU478
 1605 0090 334B     		ldr	r3, .L171+8
 1606 0092 9847     		blx	r3
 1607              	.LVL109:
 1608              		.loc 1 900 17 view .LVU479
 1609 0094 0646     		mov	r6, r0
 1610              	.LVL110:
ARM GAS  C:\Users\HP\AppData\Local\Temp\ccUtCZ4i.s 			page 29


 1611              		.loc 1 902 5 is_stmt 1 view .LVU480
 1612              	.L153:
 1613              		.loc 1 902 11 view .LVU481
 1614              		.loc 1 902 12 is_stmt 0 view .LVU482
 1615 0096 314B     		ldr	r3, .L171+4
 1616 0098 5B68     		ldr	r3, [r3, #4]
 1617 009a 03F00C03 		and	r3, r3, #12
 1618              		.loc 1 902 63 view .LVU483
 1619 009e 6268     		ldr	r2, [r4, #4]
 1620              		.loc 1 902 11 view .LVU484
 1621 00a0 B3EB820F 		cmp	r3, r2, lsl #2
 1622 00a4 16D0     		beq	.L149
 1623              		.loc 1 904 7 is_stmt 1 view .LVU485
 1624              		.loc 1 904 12 is_stmt 0 view .LVU486
 1625 00a6 2E4B     		ldr	r3, .L171+8
 1626 00a8 9847     		blx	r3
 1627              	.LVL111:
 1628              		.loc 1 904 26 view .LVU487
 1629 00aa 801B     		subs	r0, r0, r6
 1630              		.loc 1 904 10 view .LVU488
 1631 00ac 41F28833 		movw	r3, #5000
 1632 00b0 9842     		cmp	r0, r3
 1633 00b2 F0D9     		bls	.L153
 1634              		.loc 1 906 16 view .LVU489
 1635 00b4 0320     		movs	r0, #3
 1636 00b6 45E0     		b	.L144
 1637              	.LVL112:
 1638              	.L169:
 1639              		.loc 1 874 7 is_stmt 1 view .LVU490
 1640              		.loc 1 874 11 is_stmt 0 view .LVU491
 1641 00b8 284A     		ldr	r2, .L171+4
 1642 00ba 1268     		ldr	r2, [r2]
 1643              		.loc 1 874 10 view .LVU492
 1644 00bc 12F4003F 		tst	r2, #131072
 1645 00c0 E0D1     		bne	.L151
 1646              		.loc 1 876 16 view .LVU493
 1647 00c2 0120     		movs	r0, #1
 1648              	.LVL113:
 1649              		.loc 1 876 16 view .LVU494
 1650 00c4 3EE0     		b	.L144
 1651              	.LVL114:
 1652              	.L170:
 1653              		.loc 1 883 7 is_stmt 1 view .LVU495
 1654              		.loc 1 883 11 is_stmt 0 view .LVU496
 1655 00c6 254A     		ldr	r2, .L171+4
 1656 00c8 1268     		ldr	r2, [r2]
 1657              		.loc 1 883 10 view .LVU497
 1658 00ca 12F0007F 		tst	r2, #33554432
 1659 00ce D9D1     		bne	.L151
 1660              		.loc 1 885 16 view .LVU498
 1661 00d0 0120     		movs	r0, #1
 1662              	.LVL115:
 1663              		.loc 1 885 16 view .LVU499
 1664 00d2 37E0     		b	.L144
 1665              	.L149:
 1666              		.loc 1 913 3 is_stmt 1 view .LVU500
 1667              		.loc 1 913 18 is_stmt 0 view .LVU501
ARM GAS  C:\Users\HP\AppData\Local\Temp\ccUtCZ4i.s 			page 30


 1668 00d4 204B     		ldr	r3, .L171
 1669 00d6 1B68     		ldr	r3, [r3]
 1670 00d8 03F00703 		and	r3, r3, #7
 1671              		.loc 1 913 6 view .LVU502
 1672 00dc AB42     		cmp	r3, r5
 1673 00de 0AD9     		bls	.L155
 1674              		.loc 1 916 5 is_stmt 1 view .LVU503
 1675 00e0 1D4A     		ldr	r2, .L171
 1676 00e2 1368     		ldr	r3, [r2]
 1677 00e4 23F00703 		bic	r3, r3, #7
 1678 00e8 2B43     		orrs	r3, r3, r5
 1679 00ea 1360     		str	r3, [r2]
 1680              		.loc 1 920 5 view .LVU504
 1681              		.loc 1 920 9 is_stmt 0 view .LVU505
 1682 00ec 1368     		ldr	r3, [r2]
 1683 00ee 03F00703 		and	r3, r3, #7
 1684              		.loc 1 920 8 view .LVU506
 1685 00f2 AB42     		cmp	r3, r5
 1686 00f4 2DD1     		bne	.L164
 1687              	.L155:
 1688              		.loc 1 928 1 is_stmt 1 view .LVU507
 1689              		.loc 1 928 24 is_stmt 0 view .LVU508
 1690 00f6 2368     		ldr	r3, [r4]
 1691              		.loc 1 928 4 view .LVU509
 1692 00f8 13F0040F 		tst	r3, #4
 1693 00fc 06D0     		beq	.L156
 1694              		.loc 1 930 5 is_stmt 1 view .LVU510
 1695              		.loc 1 931 5 view .LVU511
 1696 00fe 174A     		ldr	r2, .L171+4
 1697 0100 5368     		ldr	r3, [r2, #4]
 1698 0102 23F4E063 		bic	r3, r3, #1792
 1699 0106 E168     		ldr	r1, [r4, #12]
 1700 0108 0B43     		orrs	r3, r3, r1
 1701 010a 5360     		str	r3, [r2, #4]
 1702              	.L156:
 1703              		.loc 1 935 3 view .LVU512
 1704              		.loc 1 935 26 is_stmt 0 view .LVU513
 1705 010c 2368     		ldr	r3, [r4]
 1706              		.loc 1 935 6 view .LVU514
 1707 010e 13F0080F 		tst	r3, #8
 1708 0112 07D0     		beq	.L157
 1709              		.loc 1 937 5 is_stmt 1 view .LVU515
 1710              		.loc 1 938 5 view .LVU516
 1711 0114 114A     		ldr	r2, .L171+4
 1712 0116 5368     		ldr	r3, [r2, #4]
 1713 0118 23F46053 		bic	r3, r3, #14336
 1714 011c 2169     		ldr	r1, [r4, #16]
 1715 011e 43EAC103 		orr	r3, r3, r1, lsl #3
 1716 0122 5360     		str	r3, [r2, #4]
 1717              	.L157:
 1718              		.loc 1 942 3 view .LVU517
 1719              		.loc 1 942 21 is_stmt 0 view .LVU518
 1720 0124 0F4B     		ldr	r3, .L171+12
 1721 0126 9847     		blx	r3
 1722              	.LVL116:
 1723              		.loc 1 942 68 view .LVU519
 1724 0128 0C4B     		ldr	r3, .L171+4
ARM GAS  C:\Users\HP\AppData\Local\Temp\ccUtCZ4i.s 			page 31


 1725 012a 5B68     		ldr	r3, [r3, #4]
 1726              		.loc 1 942 92 view .LVU520
 1727 012c C3F30313 		ubfx	r3, r3, #4, #4
 1728              		.loc 1 942 63 view .LVU521
 1729 0130 0D4A     		ldr	r2, .L171+16
 1730 0132 D35C     		ldrb	r3, [r2, r3]	@ zero_extendqisi2
 1731              		.loc 1 942 47 view .LVU522
 1732 0134 D840     		lsrs	r0, r0, r3
 1733              		.loc 1 942 19 view .LVU523
 1734 0136 0D4B     		ldr	r3, .L171+20
 1735 0138 1860     		str	r0, [r3]
 1736              		.loc 1 945 3 is_stmt 1 view .LVU524
 1737 013a 0D4B     		ldr	r3, .L171+24
 1738 013c 1868     		ldr	r0, [r3]
 1739 013e 0D4B     		ldr	r3, .L171+28
 1740 0140 9847     		blx	r3
 1741              	.LVL117:
 1742              		.loc 1 947 3 view .LVU525
 1743              		.loc 1 947 10 is_stmt 0 view .LVU526
 1744 0142 0020     		movs	r0, #0
 1745              	.L144:
 1746              		.loc 1 948 1 view .LVU527
 1747 0144 70BD     		pop	{r4, r5, r6, pc}
 1748              	.LVL118:
 1749              	.L158:
 1750              	.LCFI13:
 1751              		.cfi_def_cfa_offset 0
 1752              		.cfi_restore 4
 1753              		.cfi_restore 5
 1754              		.cfi_restore 6
 1755              		.cfi_restore 14
 1756              		.loc 1 818 12 view .LVU528
 1757 0146 0120     		movs	r0, #1
 1758              	.LVL119:
 1759              		.loc 1 948 1 view .LVU529
 1760 0148 7047     		bx	lr
 1761              	.LVL120:
 1762              	.L159:
 1763              	.LCFI14:
 1764              		.cfi_def_cfa_offset 16
 1765              		.cfi_offset 4, -16
 1766              		.cfi_offset 5, -12
 1767              		.cfi_offset 6, -8
 1768              		.cfi_offset 14, -4
 1769              		.loc 1 840 12 view .LVU530
 1770 014a 0120     		movs	r0, #1
 1771              	.LVL121:
 1772              		.loc 1 840 12 view .LVU531
 1773 014c FAE7     		b	.L144
 1774              	.LVL122:
 1775              	.L162:
 1776              		.loc 1 894 16 view .LVU532
 1777 014e 0120     		movs	r0, #1
 1778              	.LVL123:
 1779              		.loc 1 894 16 view .LVU533
 1780 0150 F8E7     		b	.L144
 1781              	.L164:
ARM GAS  C:\Users\HP\AppData\Local\Temp\ccUtCZ4i.s 			page 32


 1782              		.loc 1 922 12 view .LVU534
 1783 0152 0120     		movs	r0, #1
 1784 0154 F6E7     		b	.L144
 1785              	.L172:
 1786 0156 00BF     		.align	2
 1787              	.L171:
 1788 0158 00200240 		.word	1073881088
 1789 015c 00100240 		.word	1073876992
 1790 0160 00000000 		.word	HAL_GetTick
 1791 0164 00000000 		.word	HAL_RCC_GetSysClockFreq
 1792 0168 00000000 		.word	AHBPrescTable
 1793 016c 00000000 		.word	SystemCoreClock
 1794 0170 00000000 		.word	uwTickPrio
 1795 0174 00000000 		.word	HAL_InitTick
 1796              		.cfi_endproc
 1797              	.LFE67:
 1799              		.section	.text.HAL_RCC_GetHCLKFreq,"ax",%progbits
 1800              		.align	1
 1801              		.global	HAL_RCC_GetHCLKFreq
 1802              		.syntax unified
 1803              		.thumb
 1804              		.thumb_func
 1805              		.fpu softvfp
 1807              	HAL_RCC_GetHCLKFreq:
 1808              	.LFB72:
 1809              		.loc 1 1175 1 is_stmt 1 view -0
 1810              		.cfi_startproc
 1811              		@ args = 0, pretend = 0, frame = 0
 1812              		@ frame_needed = 0, uses_anonymous_args = 0
 1813              		@ link register save eliminated.
 1814              		.loc 1 1176 3 view .LVU536
 1815              		.loc 1 1177 1 is_stmt 0 view .LVU537
 1816 0000 014B     		ldr	r3, .L174
 1817 0002 1868     		ldr	r0, [r3]
 1818 0004 7047     		bx	lr
 1819              	.L175:
 1820 0006 00BF     		.align	2
 1821              	.L174:
 1822 0008 00000000 		.word	SystemCoreClock
 1823              		.cfi_endproc
 1824              	.LFE72:
 1826              		.section	.text.HAL_RCC_GetPCLK1Freq,"ax",%progbits
 1827              		.align	1
 1828              		.global	HAL_RCC_GetPCLK1Freq
 1829              		.syntax unified
 1830              		.thumb
 1831              		.thumb_func
 1832              		.fpu softvfp
 1834              	HAL_RCC_GetPCLK1Freq:
 1835              	.LFB73:
 1836              		.loc 1 1186 1 is_stmt 1 view -0
 1837              		.cfi_startproc
 1838              		@ args = 0, pretend = 0, frame = 0
 1839              		@ frame_needed = 0, uses_anonymous_args = 0
 1840 0000 08B5     		push	{r3, lr}
 1841              	.LCFI15:
 1842              		.cfi_def_cfa_offset 8
ARM GAS  C:\Users\HP\AppData\Local\Temp\ccUtCZ4i.s 			page 33


 1843              		.cfi_offset 3, -8
 1844              		.cfi_offset 14, -4
 1845              		.loc 1 1188 3 view .LVU539
 1846              		.loc 1 1188 11 is_stmt 0 view .LVU540
 1847 0002 054B     		ldr	r3, .L178
 1848 0004 9847     		blx	r3
 1849              	.LVL124:
 1850              		.loc 1 1188 54 view .LVU541
 1851 0006 054B     		ldr	r3, .L178+4
 1852 0008 5B68     		ldr	r3, [r3, #4]
 1853              		.loc 1 1188 79 view .LVU542
 1854 000a C3F30223 		ubfx	r3, r3, #8, #3
 1855              		.loc 1 1188 49 view .LVU543
 1856 000e 044A     		ldr	r2, .L178+8
 1857 0010 D35C     		ldrb	r3, [r2, r3]	@ zero_extendqisi2
 1858              		.loc 1 1189 1 view .LVU544
 1859 0012 D840     		lsrs	r0, r0, r3
 1860 0014 08BD     		pop	{r3, pc}
 1861              	.L179:
 1862 0016 00BF     		.align	2
 1863              	.L178:
 1864 0018 00000000 		.word	HAL_RCC_GetHCLKFreq
 1865 001c 00100240 		.word	1073876992
 1866 0020 00000000 		.word	APBPrescTable
 1867              		.cfi_endproc
 1868              	.LFE73:
 1870              		.section	.text.HAL_RCC_GetPCLK2Freq,"ax",%progbits
 1871              		.align	1
 1872              		.global	HAL_RCC_GetPCLK2Freq
 1873              		.syntax unified
 1874              		.thumb
 1875              		.thumb_func
 1876              		.fpu softvfp
 1878              	HAL_RCC_GetPCLK2Freq:
 1879              	.LFB74:
 1880              		.loc 1 1198 1 is_stmt 1 view -0
 1881              		.cfi_startproc
 1882              		@ args = 0, pretend = 0, frame = 0
 1883              		@ frame_needed = 0, uses_anonymous_args = 0
 1884 0000 08B5     		push	{r3, lr}
 1885              	.LCFI16:
 1886              		.cfi_def_cfa_offset 8
 1887              		.cfi_offset 3, -8
 1888              		.cfi_offset 14, -4
 1889              		.loc 1 1200 3 view .LVU546
 1890              		.loc 1 1200 11 is_stmt 0 view .LVU547
 1891 0002 054B     		ldr	r3, .L182
 1892 0004 9847     		blx	r3
 1893              	.LVL125:
 1894              		.loc 1 1200 54 view .LVU548
 1895 0006 054B     		ldr	r3, .L182+4
 1896 0008 5B68     		ldr	r3, [r3, #4]
 1897              		.loc 1 1200 79 view .LVU549
 1898 000a C3F3C223 		ubfx	r3, r3, #11, #3
 1899              		.loc 1 1200 49 view .LVU550
 1900 000e 044A     		ldr	r2, .L182+8
 1901 0010 D35C     		ldrb	r3, [r2, r3]	@ zero_extendqisi2
ARM GAS  C:\Users\HP\AppData\Local\Temp\ccUtCZ4i.s 			page 34


 1902              		.loc 1 1201 1 view .LVU551
 1903 0012 D840     		lsrs	r0, r0, r3
 1904 0014 08BD     		pop	{r3, pc}
 1905              	.L183:
 1906 0016 00BF     		.align	2
 1907              	.L182:
 1908 0018 00000000 		.word	HAL_RCC_GetHCLKFreq
 1909 001c 00100240 		.word	1073876992
 1910 0020 00000000 		.word	APBPrescTable
 1911              		.cfi_endproc
 1912              	.LFE74:
 1914              		.section	.text.HAL_RCC_GetOscConfig,"ax",%progbits
 1915              		.align	1
 1916              		.global	HAL_RCC_GetOscConfig
 1917              		.syntax unified
 1918              		.thumb
 1919              		.thumb_func
 1920              		.fpu softvfp
 1922              	HAL_RCC_GetOscConfig:
 1923              	.LVL126:
 1924              	.LFB75:
 1925              		.loc 1 1211 1 is_stmt 1 view -0
 1926              		.cfi_startproc
 1927              		@ args = 0, pretend = 0, frame = 0
 1928              		@ frame_needed = 0, uses_anonymous_args = 0
 1929              		@ link register save eliminated.
 1930              		.loc 1 1213 3 view .LVU553
 1931              		.loc 1 1216 3 view .LVU554
 1932              		.loc 1 1216 37 is_stmt 0 view .LVU555
 1933 0000 0F23     		movs	r3, #15
 1934 0002 0360     		str	r3, [r0]
 1935              		.loc 1 1225 3 is_stmt 1 view .LVU556
 1936              		.loc 1 1225 11 is_stmt 0 view .LVU557
 1937 0004 2A4B     		ldr	r3, .L197
 1938 0006 1B68     		ldr	r3, [r3]
 1939              		.loc 1 1225 6 view .LVU558
 1940 0008 13F4802F 		tst	r3, #262144
 1941 000c 30D0     		beq	.L185
 1942              		.loc 1 1227 5 is_stmt 1 view .LVU559
 1943              		.loc 1 1227 33 is_stmt 0 view .LVU560
 1944 000e 4FF4A023 		mov	r3, #327680
 1945 0012 4360     		str	r3, [r0, #4]
 1946              	.L186:
 1947              		.loc 1 1237 3 is_stmt 1 view .LVU561
 1948              		.loc 1 1237 39 is_stmt 0 view .LVU562
 1949 0014 264A     		ldr	r2, .L197
 1950 0016 5368     		ldr	r3, [r2, #4]
 1951 0018 03F40033 		and	r3, r3, #131072
 1952              		.loc 1 1237 37 view .LVU563
 1953 001c 8360     		str	r3, [r0, #8]
 1954              		.loc 1 1240 3 is_stmt 1 view .LVU564
 1955              		.loc 1 1240 11 is_stmt 0 view .LVU565
 1956 001e 1368     		ldr	r3, [r2]
 1957              		.loc 1 1240 6 view .LVU566
 1958 0020 13F0010F 		tst	r3, #1
 1959 0024 30D0     		beq	.L188
 1960              		.loc 1 1242 5 is_stmt 1 view .LVU567
ARM GAS  C:\Users\HP\AppData\Local\Temp\ccUtCZ4i.s 			page 35


 1961              		.loc 1 1242 33 is_stmt 0 view .LVU568
 1962 0026 0123     		movs	r3, #1
 1963 0028 0361     		str	r3, [r0, #16]
 1964              	.L189:
 1965              		.loc 1 1249 3 is_stmt 1 view .LVU569
 1966              		.loc 1 1249 59 is_stmt 0 view .LVU570
 1967 002a 214A     		ldr	r2, .L197
 1968 002c 1368     		ldr	r3, [r2]
 1969              		.loc 1 1249 44 view .LVU571
 1970 002e C3F3C403 		ubfx	r3, r3, #3, #5
 1971              		.loc 1 1249 42 view .LVU572
 1972 0032 4361     		str	r3, [r0, #20]
 1973              		.loc 1 1252 3 is_stmt 1 view .LVU573
 1974              		.loc 1 1252 11 is_stmt 0 view .LVU574
 1975 0034 136A     		ldr	r3, [r2, #32]
 1976              		.loc 1 1252 6 view .LVU575
 1977 0036 13F0040F 		tst	r3, #4
 1978 003a 28D0     		beq	.L190
 1979              		.loc 1 1254 5 is_stmt 1 view .LVU576
 1980              		.loc 1 1254 33 is_stmt 0 view .LVU577
 1981 003c 0523     		movs	r3, #5
 1982 003e C360     		str	r3, [r0, #12]
 1983              	.L191:
 1984              		.loc 1 1266 3 is_stmt 1 view .LVU578
 1985              		.loc 1 1266 11 is_stmt 0 view .LVU579
 1986 0040 1B4B     		ldr	r3, .L197
 1987 0042 5B6A     		ldr	r3, [r3, #36]
 1988              		.loc 1 1266 6 view .LVU580
 1989 0044 13F0010F 		tst	r3, #1
 1990 0048 2CD0     		beq	.L193
 1991              		.loc 1 1268 5 is_stmt 1 view .LVU581
 1992              		.loc 1 1268 33 is_stmt 0 view .LVU582
 1993 004a 0123     		movs	r3, #1
 1994 004c 8361     		str	r3, [r0, #24]
 1995              	.L194:
 1996              		.loc 1 1277 3 is_stmt 1 view .LVU583
 1997              		.loc 1 1277 11 is_stmt 0 view .LVU584
 1998 004e 184B     		ldr	r3, .L197
 1999 0050 1B68     		ldr	r3, [r3]
 2000              		.loc 1 1277 6 view .LVU585
 2001 0052 13F0807F 		tst	r3, #16777216
 2002 0056 28D0     		beq	.L195
 2003              		.loc 1 1279 5 is_stmt 1 view .LVU586
 2004              		.loc 1 1279 37 is_stmt 0 view .LVU587
 2005 0058 0223     		movs	r3, #2
 2006 005a C361     		str	r3, [r0, #28]
 2007              	.L196:
 2008              		.loc 1 1285 3 is_stmt 1 view .LVU588
 2009              		.loc 1 1285 52 is_stmt 0 view .LVU589
 2010 005c 144A     		ldr	r2, .L197
 2011 005e 5368     		ldr	r3, [r2, #4]
 2012              		.loc 1 1285 38 view .LVU590
 2013 0060 03F48033 		and	r3, r3, #65536
 2014              		.loc 1 1285 36 view .LVU591
 2015 0064 0362     		str	r3, [r0, #32]
 2016              		.loc 1 1286 3 is_stmt 1 view .LVU592
 2017              		.loc 1 1286 49 is_stmt 0 view .LVU593
ARM GAS  C:\Users\HP\AppData\Local\Temp\ccUtCZ4i.s 			page 36


 2018 0066 5368     		ldr	r3, [r2, #4]
 2019              		.loc 1 1286 35 view .LVU594
 2020 0068 03F47013 		and	r3, r3, #3932160
 2021              		.loc 1 1286 33 view .LVU595
 2022 006c 4362     		str	r3, [r0, #36]
 2023              		.loc 1 1300 1 view .LVU596
 2024 006e 7047     		bx	lr
 2025              	.L185:
 2026              		.loc 1 1229 8 is_stmt 1 view .LVU597
 2027              		.loc 1 1229 16 is_stmt 0 view .LVU598
 2028 0070 0F4B     		ldr	r3, .L197
 2029 0072 1B68     		ldr	r3, [r3]
 2030              		.loc 1 1229 11 view .LVU599
 2031 0074 13F4803F 		tst	r3, #65536
 2032 0078 03D0     		beq	.L187
 2033              		.loc 1 1231 5 is_stmt 1 view .LVU600
 2034              		.loc 1 1231 33 is_stmt 0 view .LVU601
 2035 007a 4FF48033 		mov	r3, #65536
 2036 007e 4360     		str	r3, [r0, #4]
 2037 0080 C8E7     		b	.L186
 2038              	.L187:
 2039              		.loc 1 1235 5 is_stmt 1 view .LVU602
 2040              		.loc 1 1235 33 is_stmt 0 view .LVU603
 2041 0082 0023     		movs	r3, #0
 2042 0084 4360     		str	r3, [r0, #4]
 2043 0086 C5E7     		b	.L186
 2044              	.L188:
 2045              		.loc 1 1246 5 is_stmt 1 view .LVU604
 2046              		.loc 1 1246 33 is_stmt 0 view .LVU605
 2047 0088 0023     		movs	r3, #0
 2048 008a 0361     		str	r3, [r0, #16]
 2049 008c CDE7     		b	.L189
 2050              	.L190:
 2051              		.loc 1 1256 8 is_stmt 1 view .LVU606
 2052              		.loc 1 1256 16 is_stmt 0 view .LVU607
 2053 008e 084B     		ldr	r3, .L197
 2054 0090 1B6A     		ldr	r3, [r3, #32]
 2055              		.loc 1 1256 11 view .LVU608
 2056 0092 13F0010F 		tst	r3, #1
 2057 0096 02D0     		beq	.L192
 2058              		.loc 1 1258 5 is_stmt 1 view .LVU609
 2059              		.loc 1 1258 33 is_stmt 0 view .LVU610
 2060 0098 0123     		movs	r3, #1
 2061 009a C360     		str	r3, [r0, #12]
 2062 009c D0E7     		b	.L191
 2063              	.L192:
 2064              		.loc 1 1262 5 is_stmt 1 view .LVU611
 2065              		.loc 1 1262 33 is_stmt 0 view .LVU612
 2066 009e 0023     		movs	r3, #0
 2067 00a0 C360     		str	r3, [r0, #12]
 2068 00a2 CDE7     		b	.L191
 2069              	.L193:
 2070              		.loc 1 1272 5 is_stmt 1 view .LVU613
 2071              		.loc 1 1272 33 is_stmt 0 view .LVU614
 2072 00a4 0023     		movs	r3, #0
 2073 00a6 8361     		str	r3, [r0, #24]
 2074 00a8 D1E7     		b	.L194
ARM GAS  C:\Users\HP\AppData\Local\Temp\ccUtCZ4i.s 			page 37


 2075              	.L195:
 2076              		.loc 1 1283 5 is_stmt 1 view .LVU615
 2077              		.loc 1 1283 37 is_stmt 0 view .LVU616
 2078 00aa 0123     		movs	r3, #1
 2079 00ac C361     		str	r3, [r0, #28]
 2080 00ae D5E7     		b	.L196
 2081              	.L198:
 2082              		.align	2
 2083              	.L197:
 2084 00b0 00100240 		.word	1073876992
 2085              		.cfi_endproc
 2086              	.LFE75:
 2088              		.section	.text.HAL_RCC_GetClockConfig,"ax",%progbits
 2089              		.align	1
 2090              		.global	HAL_RCC_GetClockConfig
 2091              		.syntax unified
 2092              		.thumb
 2093              		.thumb_func
 2094              		.fpu softvfp
 2096              	HAL_RCC_GetClockConfig:
 2097              	.LVL127:
 2098              	.LFB76:
 2099              		.loc 1 1311 1 is_stmt 1 view -0
 2100              		.cfi_startproc
 2101              		@ args = 0, pretend = 0, frame = 0
 2102              		@ frame_needed = 0, uses_anonymous_args = 0
 2103              		@ link register save eliminated.
 2104              		.loc 1 1313 3 view .LVU618
 2105              		.loc 1 1314 3 view .LVU619
 2106              		.loc 1 1317 3 view .LVU620
 2107              		.loc 1 1317 32 is_stmt 0 view .LVU621
 2108 0000 0F23     		movs	r3, #15
 2109 0002 0360     		str	r3, [r0]
 2110              		.loc 1 1320 3 is_stmt 1 view .LVU622
 2111              		.loc 1 1320 51 is_stmt 0 view .LVU623
 2112 0004 0B4B     		ldr	r3, .L200
 2113 0006 5A68     		ldr	r2, [r3, #4]
 2114              		.loc 1 1320 37 view .LVU624
 2115 0008 02F00302 		and	r2, r2, #3
 2116              		.loc 1 1320 35 view .LVU625
 2117 000c 4260     		str	r2, [r0, #4]
 2118              		.loc 1 1323 3 is_stmt 1 view .LVU626
 2119              		.loc 1 1323 52 is_stmt 0 view .LVU627
 2120 000e 5A68     		ldr	r2, [r3, #4]
 2121              		.loc 1 1323 38 view .LVU628
 2122 0010 02F0F002 		and	r2, r2, #240
 2123              		.loc 1 1323 36 view .LVU629
 2124 0014 8260     		str	r2, [r0, #8]
 2125              		.loc 1 1326 3 is_stmt 1 view .LVU630
 2126              		.loc 1 1326 53 is_stmt 0 view .LVU631
 2127 0016 5A68     		ldr	r2, [r3, #4]
 2128              		.loc 1 1326 39 view .LVU632
 2129 0018 02F4E062 		and	r2, r2, #1792
 2130              		.loc 1 1326 37 view .LVU633
 2131 001c C260     		str	r2, [r0, #12]
 2132              		.loc 1 1329 3 is_stmt 1 view .LVU634
 2133              		.loc 1 1329 54 is_stmt 0 view .LVU635
ARM GAS  C:\Users\HP\AppData\Local\Temp\ccUtCZ4i.s 			page 38


 2134 001e 5B68     		ldr	r3, [r3, #4]
 2135              		.loc 1 1329 39 view .LVU636
 2136 0020 DB08     		lsrs	r3, r3, #3
 2137 0022 03F4E063 		and	r3, r3, #1792
 2138              		.loc 1 1329 37 view .LVU637
 2139 0026 0361     		str	r3, [r0, #16]
 2140              		.loc 1 1333 3 is_stmt 1 view .LVU638
 2141              		.loc 1 1333 32 is_stmt 0 view .LVU639
 2142 0028 034B     		ldr	r3, .L200+4
 2143 002a 1B68     		ldr	r3, [r3]
 2144              		.loc 1 1333 16 view .LVU640
 2145 002c 03F00703 		and	r3, r3, #7
 2146              		.loc 1 1333 14 view .LVU641
 2147 0030 0B60     		str	r3, [r1]
 2148              		.loc 1 1338 1 view .LVU642
 2149 0032 7047     		bx	lr
 2150              	.L201:
 2151              		.align	2
 2152              	.L200:
 2153 0034 00100240 		.word	1073876992
 2154 0038 00200240 		.word	1073881088
 2155              		.cfi_endproc
 2156              	.LFE76:
 2158              		.section	.text.HAL_RCC_CSSCallback,"ax",%progbits
 2159              		.align	1
 2160              		.weak	HAL_RCC_CSSCallback
 2161              		.syntax unified
 2162              		.thumb
 2163              		.thumb_func
 2164              		.fpu softvfp
 2166              	HAL_RCC_CSSCallback:
 2167              	.LFB79:
 2168              		.loc 1 1378 1 is_stmt 1 view -0
 2169              		.cfi_startproc
 2170              		@ args = 0, pretend = 0, frame = 0
 2171              		@ frame_needed = 0, uses_anonymous_args = 0
 2172              		@ link register save eliminated.
 2173              		.loc 1 1382 1 view .LVU644
 2174 0000 7047     		bx	lr
 2175              		.cfi_endproc
 2176              	.LFE79:
 2178              		.section	.text.HAL_RCC_NMI_IRQHandler,"ax",%progbits
 2179              		.align	1
 2180              		.global	HAL_RCC_NMI_IRQHandler
 2181              		.syntax unified
 2182              		.thumb
 2183              		.thumb_func
 2184              		.fpu softvfp
 2186              	HAL_RCC_NMI_IRQHandler:
 2187              	.LFB77:
 2188              		.loc 1 1346 1 view -0
 2189              		.cfi_startproc
 2190              		@ args = 0, pretend = 0, frame = 0
 2191              		@ frame_needed = 0, uses_anonymous_args = 0
 2192 0000 08B5     		push	{r3, lr}
 2193              	.LCFI17:
 2194              		.cfi_def_cfa_offset 8
ARM GAS  C:\Users\HP\AppData\Local\Temp\ccUtCZ4i.s 			page 39


 2195              		.cfi_offset 3, -8
 2196              		.cfi_offset 14, -4
 2197              		.loc 1 1348 3 view .LVU646
 2198              		.loc 1 1348 7 is_stmt 0 view .LVU647
 2199 0002 064B     		ldr	r3, .L207
 2200 0004 9B68     		ldr	r3, [r3, #8]
 2201              		.loc 1 1348 6 view .LVU648
 2202 0006 13F0800F 		tst	r3, #128
 2203 000a 00D1     		bne	.L206
 2204              	.L203:
 2205              		.loc 1 1356 1 view .LVU649
 2206 000c 08BD     		pop	{r3, pc}
 2207              	.L206:
 2208              		.loc 1 1351 5 is_stmt 1 view .LVU650
 2209 000e 044B     		ldr	r3, .L207+4
 2210 0010 9847     		blx	r3
 2211              	.LVL128:
 2212              		.loc 1 1354 5 view .LVU651
 2213 0012 024B     		ldr	r3, .L207
 2214 0014 8022     		movs	r2, #128
 2215 0016 9A72     		strb	r2, [r3, #10]
 2216              		.loc 1 1356 1 is_stmt 0 view .LVU652
 2217 0018 F8E7     		b	.L203
 2218              	.L208:
 2219 001a 00BF     		.align	2
 2220              	.L207:
 2221 001c 00100240 		.word	1073876992
 2222 0020 00000000 		.word	HAL_RCC_CSSCallback
 2223              		.cfi_endproc
 2224              	.LFE77:
 2226              		.section	.rodata.aPLLMULFactorTable.1,"a"
 2227              		.align	2
 2228              		.set	.LANCHOR0,. + 0
 2231              	aPLLMULFactorTable.1:
 2232 0000 02030405 		.ascii	"\002\003\004\005\006\007\010\011\012\013\014\015\016"
 2232      06070809 
 2232      0A0B0C0D 
 2232      0E
 2233 000d 0F1010   		.ascii	"\017\020\020"
 2234              		.section	.rodata.aPredivFactorTable.0,"a"
 2235              		.align	2
 2236              		.set	.LANCHOR1,. + 0
 2239              	aPredivFactorTable.0:
 2240 0000 0102     		.ascii	"\001\002"
 2241              		.text
 2242              	.Letext0:
 2243              		.file 2 "../d:\\program files\\gnu mcu\\arm-none-eabi-gcc-10.2.1-1.1\\arm-none-eabi\\include\\mach
 2244              		.file 3 "../d:\\program files\\gnu mcu\\arm-none-eabi-gcc-10.2.1-1.1\\arm-none-eabi\\include\\sys\
 2245              		.file 4 "../Drivers/CMSIS/Device/ST/STM32F1xx/Include/system_stm32f1xx.h"
 2246              		.file 5 "../Drivers/CMSIS/Device/ST/STM32F1xx/Include/stm32f103x6.h"
 2247              		.file 6 "../Drivers/CMSIS/Device/ST/STM32F1xx/Include/stm32f1xx.h"
 2248              		.file 7 "../Drivers/STM32F1xx_HAL_Driver/Inc/stm32f1xx_hal_def.h"
 2249              		.file 8 "../Drivers/STM32F1xx_HAL_Driver/Inc/stm32f1xx_hal_rcc.h"
 2250              		.file 9 "../Drivers/STM32F1xx_HAL_Driver/Inc/stm32f1xx_hal_rcc_ex.h"
 2251              		.file 10 "../Drivers/STM32F1xx_HAL_Driver/Inc/stm32f1xx_hal_gpio.h"
 2252              		.file 11 "../Drivers/STM32F1xx_HAL_Driver/Inc/stm32f1xx_hal.h"
ARM GAS  C:\Users\HP\AppData\Local\Temp\ccUtCZ4i.s 			page 40

