ARM GAS  C:\Users\HP\AppData\Local\Temp\cc3vbRST.s 			page 1


   1              		.cpu cortex-m3
   2              		.eabi_attribute 20, 1
   3              		.eabi_attribute 21, 1
   4              		.eabi_attribute 23, 3
   5              		.eabi_attribute 24, 1
   6              		.eabi_attribute 25, 1
   7              		.eabi_attribute 26, 1
   8              		.eabi_attribute 30, 1
   9              		.eabi_attribute 34, 1
  10              		.eabi_attribute 18, 4
  11              		.file	"stm32f1xx_hal_uart.c"
  12              		.text
  13              	.Ltext0:
  14              		.cfi_sections	.debug_frame
  15              		.section	.text.UART_EndTxTransfer,"ax",%progbits
  16              		.align	1
  17              		.arch armv7-m
  18              		.syntax unified
  19              		.thumb
  20              		.thumb_func
  21              		.fpu softvfp
  23              	UART_EndTxTransfer:
  24              	.LFB116:
  25              		.file 1 "../Drivers/STM32F1xx_HAL_Driver/Src/stm32f1xx_hal_uart.c"
   1:../Drivers/STM32F1xx_HAL_Driver/Src/stm32f1xx_hal_uart.c **** 
  26              		.loc 1 3307 1 view -0
  27              		.cfi_startproc
  28              		@ args = 0, pretend = 0, frame = 0
  29              		@ frame_needed = 0, uses_anonymous_args = 0
  30              		@ link register save eliminated.
  31              	.LVL0:
  32              	.L2:
  33              		.loc 1 3309 3 discriminator 1 view .LVU1
  34              	.LBB320:
  35              		.loc 1 3309 3 discriminator 1 view .LVU2
  36              		.loc 1 3309 3 discriminator 1 view .LVU3
  37              		.loc 1 3309 3 discriminator 1 view .LVU4
  38 0000 0268     		ldr	r2, [r0]
  39              	.LVL1:
  40              	.LBB321:
  41              	.LBI321:
  42              		.file 2 "../Drivers/CMSIS/Include/cmsis_gcc.h"
   1:../Drivers/CMSIS/Include/cmsis_gcc.h **** 
  43              		.loc 2 1068 31 discriminator 1 view .LVU5
  44              	.LBB322:
  45              		.loc 2 1070 5 discriminator 1 view .LVU6
  46              		.loc 2 1072 4 discriminator 1 view .LVU7
  47 0002 02F10C03 		add	r3, r2, #12
  48              	.LVL2:
  49              		.loc 2 1072 4 is_stmt 0 discriminator 1 view .LVU8
  50              		.syntax unified
  51              	@ 1072 "Drivers/CMSIS/Include/cmsis_gcc.h" 1
  52 0006 53E8003F 		ldrex r3, [r3]
  53              	@ 0 "" 2
  54              	.LVL3:
  55              		.loc 2 1073 4 is_stmt 1 discriminator 1 view .LVU9
  56              		.loc 2 1073 4 is_stmt 0 discriminator 1 view .LVU10
ARM GAS  C:\Users\HP\AppData\Local\Temp\cc3vbRST.s 			page 2


  57              		.thumb
  58              		.syntax unified
  59              	.LBE322:
  60              	.LBE321:
  61              		.loc 1 3309 3 discriminator 1 view .LVU11
  62 000a 23F0C003 		bic	r3, r3, #192
  63              	.LVL4:
  64              		.loc 1 3309 3 is_stmt 1 discriminator 1 view .LVU12
  65              	.LBB323:
  66              	.LBI323:
  67              		.loc 2 1119 31 discriminator 1 view .LVU13
  68              	.LBB324:
  69              		.loc 2 1121 4 discriminator 1 view .LVU14
  70              		.loc 2 1123 4 discriminator 1 view .LVU15
  71 000e 0C32     		adds	r2, r2, #12
  72              	.LVL5:
  73              		.loc 2 1123 4 is_stmt 0 discriminator 1 view .LVU16
  74              		.syntax unified
  75              	@ 1123 "Drivers/CMSIS/Include/cmsis_gcc.h" 1
  76 0010 42E80031 		strex r1, r3, [r2]
  77              	@ 0 "" 2
  78              	.LVL6:
  79              		.loc 2 1124 4 is_stmt 1 discriminator 1 view .LVU17
  80              		.loc 2 1124 4 is_stmt 0 discriminator 1 view .LVU18
  81              		.thumb
  82              		.syntax unified
  83              	.LBE324:
  84              	.LBE323:
  85              		.loc 1 3309 3 discriminator 1 view .LVU19
  86 0014 0029     		cmp	r1, #0
  87 0016 F3D1     		bne	.L2
  88              	.LBE320:
  89              		.loc 1 3309 3 is_stmt 1 discriminator 2 view .LVU20
  90              		.loc 1 3312 3 discriminator 2 view .LVU21
  91              		.loc 1 3312 17 is_stmt 0 discriminator 2 view .LVU22
  92 0018 2023     		movs	r3, #32
  93              	.LVL7:
  94              		.loc 1 3312 17 discriminator 2 view .LVU23
  95 001a 80F84130 		strb	r3, [r0, #65]
  96              		.loc 1 3313 1 discriminator 2 view .LVU24
  97 001e 7047     		bx	lr
  98              		.cfi_endproc
  99              	.LFE116:
 101              		.section	.text.UART_EndRxTransfer,"ax",%progbits
 102              		.align	1
 103              		.syntax unified
 104              		.thumb
 105              		.thumb_func
 106              		.fpu softvfp
 108              	UART_EndRxTransfer:
 109              	.LFB117:
 110              		.loc 1 3321 1 is_stmt 1 view -0
 111              		.cfi_startproc
 112              		@ args = 0, pretend = 0, frame = 0
 113              		@ frame_needed = 0, uses_anonymous_args = 0
 114              		@ link register save eliminated.
 115              	.LVL8:
ARM GAS  C:\Users\HP\AppData\Local\Temp\cc3vbRST.s 			page 3


 116              	.L4:
 117              		.loc 1 3323 3 discriminator 1 view .LVU26
 118              	.LBB325:
 119              		.loc 1 3323 3 discriminator 1 view .LVU27
 120              		.loc 1 3323 3 discriminator 1 view .LVU28
 121              		.loc 1 3323 3 discriminator 1 view .LVU29
 122 0000 0268     		ldr	r2, [r0]
 123              	.LVL9:
 124              	.LBB326:
 125              	.LBI326:
 126              		.loc 2 1068 31 discriminator 1 view .LVU30
 127              	.LBB327:
 128              		.loc 2 1070 5 discriminator 1 view .LVU31
 129              		.loc 2 1072 4 discriminator 1 view .LVU32
 130 0002 02F10C03 		add	r3, r2, #12
 131              	.LVL10:
 132              		.loc 2 1072 4 is_stmt 0 discriminator 1 view .LVU33
 133              		.syntax unified
 134              	@ 1072 "Drivers/CMSIS/Include/cmsis_gcc.h" 1
 135 0006 53E8003F 		ldrex r3, [r3]
 136              	@ 0 "" 2
 137              	.LVL11:
 138              		.loc 2 1073 4 is_stmt 1 discriminator 1 view .LVU34
 139              		.loc 2 1073 4 is_stmt 0 discriminator 1 view .LVU35
 140              		.thumb
 141              		.syntax unified
 142              	.LBE327:
 143              	.LBE326:
 144              		.loc 1 3323 3 discriminator 1 view .LVU36
 145 000a 23F49073 		bic	r3, r3, #288
 146              	.LVL12:
 147              		.loc 1 3323 3 is_stmt 1 discriminator 1 view .LVU37
 148              	.LBB328:
 149              	.LBI328:
 150              		.loc 2 1119 31 discriminator 1 view .LVU38
 151              	.LBB329:
 152              		.loc 2 1121 4 discriminator 1 view .LVU39
 153              		.loc 2 1123 4 discriminator 1 view .LVU40
 154 000e 0C32     		adds	r2, r2, #12
 155              	.LVL13:
 156              		.loc 2 1123 4 is_stmt 0 discriminator 1 view .LVU41
 157              		.syntax unified
 158              	@ 1123 "Drivers/CMSIS/Include/cmsis_gcc.h" 1
 159 0010 42E80031 		strex r1, r3, [r2]
 160              	@ 0 "" 2
 161              	.LVL14:
 162              		.loc 2 1124 4 is_stmt 1 discriminator 1 view .LVU42
 163              		.loc 2 1124 4 is_stmt 0 discriminator 1 view .LVU43
 164              		.thumb
 165              		.syntax unified
 166              	.LBE329:
 167              	.LBE328:
 168              		.loc 1 3323 3 discriminator 1 view .LVU44
 169 0014 0029     		cmp	r1, #0
 170 0016 F3D1     		bne	.L4
 171              	.LVL15:
 172              	.L5:
ARM GAS  C:\Users\HP\AppData\Local\Temp\cc3vbRST.s 			page 4


 173              		.loc 1 3323 3 discriminator 1 view .LVU45
 174              	.LBE325:
 175              		.loc 1 3323 3 is_stmt 1 discriminator 1 view .LVU46
 176              		.loc 1 3324 3 discriminator 1 view .LVU47
 177              	.LBB330:
 178              		.loc 1 3324 3 discriminator 1 view .LVU48
 179              		.loc 1 3324 3 discriminator 1 view .LVU49
 180              		.loc 1 3324 3 discriminator 1 view .LVU50
 181 0018 0268     		ldr	r2, [r0]
 182              	.LVL16:
 183              	.LBB331:
 184              	.LBI331:
 185              		.loc 2 1068 31 discriminator 1 view .LVU51
 186              	.LBB332:
 187              		.loc 2 1070 5 discriminator 1 view .LVU52
 188              		.loc 2 1072 4 discriminator 1 view .LVU53
 189 001a 02F11403 		add	r3, r2, #20
 190              	.LVL17:
 191              		.loc 2 1072 4 is_stmt 0 discriminator 1 view .LVU54
 192              		.syntax unified
 193              	@ 1072 "Drivers/CMSIS/Include/cmsis_gcc.h" 1
 194 001e 53E8003F 		ldrex r3, [r3]
 195              	@ 0 "" 2
 196              	.LVL18:
 197              		.loc 2 1073 4 is_stmt 1 discriminator 1 view .LVU55
 198              		.loc 2 1073 4 is_stmt 0 discriminator 1 view .LVU56
 199              		.thumb
 200              		.syntax unified
 201              	.LBE332:
 202              	.LBE331:
 203              		.loc 1 3324 3 discriminator 1 view .LVU57
 204 0022 23F00103 		bic	r3, r3, #1
 205              	.LVL19:
 206              		.loc 1 3324 3 is_stmt 1 discriminator 1 view .LVU58
 207              	.LBB333:
 208              	.LBI333:
 209              		.loc 2 1119 31 discriminator 1 view .LVU59
 210              	.LBB334:
 211              		.loc 2 1121 4 discriminator 1 view .LVU60
 212              		.loc 2 1123 4 discriminator 1 view .LVU61
 213 0026 1432     		adds	r2, r2, #20
 214              	.LVL20:
 215              		.loc 2 1123 4 is_stmt 0 discriminator 1 view .LVU62
 216              		.syntax unified
 217              	@ 1123 "Drivers/CMSIS/Include/cmsis_gcc.h" 1
 218 0028 42E80031 		strex r1, r3, [r2]
 219              	@ 0 "" 2
 220              	.LVL21:
 221              		.loc 2 1124 4 is_stmt 1 discriminator 1 view .LVU63
 222              		.loc 2 1124 4 is_stmt 0 discriminator 1 view .LVU64
 223              		.thumb
 224              		.syntax unified
 225              	.LBE334:
 226              	.LBE333:
 227              		.loc 1 3324 3 discriminator 1 view .LVU65
 228 002c 0029     		cmp	r1, #0
 229 002e F3D1     		bne	.L5
ARM GAS  C:\Users\HP\AppData\Local\Temp\cc3vbRST.s 			page 5


 230              	.LBE330:
 231              		.loc 1 3324 3 is_stmt 1 discriminator 2 view .LVU66
 232              		.loc 1 3327 3 discriminator 2 view .LVU67
 233              		.loc 1 3327 12 is_stmt 0 discriminator 2 view .LVU68
 234 0030 036B     		ldr	r3, [r0, #48]
 235              	.LVL22:
 236              		.loc 1 3327 6 discriminator 2 view .LVU69
 237 0032 012B     		cmp	r3, #1
 238 0034 05D0     		beq	.L7
 239              	.L6:
 240              		.loc 1 3329 5 is_stmt 1 discriminator 2 view .LVU70
 241              		.loc 1 3333 3 discriminator 2 view .LVU71
 242              		.loc 1 3333 18 is_stmt 0 discriminator 2 view .LVU72
 243 0036 2023     		movs	r3, #32
 244 0038 80F84230 		strb	r3, [r0, #66]
 245              		.loc 1 3334 3 is_stmt 1 discriminator 2 view .LVU73
 246              		.loc 1 3334 24 is_stmt 0 discriminator 2 view .LVU74
 247 003c 0023     		movs	r3, #0
 248 003e 0363     		str	r3, [r0, #48]
 249              		.loc 1 3335 1 discriminator 2 view .LVU75
 250 0040 7047     		bx	lr
 251              	.L7:
 252              		.loc 1 3329 5 is_stmt 1 discriminator 1 view .LVU76
 253              	.LBB335:
 254              		.loc 1 3329 5 discriminator 1 view .LVU77
 255              		.loc 1 3329 5 discriminator 1 view .LVU78
 256              		.loc 1 3329 5 discriminator 1 view .LVU79
 257 0042 0268     		ldr	r2, [r0]
 258              	.LVL23:
 259              	.LBB336:
 260              	.LBI336:
 261              		.loc 2 1068 31 discriminator 1 view .LVU80
 262              	.LBB337:
 263              		.loc 2 1070 5 discriminator 1 view .LVU81
 264              		.loc 2 1072 4 discriminator 1 view .LVU82
 265 0044 02F10C03 		add	r3, r2, #12
 266              	.LVL24:
 267              		.loc 2 1072 4 is_stmt 0 discriminator 1 view .LVU83
 268              		.syntax unified
 269              	@ 1072 "Drivers/CMSIS/Include/cmsis_gcc.h" 1
 270 0048 53E8003F 		ldrex r3, [r3]
 271              	@ 0 "" 2
 272              	.LVL25:
 273              		.loc 2 1073 4 is_stmt 1 discriminator 1 view .LVU84
 274              		.loc 2 1073 4 is_stmt 0 discriminator 1 view .LVU85
 275              		.thumb
 276              		.syntax unified
 277              	.LBE337:
 278              	.LBE336:
 279              		.loc 1 3329 5 discriminator 1 view .LVU86
 280 004c 23F01003 		bic	r3, r3, #16
 281              	.LVL26:
 282              		.loc 1 3329 5 is_stmt 1 discriminator 1 view .LVU87
 283              	.LBB338:
 284              	.LBI338:
 285              		.loc 2 1119 31 discriminator 1 view .LVU88
 286              	.LBB339:
ARM GAS  C:\Users\HP\AppData\Local\Temp\cc3vbRST.s 			page 6


 287              		.loc 2 1121 4 discriminator 1 view .LVU89
 288              		.loc 2 1123 4 discriminator 1 view .LVU90
 289 0050 0C32     		adds	r2, r2, #12
 290              	.LVL27:
 291              		.loc 2 1123 4 is_stmt 0 discriminator 1 view .LVU91
 292              		.syntax unified
 293              	@ 1123 "Drivers/CMSIS/Include/cmsis_gcc.h" 1
 294 0052 42E80031 		strex r1, r3, [r2]
 295              	@ 0 "" 2
 296              	.LVL28:
 297              		.loc 2 1124 4 is_stmt 1 discriminator 1 view .LVU92
 298              		.loc 2 1124 4 is_stmt 0 discriminator 1 view .LVU93
 299              		.thumb
 300              		.syntax unified
 301              	.LBE339:
 302              	.LBE338:
 303              		.loc 1 3329 5 discriminator 1 view .LVU94
 304 0056 0029     		cmp	r1, #0
 305 0058 F3D1     		bne	.L7
 306 005a ECE7     		b	.L6
 307              	.LBE335:
 308              		.cfi_endproc
 309              	.LFE117:
 311              		.section	.text.UART_Transmit_IT,"ax",%progbits
 312              		.align	1
 313              		.syntax unified
 314              		.thumb
 315              		.thumb_func
 316              		.fpu softvfp
 318              	UART_Transmit_IT:
 319              	.LVL29:
 320              	.LFB123:
 321              		.loc 1 3515 1 is_stmt 1 view -0
 322              		.cfi_startproc
 323              		@ args = 0, pretend = 0, frame = 0
 324              		@ frame_needed = 0, uses_anonymous_args = 0
 325              		@ link register save eliminated.
 326              		.loc 1 3516 3 view .LVU96
 327              		.loc 1 3519 3 view .LVU97
 328              		.loc 1 3519 12 is_stmt 0 view .LVU98
 329 0000 90F84130 		ldrb	r3, [r0, #65]	@ zero_extendqisi2
 330 0004 DBB2     		uxtb	r3, r3
 331              		.loc 1 3519 6 view .LVU99
 332 0006 212B     		cmp	r3, #33
 333 0008 01D0     		beq	.L14
 334              		.loc 1 3544 12 view .LVU100
 335 000a 0220     		movs	r0, #2
 336              	.LVL30:
 337              		.loc 1 3546 1 view .LVU101
 338 000c 7047     		bx	lr
 339              	.LVL31:
 340              	.L14:
 341              		.loc 1 3521 5 is_stmt 1 view .LVU102
 342              		.loc 1 3521 21 is_stmt 0 view .LVU103
 343 000e 8368     		ldr	r3, [r0, #8]
 344              		.loc 1 3521 8 view .LVU104
 345 0010 B3F5805F 		cmp	r3, #4096
ARM GAS  C:\Users\HP\AppData\Local\Temp\cc3vbRST.s 			page 7


 346 0014 17D0     		beq	.L15
 347              	.L10:
 348              		.loc 1 3529 7 is_stmt 1 view .LVU105
 349              		.loc 1 3529 45 is_stmt 0 view .LVU106
 350 0016 036A     		ldr	r3, [r0, #32]
 351              		.loc 1 3529 57 view .LVU107
 352 0018 5A1C     		adds	r2, r3, #1
 353 001a 0262     		str	r2, [r0, #32]
 354              		.loc 1 3529 39 view .LVU108
 355 001c 1A78     		ldrb	r2, [r3]	@ zero_extendqisi2
 356              		.loc 1 3529 12 view .LVU109
 357 001e 0368     		ldr	r3, [r0]
 358              		.loc 1 3529 27 view .LVU110
 359 0020 5A60     		str	r2, [r3, #4]
 360              	.L11:
 361              		.loc 1 3532 5 is_stmt 1 view .LVU111
 362              		.loc 1 3532 16 is_stmt 0 view .LVU112
 363 0022 C38C     		ldrh	r3, [r0, #38]
 364 0024 9BB2     		uxth	r3, r3
 365              		.loc 1 3532 9 view .LVU113
 366 0026 013B     		subs	r3, r3, #1
 367 0028 9BB2     		uxth	r3, r3
 368              		.loc 1 3532 8 view .LVU114
 369 002a C384     		strh	r3, [r0, #38]	@ movhi
 370 002c 4BB9     		cbnz	r3, .L12
 371              		.loc 1 3535 7 is_stmt 1 view .LVU115
 372 002e 0268     		ldr	r2, [r0]
 373 0030 D368     		ldr	r3, [r2, #12]
 374 0032 23F08003 		bic	r3, r3, #128
 375 0036 D360     		str	r3, [r2, #12]
 376              		.loc 1 3538 7 view .LVU116
 377 0038 0268     		ldr	r2, [r0]
 378 003a D368     		ldr	r3, [r2, #12]
 379 003c 43F04003 		orr	r3, r3, #64
 380 0040 D360     		str	r3, [r2, #12]
 381              	.L12:
 382              		.loc 1 3540 5 view .LVU117
 383              		.loc 1 3540 12 is_stmt 0 view .LVU118
 384 0042 0020     		movs	r0, #0
 385              	.LVL32:
 386              		.loc 1 3540 12 view .LVU119
 387 0044 7047     		bx	lr
 388              	.LVL33:
 389              	.L15:
 390              		.loc 1 3521 71 discriminator 1 view .LVU120
 391 0046 0369     		ldr	r3, [r0, #16]
 392              		.loc 1 3521 56 discriminator 1 view .LVU121
 393 0048 002B     		cmp	r3, #0
 394 004a E4D1     		bne	.L10
 395              		.loc 1 3523 7 is_stmt 1 view .LVU122
 396              		.loc 1 3523 11 is_stmt 0 view .LVU123
 397 004c 036A     		ldr	r3, [r0, #32]
 398              	.LVL34:
 399              		.loc 1 3524 7 is_stmt 1 view .LVU124
 400              		.loc 1 3524 40 is_stmt 0 view .LVU125
 401 004e 1B88     		ldrh	r3, [r3]
 402              	.LVL35:
ARM GAS  C:\Users\HP\AppData\Local\Temp\cc3vbRST.s 			page 8


 403              		.loc 1 3524 12 view .LVU126
 404 0050 0268     		ldr	r2, [r0]
 405              		.loc 1 3524 29 view .LVU127
 406 0052 C3F30803 		ubfx	r3, r3, #0, #9
 407              		.loc 1 3524 27 view .LVU128
 408 0056 5360     		str	r3, [r2, #4]
 409              	.LVL36:
 410              		.loc 1 3525 7 is_stmt 1 view .LVU129
 411              		.loc 1 3525 25 is_stmt 0 view .LVU130
 412 0058 036A     		ldr	r3, [r0, #32]
 413 005a 0233     		adds	r3, r3, #2
 414 005c 0362     		str	r3, [r0, #32]
 415 005e E0E7     		b	.L11
 416              		.cfi_endproc
 417              	.LFE123:
 419              		.section	.text.UART_SetConfig,"ax",%progbits
 420              		.align	1
 421              		.syntax unified
 422              		.thumb
 423              		.thumb_func
 424              		.fpu softvfp
 426              	UART_SetConfig:
 427              	.LVL37:
 428              	.LFB126:
 429              		.loc 1 3681 1 is_stmt 1 view -0
 430              		.cfi_startproc
 431              		@ args = 0, pretend = 0, frame = 0
 432              		@ frame_needed = 0, uses_anonymous_args = 0
 433              		.loc 1 3681 1 is_stmt 0 view .LVU132
 434 0000 10B5     		push	{r4, lr}
 435              	.LCFI0:
 436              		.cfi_def_cfa_offset 8
 437              		.cfi_offset 4, -8
 438              		.cfi_offset 14, -4
 439 0002 0446     		mov	r4, r0
 440              		.loc 1 3682 3 is_stmt 1 view .LVU133
 441              		.loc 1 3683 3 view .LVU134
 442              		.loc 1 3686 3 view .LVU135
 443              		.loc 1 3687 3 view .LVU136
 444              		.loc 1 3688 3 view .LVU137
 445              		.loc 1 3689 3 view .LVU138
 446              		.loc 1 3694 3 view .LVU139
 447 0004 0268     		ldr	r2, [r0]
 448 0006 1369     		ldr	r3, [r2, #16]
 449 0008 23F44053 		bic	r3, r3, #12288
 450 000c C168     		ldr	r1, [r0, #12]
 451 000e 0B43     		orrs	r3, r3, r1
 452 0010 1361     		str	r3, [r2, #16]
 453              		.loc 1 3709 3 view .LVU140
 454              		.loc 1 3709 33 is_stmt 0 view .LVU141
 455 0012 8368     		ldr	r3, [r0, #8]
 456              		.loc 1 3709 58 view .LVU142
 457 0014 0269     		ldr	r2, [r0, #16]
 458              		.loc 1 3709 45 view .LVU143
 459 0016 1343     		orrs	r3, r3, r2
 460              		.loc 1 3709 79 view .LVU144
 461 0018 4269     		ldr	r2, [r0, #20]
ARM GAS  C:\Users\HP\AppData\Local\Temp\cc3vbRST.s 			page 9


 462              		.loc 1 3709 10 view .LVU145
 463 001a 1A43     		orrs	r2, r2, r3
 464              	.LVL38:
 465              		.loc 1 3710 3 is_stmt 1 view .LVU146
 466 001c 0168     		ldr	r1, [r0]
 467 001e CB68     		ldr	r3, [r1, #12]
 468 0020 23F4B053 		bic	r3, r3, #5632
 469 0024 23F00C03 		bic	r3, r3, #12
 470 0028 1343     		orrs	r3, r3, r2
 471 002a CB60     		str	r3, [r1, #12]
 472              		.loc 1 3717 3 view .LVU147
 473 002c 0268     		ldr	r2, [r0]
 474              	.LVL39:
 475              		.loc 1 3717 3 is_stmt 0 view .LVU148
 476 002e 5369     		ldr	r3, [r2, #20]
 477 0030 23F44073 		bic	r3, r3, #768
 478 0034 8169     		ldr	r1, [r0, #24]
 479 0036 0B43     		orrs	r3, r3, r1
 480 0038 5361     		str	r3, [r2, #20]
 481              		.loc 1 3720 3 is_stmt 1 view .LVU149
 482              		.loc 1 3720 11 is_stmt 0 view .LVU150
 483 003a 0268     		ldr	r2, [r0]
 484              		.loc 1 3720 5 view .LVU151
 485 003c 134B     		ldr	r3, .L21
 486 003e 9A42     		cmp	r2, r3
 487 0040 20D0     		beq	.L20
 488              		.loc 1 3726 5 is_stmt 1 view .LVU152
 489              		.loc 1 3726 12 is_stmt 0 view .LVU153
 490 0042 134B     		ldr	r3, .L21+4
 491 0044 9847     		blx	r3
 492              	.LVL40:
 493              		.loc 1 3726 12 view .LVU154
 494 0046 0246     		mov	r2, r0
 495              	.LVL41:
 496              	.L18:
 497              		.loc 1 3740 3 is_stmt 1 view .LVU155
 498              		.loc 1 3740 26 is_stmt 0 view .LVU156
 499 0048 02EB8202 		add	r2, r2, r2, lsl #2
 500 004c 02EB8202 		add	r2, r2, r2, lsl #2
 501 0050 6368     		ldr	r3, [r4, #4]
 502 0052 9B00     		lsls	r3, r3, #2
 503 0054 B2FBF3F2 		udiv	r2, r2, r3
 504 0058 0E48     		ldr	r0, .L21+8
 505              	.LVL42:
 506              		.loc 1 3740 26 view .LVU157
 507 005a A0FB0231 		umull	r3, r1, r0, r2
 508 005e 4909     		lsrs	r1, r1, #5
 509 0060 6423     		movs	r3, #100
 510 0062 03FB1123 		mls	r3, r3, r1, r2
 511 0066 1B01     		lsls	r3, r3, #4
 512 0068 3233     		adds	r3, r3, #50
 513 006a A0FB0323 		umull	r2, r3, r0, r3
 514 006e 5B09     		lsrs	r3, r3, #5
 515 0070 03F0F002 		and	r2, r3, #240
 516 0074 02EB0112 		add	r2, r2, r1, lsl #4
 517 0078 03F00F03 		and	r3, r3, #15
 518              		.loc 1 3740 8 view .LVU158
ARM GAS  C:\Users\HP\AppData\Local\Temp\cc3vbRST.s 			page 10


 519 007c 2168     		ldr	r1, [r4]
 520              		.loc 1 3740 26 view .LVU159
 521 007e 1344     		add	r3, r3, r2
 522              		.loc 1 3740 24 view .LVU160
 523 0080 8B60     		str	r3, [r1, #8]
 524              		.loc 1 3742 1 view .LVU161
 525 0082 10BD     		pop	{r4, pc}
 526              	.LVL43:
 527              	.L20:
 528              		.loc 1 3722 5 is_stmt 1 view .LVU162
 529              		.loc 1 3722 12 is_stmt 0 view .LVU163
 530 0084 044B     		ldr	r3, .L21+12
 531 0086 9847     		blx	r3
 532              	.LVL44:
 533              		.loc 1 3722 12 view .LVU164
 534 0088 0246     		mov	r2, r0
 535              	.LVL45:
 536              		.loc 1 3722 12 view .LVU165
 537 008a DDE7     		b	.L18
 538              	.L22:
 539              		.align	2
 540              	.L21:
 541 008c 00380140 		.word	1073821696
 542 0090 00000000 		.word	HAL_RCC_GetPCLK1Freq
 543 0094 1F85EB51 		.word	1374389535
 544 0098 00000000 		.word	HAL_RCC_GetPCLK2Freq
 545              		.cfi_endproc
 546              	.LFE126:
 548              		.section	.text.UART_WaitOnFlagUntilTimeout,"ax",%progbits
 549              		.align	1
 550              		.syntax unified
 551              		.thumb
 552              		.thumb_func
 553              		.fpu softvfp
 555              	UART_WaitOnFlagUntilTimeout:
 556              	.LVL46:
 557              	.LFB113:
 558              		.loc 1 3184 1 is_stmt 1 view -0
 559              		.cfi_startproc
 560              		@ args = 4, pretend = 0, frame = 0
 561              		@ frame_needed = 0, uses_anonymous_args = 0
 562              		.loc 1 3184 1 is_stmt 0 view .LVU167
 563 0000 2DE9F843 		push	{r3, r4, r5, r6, r7, r8, r9, lr}
 564              	.LCFI1:
 565              		.cfi_def_cfa_offset 32
 566              		.cfi_offset 3, -32
 567              		.cfi_offset 4, -28
 568              		.cfi_offset 5, -24
 569              		.cfi_offset 6, -20
 570              		.cfi_offset 7, -16
 571              		.cfi_offset 8, -12
 572              		.cfi_offset 9, -8
 573              		.cfi_offset 14, -4
 574 0004 0546     		mov	r5, r0
 575 0006 0F46     		mov	r7, r1
 576 0008 1646     		mov	r6, r2
 577 000a 9946     		mov	r9, r3
ARM GAS  C:\Users\HP\AppData\Local\Temp\cc3vbRST.s 			page 11


 578 000c DDF82080 		ldr	r8, [sp, #32]
 579              		.loc 1 3186 3 is_stmt 1 view .LVU168
 580              	.LVL47:
 581              	.L25:
 582              		.loc 1 3186 9 view .LVU169
 583              		.loc 1 3186 11 is_stmt 0 view .LVU170
 584 0010 2C68     		ldr	r4, [r5]
 585 0012 2468     		ldr	r4, [r4]
 586              		.loc 1 3186 50 view .LVU171
 587 0014 37EA0403 		bics	r3, r7, r4
 588 0018 0CBF     		ite	eq
 589 001a 4FF0010C 		moveq	ip, #1
 590 001e 4FF0000C 		movne	ip, #0
 591              		.loc 1 3186 9 view .LVU172
 592 0022 B445     		cmp	ip, r6
 593 0024 2DD1     		bne	.L32
 594              		.loc 1 3189 5 is_stmt 1 view .LVU173
 595              		.loc 1 3189 8 is_stmt 0 view .LVU174
 596 0026 B8F1FF3F 		cmp	r8, #-1
 597 002a F1D0     		beq	.L25
 598              		.loc 1 3191 7 is_stmt 1 view .LVU175
 599              		.loc 1 3191 10 is_stmt 0 view .LVU176
 600 002c B8F1000F 		cmp	r8, #0
 601 0030 05D0     		beq	.L27
 602              		.loc 1 3191 32 discriminator 1 view .LVU177
 603 0032 154B     		ldr	r3, .L33
 604 0034 9847     		blx	r3
 605              	.LVL48:
 606              		.loc 1 3191 46 discriminator 1 view .LVU178
 607 0036 A0EB0900 		sub	r0, r0, r9
 608              		.loc 1 3191 27 discriminator 1 view .LVU179
 609 003a 4045     		cmp	r0, r8
 610 003c E8D9     		bls	.L25
 611              	.L27:
 612              		.loc 1 3194 9 is_stmt 1 discriminator 1 view .LVU180
 613              	.LBB340:
 614              		.loc 1 3194 9 discriminator 1 view .LVU181
 615              		.loc 1 3194 9 discriminator 1 view .LVU182
 616              		.loc 1 3194 9 discriminator 1 view .LVU183
 617 003e 2A68     		ldr	r2, [r5]
 618              	.LVL49:
 619              	.LBB341:
 620              	.LBI341:
 621              		.loc 2 1068 31 discriminator 1 view .LVU184
 622              	.LBB342:
 623              		.loc 2 1070 5 discriminator 1 view .LVU185
 624              		.loc 2 1072 4 discriminator 1 view .LVU186
 625 0040 02F10C03 		add	r3, r2, #12
 626              	.LVL50:
 627              		.loc 2 1072 4 is_stmt 0 discriminator 1 view .LVU187
 628              		.syntax unified
 629              	@ 1072 "Drivers/CMSIS/Include/cmsis_gcc.h" 1
 630 0044 53E8003F 		ldrex r3, [r3]
 631              	@ 0 "" 2
 632              	.LVL51:
 633              		.loc 2 1073 4 is_stmt 1 discriminator 1 view .LVU188
 634              		.loc 2 1073 4 is_stmt 0 discriminator 1 view .LVU189
ARM GAS  C:\Users\HP\AppData\Local\Temp\cc3vbRST.s 			page 12


 635              		.thumb
 636              		.syntax unified
 637              	.LBE342:
 638              	.LBE341:
 639              		.loc 1 3194 9 discriminator 1 view .LVU190
 640 0048 23F4D073 		bic	r3, r3, #416
 641              	.LVL52:
 642              		.loc 1 3194 9 is_stmt 1 discriminator 1 view .LVU191
 643              	.LBB343:
 644              	.LBI343:
 645              		.loc 2 1119 31 discriminator 1 view .LVU192
 646              	.LBB344:
 647              		.loc 2 1121 4 discriminator 1 view .LVU193
 648              		.loc 2 1123 4 discriminator 1 view .LVU194
 649 004c 0C32     		adds	r2, r2, #12
 650              	.LVL53:
 651              		.loc 2 1123 4 is_stmt 0 discriminator 1 view .LVU195
 652              		.syntax unified
 653              	@ 1123 "Drivers/CMSIS/Include/cmsis_gcc.h" 1
 654 004e 42E80031 		strex r1, r3, [r2]
 655              	@ 0 "" 2
 656              	.LVL54:
 657              		.loc 2 1124 4 is_stmt 1 discriminator 1 view .LVU196
 658              		.loc 2 1124 4 is_stmt 0 discriminator 1 view .LVU197
 659              		.thumb
 660              		.syntax unified
 661              	.LBE344:
 662              	.LBE343:
 663              		.loc 1 3194 9 discriminator 1 view .LVU198
 664 0052 0029     		cmp	r1, #0
 665 0054 F3D1     		bne	.L27
 666              	.LVL55:
 667              	.L28:
 668              		.loc 1 3194 9 discriminator 1 view .LVU199
 669              	.LBE340:
 670              		.loc 1 3194 9 is_stmt 1 discriminator 1 view .LVU200
 671              		.loc 1 3195 9 discriminator 1 view .LVU201
 672              	.LBB345:
 673              		.loc 1 3195 9 discriminator 1 view .LVU202
 674              		.loc 1 3195 9 discriminator 1 view .LVU203
 675              		.loc 1 3195 9 discriminator 1 view .LVU204
 676 0056 2A68     		ldr	r2, [r5]
 677              	.LVL56:
 678              	.LBB346:
 679              	.LBI346:
 680              		.loc 2 1068 31 discriminator 1 view .LVU205
 681              	.LBB347:
 682              		.loc 2 1070 5 discriminator 1 view .LVU206
 683              		.loc 2 1072 4 discriminator 1 view .LVU207
 684 0058 02F11403 		add	r3, r2, #20
 685              	.LVL57:
 686              		.loc 2 1072 4 is_stmt 0 discriminator 1 view .LVU208
 687              		.syntax unified
 688              	@ 1072 "Drivers/CMSIS/Include/cmsis_gcc.h" 1
 689 005c 53E8003F 		ldrex r3, [r3]
 690              	@ 0 "" 2
 691              	.LVL58:
ARM GAS  C:\Users\HP\AppData\Local\Temp\cc3vbRST.s 			page 13


 692              		.loc 2 1073 4 is_stmt 1 discriminator 1 view .LVU209
 693              		.loc 2 1073 4 is_stmt 0 discriminator 1 view .LVU210
 694              		.thumb
 695              		.syntax unified
 696              	.LBE347:
 697              	.LBE346:
 698              		.loc 1 3195 9 discriminator 1 view .LVU211
 699 0060 23F00103 		bic	r3, r3, #1
 700              	.LVL59:
 701              		.loc 1 3195 9 is_stmt 1 discriminator 1 view .LVU212
 702              	.LBB348:
 703              	.LBI348:
 704              		.loc 2 1119 31 discriminator 1 view .LVU213
 705              	.LBB349:
 706              		.loc 2 1121 4 discriminator 1 view .LVU214
 707              		.loc 2 1123 4 discriminator 1 view .LVU215
 708 0064 1432     		adds	r2, r2, #20
 709              	.LVL60:
 710              		.loc 2 1123 4 is_stmt 0 discriminator 1 view .LVU216
 711              		.syntax unified
 712              	@ 1123 "Drivers/CMSIS/Include/cmsis_gcc.h" 1
 713 0066 42E80031 		strex r1, r3, [r2]
 714              	@ 0 "" 2
 715              	.LVL61:
 716              		.loc 2 1124 4 is_stmt 1 discriminator 1 view .LVU217
 717              		.loc 2 1124 4 is_stmt 0 discriminator 1 view .LVU218
 718              		.thumb
 719              		.syntax unified
 720              	.LBE349:
 721              	.LBE348:
 722              		.loc 1 3195 9 discriminator 1 view .LVU219
 723 006a 0029     		cmp	r1, #0
 724 006c F3D1     		bne	.L28
 725              	.LBE345:
 726              		.loc 1 3195 9 is_stmt 1 discriminator 2 view .LVU220
 727              		.loc 1 3197 9 discriminator 2 view .LVU221
 728              		.loc 1 3197 24 is_stmt 0 discriminator 2 view .LVU222
 729 006e 2023     		movs	r3, #32
 730              	.LVL62:
 731              		.loc 1 3197 24 discriminator 2 view .LVU223
 732 0070 85F84130 		strb	r3, [r5, #65]
 733              		.loc 1 3198 9 is_stmt 1 discriminator 2 view .LVU224
 734              		.loc 1 3198 24 is_stmt 0 discriminator 2 view .LVU225
 735 0074 85F84230 		strb	r3, [r5, #66]
 736              		.loc 1 3201 9 is_stmt 1 discriminator 2 view .LVU226
 737              		.loc 1 3201 9 discriminator 2 view .LVU227
 738 0078 0023     		movs	r3, #0
 739 007a 85F84030 		strb	r3, [r5, #64]
 740              		.loc 1 3201 9 discriminator 2 view .LVU228
 741              		.loc 1 3203 9 discriminator 2 view .LVU229
 742              		.loc 1 3203 16 is_stmt 0 discriminator 2 view .LVU230
 743 007e 0320     		movs	r0, #3
 744 0080 00E0     		b	.L29
 745              	.L32:
 746              		.loc 1 3207 10 view .LVU231
 747 0082 0020     		movs	r0, #0
 748              	.L29:
ARM GAS  C:\Users\HP\AppData\Local\Temp\cc3vbRST.s 			page 14


 749              		.loc 1 3208 1 view .LVU232
 750 0084 BDE8F883 		pop	{r3, r4, r5, r6, r7, r8, r9, pc}
 751              	.LVL63:
 752              	.L34:
 753              		.loc 1 3208 1 view .LVU233
 754              		.align	2
 755              	.L33:
 756 0088 00000000 		.word	HAL_GetTick
 757              		.cfi_endproc
 758              	.LFE113:
 760              		.section	.text.HAL_UART_MspInit,"ax",%progbits
 761              		.align	1
 762              		.weak	HAL_UART_MspInit
 763              		.syntax unified
 764              		.thumb
 765              		.thumb_func
 766              		.fpu softvfp
 768              	HAL_UART_MspInit:
 769              	.LVL64:
 770              	.LFB70:
 771              		.loc 1 719 1 is_stmt 1 view -0
 772              		.cfi_startproc
 773              		@ args = 0, pretend = 0, frame = 0
 774              		@ frame_needed = 0, uses_anonymous_args = 0
 775              		@ link register save eliminated.
 776              		.loc 1 721 3 view .LVU235
 777              		.loc 1 725 1 is_stmt 0 view .LVU236
 778 0000 7047     		bx	lr
 779              		.cfi_endproc
 780              	.LFE70:
 782              		.section	.text.HAL_UART_Init,"ax",%progbits
 783              		.align	1
 784              		.global	HAL_UART_Init
 785              		.syntax unified
 786              		.thumb
 787              		.thumb_func
 788              		.fpu softvfp
 790              	HAL_UART_Init:
 791              	.LVL65:
 792              	.LFB65:
 793              		.loc 1 355 1 is_stmt 1 view -0
 794              		.cfi_startproc
 795              		@ args = 0, pretend = 0, frame = 0
 796              		@ frame_needed = 0, uses_anonymous_args = 0
 797              		.loc 1 357 3 view .LVU238
 798              		.loc 1 357 6 is_stmt 0 view .LVU239
 799 0000 60B3     		cbz	r0, .L39
 800              		.loc 1 355 1 view .LVU240
 801 0002 10B5     		push	{r4, lr}
 802              	.LCFI2:
 803              		.cfi_def_cfa_offset 8
 804              		.cfi_offset 4, -8
 805              		.cfi_offset 14, -4
 806 0004 0446     		mov	r4, r0
 807              		.loc 1 363 3 is_stmt 1 view .LVU241
 808              		.loc 1 371 5 view .LVU242
 809              		.loc 1 373 3 view .LVU243
ARM GAS  C:\Users\HP\AppData\Local\Temp\cc3vbRST.s 			page 15


 810              		.loc 1 378 3 view .LVU244
 811              		.loc 1 378 12 is_stmt 0 view .LVU245
 812 0006 90F84130 		ldrb	r3, [r0, #65]	@ zero_extendqisi2
 813              		.loc 1 378 6 view .LVU246
 814 000a 13B3     		cbz	r3, .L44
 815              	.LVL66:
 816              	.L38:
 817              		.loc 1 399 3 is_stmt 1 view .LVU247
 818              		.loc 1 399 17 is_stmt 0 view .LVU248
 819 000c 2423     		movs	r3, #36
 820 000e 84F84130 		strb	r3, [r4, #65]
 821              		.loc 1 402 3 is_stmt 1 view .LVU249
 822 0012 2268     		ldr	r2, [r4]
 823 0014 D368     		ldr	r3, [r2, #12]
 824 0016 23F40053 		bic	r3, r3, #8192
 825 001a D360     		str	r3, [r2, #12]
 826              		.loc 1 405 3 view .LVU250
 827 001c 2046     		mov	r0, r4
 828 001e 104B     		ldr	r3, .L45
 829 0020 9847     		blx	r3
 830              	.LVL67:
 831              		.loc 1 410 3 view .LVU251
 832 0022 2268     		ldr	r2, [r4]
 833 0024 1369     		ldr	r3, [r2, #16]
 834 0026 23F49043 		bic	r3, r3, #18432
 835 002a 1361     		str	r3, [r2, #16]
 836              		.loc 1 411 3 view .LVU252
 837 002c 2268     		ldr	r2, [r4]
 838 002e 5369     		ldr	r3, [r2, #20]
 839 0030 23F02A03 		bic	r3, r3, #42
 840 0034 5361     		str	r3, [r2, #20]
 841              		.loc 1 414 3 view .LVU253
 842 0036 2268     		ldr	r2, [r4]
 843 0038 D368     		ldr	r3, [r2, #12]
 844 003a 43F40053 		orr	r3, r3, #8192
 845 003e D360     		str	r3, [r2, #12]
 846              		.loc 1 417 3 view .LVU254
 847              		.loc 1 417 20 is_stmt 0 view .LVU255
 848 0040 0020     		movs	r0, #0
 849 0042 6064     		str	r0, [r4, #68]
 850              		.loc 1 418 3 is_stmt 1 view .LVU256
 851              		.loc 1 418 17 is_stmt 0 view .LVU257
 852 0044 2023     		movs	r3, #32
 853 0046 84F84130 		strb	r3, [r4, #65]
 854              		.loc 1 419 3 is_stmt 1 view .LVU258
 855              		.loc 1 419 18 is_stmt 0 view .LVU259
 856 004a 84F84230 		strb	r3, [r4, #66]
 857              		.loc 1 420 3 is_stmt 1 view .LVU260
 858              		.loc 1 420 22 is_stmt 0 view .LVU261
 859 004e 6063     		str	r0, [r4, #52]
 860              		.loc 1 422 3 is_stmt 1 view .LVU262
 861              		.loc 1 423 1 is_stmt 0 view .LVU263
 862 0050 10BD     		pop	{r4, pc}
 863              	.LVL68:
 864              	.L44:
 865              		.loc 1 381 5 is_stmt 1 view .LVU264
 866              		.loc 1 381 17 is_stmt 0 view .LVU265
ARM GAS  C:\Users\HP\AppData\Local\Temp\cc3vbRST.s 			page 16


 867 0052 80F84030 		strb	r3, [r0, #64]
 868              		.loc 1 395 5 is_stmt 1 view .LVU266
 869 0056 034B     		ldr	r3, .L45+4
 870 0058 9847     		blx	r3
 871              	.LVL69:
 872              		.loc 1 395 5 is_stmt 0 view .LVU267
 873 005a D7E7     		b	.L38
 874              	.LVL70:
 875              	.L39:
 876              	.LCFI3:
 877              		.cfi_def_cfa_offset 0
 878              		.cfi_restore 4
 879              		.cfi_restore 14
 880              		.loc 1 359 12 view .LVU268
 881 005c 0120     		movs	r0, #1
 882              	.LVL71:
 883              		.loc 1 423 1 view .LVU269
 884 005e 7047     		bx	lr
 885              	.L46:
 886              		.align	2
 887              	.L45:
 888 0060 00000000 		.word	UART_SetConfig
 889 0064 00000000 		.word	HAL_UART_MspInit
 890              		.cfi_endproc
 891              	.LFE65:
 893              		.section	.text.HAL_HalfDuplex_Init,"ax",%progbits
 894              		.align	1
 895              		.global	HAL_HalfDuplex_Init
 896              		.syntax unified
 897              		.thumb
 898              		.thumb_func
 899              		.fpu softvfp
 901              	HAL_HalfDuplex_Init:
 902              	.LVL72:
 903              	.LFB66:
 904              		.loc 1 433 1 is_stmt 1 view -0
 905              		.cfi_startproc
 906              		@ args = 0, pretend = 0, frame = 0
 907              		@ frame_needed = 0, uses_anonymous_args = 0
 908              		.loc 1 435 3 view .LVU271
 909              		.loc 1 435 6 is_stmt 0 view .LVU272
 910 0000 0028     		cmp	r0, #0
 911 0002 31D0     		beq	.L50
 912              		.loc 1 433 1 view .LVU273
 913 0004 10B5     		push	{r4, lr}
 914              	.LCFI4:
 915              		.cfi_def_cfa_offset 8
 916              		.cfi_offset 4, -8
 917              		.cfi_offset 14, -4
 918 0006 0446     		mov	r4, r0
 919              		.loc 1 441 3 is_stmt 1 view .LVU274
 920              		.loc 1 442 3 view .LVU275
 921              		.loc 1 447 3 view .LVU276
 922              		.loc 1 447 12 is_stmt 0 view .LVU277
 923 0008 90F84130 		ldrb	r3, [r0, #65]	@ zero_extendqisi2
 924              		.loc 1 447 6 view .LVU278
 925 000c 3BB3     		cbz	r3, .L55
ARM GAS  C:\Users\HP\AppData\Local\Temp\cc3vbRST.s 			page 17


 926              	.LVL73:
 927              	.L49:
 928              		.loc 1 468 3 is_stmt 1 view .LVU279
 929              		.loc 1 468 17 is_stmt 0 view .LVU280
 930 000e 2423     		movs	r3, #36
 931 0010 84F84130 		strb	r3, [r4, #65]
 932              		.loc 1 471 3 is_stmt 1 view .LVU281
 933 0014 2268     		ldr	r2, [r4]
 934 0016 D368     		ldr	r3, [r2, #12]
 935 0018 23F40053 		bic	r3, r3, #8192
 936 001c D360     		str	r3, [r2, #12]
 937              		.loc 1 474 3 view .LVU282
 938 001e 2046     		mov	r0, r4
 939 0020 124B     		ldr	r3, .L56
 940 0022 9847     		blx	r3
 941              	.LVL74:
 942              		.loc 1 479 3 view .LVU283
 943 0024 2268     		ldr	r2, [r4]
 944 0026 1369     		ldr	r3, [r2, #16]
 945 0028 23F49043 		bic	r3, r3, #18432
 946 002c 1361     		str	r3, [r2, #16]
 947              		.loc 1 480 3 view .LVU284
 948 002e 2268     		ldr	r2, [r4]
 949 0030 5369     		ldr	r3, [r2, #20]
 950 0032 23F02203 		bic	r3, r3, #34
 951 0036 5361     		str	r3, [r2, #20]
 952              		.loc 1 483 3 view .LVU285
 953 0038 2268     		ldr	r2, [r4]
 954 003a 5369     		ldr	r3, [r2, #20]
 955 003c 43F00803 		orr	r3, r3, #8
 956 0040 5361     		str	r3, [r2, #20]
 957              		.loc 1 486 3 view .LVU286
 958 0042 2268     		ldr	r2, [r4]
 959 0044 D368     		ldr	r3, [r2, #12]
 960 0046 43F40053 		orr	r3, r3, #8192
 961 004a D360     		str	r3, [r2, #12]
 962              		.loc 1 489 3 view .LVU287
 963              		.loc 1 489 20 is_stmt 0 view .LVU288
 964 004c 0020     		movs	r0, #0
 965 004e 6064     		str	r0, [r4, #68]
 966              		.loc 1 490 3 is_stmt 1 view .LVU289
 967              		.loc 1 490 17 is_stmt 0 view .LVU290
 968 0050 2023     		movs	r3, #32
 969 0052 84F84130 		strb	r3, [r4, #65]
 970              		.loc 1 491 3 is_stmt 1 view .LVU291
 971              		.loc 1 491 18 is_stmt 0 view .LVU292
 972 0056 84F84230 		strb	r3, [r4, #66]
 973              		.loc 1 492 3 is_stmt 1 view .LVU293
 974              		.loc 1 492 22 is_stmt 0 view .LVU294
 975 005a 6063     		str	r0, [r4, #52]
 976              		.loc 1 494 3 is_stmt 1 view .LVU295
 977              		.loc 1 495 1 is_stmt 0 view .LVU296
 978 005c 10BD     		pop	{r4, pc}
 979              	.LVL75:
 980              	.L55:
 981              		.loc 1 450 5 is_stmt 1 view .LVU297
 982              		.loc 1 450 17 is_stmt 0 view .LVU298
ARM GAS  C:\Users\HP\AppData\Local\Temp\cc3vbRST.s 			page 18


 983 005e 80F84030 		strb	r3, [r0, #64]
 984              		.loc 1 464 5 is_stmt 1 view .LVU299
 985 0062 034B     		ldr	r3, .L56+4
 986 0064 9847     		blx	r3
 987              	.LVL76:
 988              		.loc 1 464 5 is_stmt 0 view .LVU300
 989 0066 D2E7     		b	.L49
 990              	.LVL77:
 991              	.L50:
 992              	.LCFI5:
 993              		.cfi_def_cfa_offset 0
 994              		.cfi_restore 4
 995              		.cfi_restore 14
 996              		.loc 1 437 12 view .LVU301
 997 0068 0120     		movs	r0, #1
 998              	.LVL78:
 999              		.loc 1 495 1 view .LVU302
 1000 006a 7047     		bx	lr
 1001              	.L57:
 1002              		.align	2
 1003              	.L56:
 1004 006c 00000000 		.word	UART_SetConfig
 1005 0070 00000000 		.word	HAL_UART_MspInit
 1006              		.cfi_endproc
 1007              	.LFE66:
 1009              		.section	.text.HAL_LIN_Init,"ax",%progbits
 1010              		.align	1
 1011              		.global	HAL_LIN_Init
 1012              		.syntax unified
 1013              		.thumb
 1014              		.thumb_func
 1015              		.fpu softvfp
 1017              	HAL_LIN_Init:
 1018              	.LVL79:
 1019              	.LFB67:
 1020              		.loc 1 509 1 is_stmt 1 view -0
 1021              		.cfi_startproc
 1022              		@ args = 0, pretend = 0, frame = 0
 1023              		@ frame_needed = 0, uses_anonymous_args = 0
 1024              		.loc 1 511 3 view .LVU304
 1025              		.loc 1 511 6 is_stmt 0 view .LVU305
 1026 0000 0028     		cmp	r0, #0
 1027 0002 3CD0     		beq	.L61
 1028              		.loc 1 509 1 view .LVU306
 1029 0004 38B5     		push	{r3, r4, r5, lr}
 1030              	.LCFI6:
 1031              		.cfi_def_cfa_offset 16
 1032              		.cfi_offset 3, -16
 1033              		.cfi_offset 4, -12
 1034              		.cfi_offset 5, -8
 1035              		.cfi_offset 14, -4
 1036 0006 0D46     		mov	r5, r1
 1037 0008 0446     		mov	r4, r0
 1038              		.loc 1 517 3 is_stmt 1 view .LVU307
 1039              		.loc 1 520 3 view .LVU308
 1040              		.loc 1 521 3 view .LVU309
 1041              		.loc 1 526 3 view .LVU310
ARM GAS  C:\Users\HP\AppData\Local\Temp\cc3vbRST.s 			page 19


 1042              		.loc 1 526 12 is_stmt 0 view .LVU311
 1043 000a 90F84130 		ldrb	r3, [r0, #65]	@ zero_extendqisi2
 1044              		.loc 1 526 6 view .LVU312
 1045 000e 002B     		cmp	r3, #0
 1046 0010 30D0     		beq	.L66
 1047              	.LVL80:
 1048              	.L60:
 1049              		.loc 1 547 3 is_stmt 1 view .LVU313
 1050              		.loc 1 547 17 is_stmt 0 view .LVU314
 1051 0012 2423     		movs	r3, #36
 1052 0014 84F84130 		strb	r3, [r4, #65]
 1053              		.loc 1 550 3 is_stmt 1 view .LVU315
 1054 0018 2268     		ldr	r2, [r4]
 1055 001a D368     		ldr	r3, [r2, #12]
 1056 001c 23F40053 		bic	r3, r3, #8192
 1057 0020 D360     		str	r3, [r2, #12]
 1058              		.loc 1 553 3 view .LVU316
 1059 0022 2046     		mov	r0, r4
 1060 0024 174B     		ldr	r3, .L67
 1061 0026 9847     		blx	r3
 1062              	.LVL81:
 1063              		.loc 1 558 3 view .LVU317
 1064 0028 2268     		ldr	r2, [r4]
 1065 002a 1369     		ldr	r3, [r2, #16]
 1066 002c 23F40063 		bic	r3, r3, #2048
 1067 0030 1361     		str	r3, [r2, #16]
 1068              		.loc 1 559 3 view .LVU318
 1069 0032 2268     		ldr	r2, [r4]
 1070 0034 5369     		ldr	r3, [r2, #20]
 1071 0036 23F02A03 		bic	r3, r3, #42
 1072 003a 5361     		str	r3, [r2, #20]
 1073              		.loc 1 562 3 view .LVU319
 1074 003c 2268     		ldr	r2, [r4]
 1075 003e 1369     		ldr	r3, [r2, #16]
 1076 0040 43F48043 		orr	r3, r3, #16384
 1077 0044 1361     		str	r3, [r2, #16]
 1078              		.loc 1 565 3 view .LVU320
 1079 0046 2268     		ldr	r2, [r4]
 1080 0048 1369     		ldr	r3, [r2, #16]
 1081 004a 23F02003 		bic	r3, r3, #32
 1082 004e 1361     		str	r3, [r2, #16]
 1083              		.loc 1 566 3 view .LVU321
 1084 0050 2368     		ldr	r3, [r4]
 1085 0052 1969     		ldr	r1, [r3, #16]
 1086 0054 0D43     		orrs	r5, r5, r1
 1087              	.LVL82:
 1088              		.loc 1 566 3 is_stmt 0 view .LVU322
 1089 0056 1D61     		str	r5, [r3, #16]
 1090              		.loc 1 569 3 is_stmt 1 view .LVU323
 1091 0058 2268     		ldr	r2, [r4]
 1092 005a D368     		ldr	r3, [r2, #12]
 1093 005c 43F40053 		orr	r3, r3, #8192
 1094 0060 D360     		str	r3, [r2, #12]
 1095              		.loc 1 572 3 view .LVU324
 1096              		.loc 1 572 20 is_stmt 0 view .LVU325
 1097 0062 0020     		movs	r0, #0
 1098 0064 6064     		str	r0, [r4, #68]
ARM GAS  C:\Users\HP\AppData\Local\Temp\cc3vbRST.s 			page 20


 1099              		.loc 1 573 3 is_stmt 1 view .LVU326
 1100              		.loc 1 573 17 is_stmt 0 view .LVU327
 1101 0066 2023     		movs	r3, #32
 1102 0068 84F84130 		strb	r3, [r4, #65]
 1103              		.loc 1 574 3 is_stmt 1 view .LVU328
 1104              		.loc 1 574 18 is_stmt 0 view .LVU329
 1105 006c 84F84230 		strb	r3, [r4, #66]
 1106              		.loc 1 575 3 is_stmt 1 view .LVU330
 1107              		.loc 1 575 22 is_stmt 0 view .LVU331
 1108 0070 6063     		str	r0, [r4, #52]
 1109              		.loc 1 577 3 is_stmt 1 view .LVU332
 1110              		.loc 1 578 1 is_stmt 0 view .LVU333
 1111 0072 38BD     		pop	{r3, r4, r5, pc}
 1112              	.LVL83:
 1113              	.L66:
 1114              		.loc 1 529 5 is_stmt 1 view .LVU334
 1115              		.loc 1 529 17 is_stmt 0 view .LVU335
 1116 0074 80F84030 		strb	r3, [r0, #64]
 1117              		.loc 1 543 5 is_stmt 1 view .LVU336
 1118 0078 034B     		ldr	r3, .L67+4
 1119 007a 9847     		blx	r3
 1120              	.LVL84:
 1121              		.loc 1 543 5 is_stmt 0 view .LVU337
 1122 007c C9E7     		b	.L60
 1123              	.LVL85:
 1124              	.L61:
 1125              	.LCFI7:
 1126              		.cfi_def_cfa_offset 0
 1127              		.cfi_restore 3
 1128              		.cfi_restore 4
 1129              		.cfi_restore 5
 1130              		.cfi_restore 14
 1131              		.loc 1 513 12 view .LVU338
 1132 007e 0120     		movs	r0, #1
 1133              	.LVL86:
 1134              		.loc 1 578 1 view .LVU339
 1135 0080 7047     		bx	lr
 1136              	.L68:
 1137 0082 00BF     		.align	2
 1138              	.L67:
 1139 0084 00000000 		.word	UART_SetConfig
 1140 0088 00000000 		.word	HAL_UART_MspInit
 1141              		.cfi_endproc
 1142              	.LFE67:
 1144              		.section	.text.HAL_MultiProcessor_Init,"ax",%progbits
 1145              		.align	1
 1146              		.global	HAL_MultiProcessor_Init
 1147              		.syntax unified
 1148              		.thumb
 1149              		.thumb_func
 1150              		.fpu softvfp
 1152              	HAL_MultiProcessor_Init:
 1153              	.LVL87:
 1154              	.LFB68:
 1155              		.loc 1 593 1 is_stmt 1 view -0
 1156              		.cfi_startproc
 1157              		@ args = 0, pretend = 0, frame = 0
ARM GAS  C:\Users\HP\AppData\Local\Temp\cc3vbRST.s 			page 21


 1158              		@ frame_needed = 0, uses_anonymous_args = 0
 1159              		.loc 1 595 3 view .LVU341
 1160              		.loc 1 595 6 is_stmt 0 view .LVU342
 1161 0000 0028     		cmp	r0, #0
 1162 0002 41D0     		beq	.L72
 1163              		.loc 1 593 1 view .LVU343
 1164 0004 70B5     		push	{r4, r5, r6, lr}
 1165              	.LCFI8:
 1166              		.cfi_def_cfa_offset 16
 1167              		.cfi_offset 4, -16
 1168              		.cfi_offset 5, -12
 1169              		.cfi_offset 6, -8
 1170              		.cfi_offset 14, -4
 1171 0006 0D46     		mov	r5, r1
 1172 0008 1646     		mov	r6, r2
 1173 000a 0446     		mov	r4, r0
 1174              		.loc 1 601 3 is_stmt 1 view .LVU344
 1175              		.loc 1 604 3 view .LVU345
 1176              		.loc 1 605 3 view .LVU346
 1177              		.loc 1 606 3 view .LVU347
 1178              		.loc 1 611 3 view .LVU348
 1179              		.loc 1 611 12 is_stmt 0 view .LVU349
 1180 000c 90F84130 		ldrb	r3, [r0, #65]	@ zero_extendqisi2
 1181              		.loc 1 611 6 view .LVU350
 1182 0010 002B     		cmp	r3, #0
 1183 0012 34D0     		beq	.L77
 1184              	.LVL88:
 1185              	.L71:
 1186              		.loc 1 632 3 is_stmt 1 view .LVU351
 1187              		.loc 1 632 17 is_stmt 0 view .LVU352
 1188 0014 2423     		movs	r3, #36
 1189 0016 84F84130 		strb	r3, [r4, #65]
 1190              		.loc 1 635 3 is_stmt 1 view .LVU353
 1191 001a 2268     		ldr	r2, [r4]
 1192 001c D368     		ldr	r3, [r2, #12]
 1193 001e 23F40053 		bic	r3, r3, #8192
 1194 0022 D360     		str	r3, [r2, #12]
 1195              		.loc 1 638 3 view .LVU354
 1196 0024 2046     		mov	r0, r4
 1197 0026 194B     		ldr	r3, .L78
 1198 0028 9847     		blx	r3
 1199              	.LVL89:
 1200              		.loc 1 643 3 view .LVU355
 1201 002a 2268     		ldr	r2, [r4]
 1202 002c 1369     		ldr	r3, [r2, #16]
 1203 002e 23F49043 		bic	r3, r3, #18432
 1204 0032 1361     		str	r3, [r2, #16]
 1205              		.loc 1 644 3 view .LVU356
 1206 0034 2268     		ldr	r2, [r4]
 1207 0036 5369     		ldr	r3, [r2, #20]
 1208 0038 23F02A03 		bic	r3, r3, #42
 1209 003c 5361     		str	r3, [r2, #20]
 1210              		.loc 1 647 3 view .LVU357
 1211 003e 2268     		ldr	r2, [r4]
 1212 0040 1369     		ldr	r3, [r2, #16]
 1213 0042 23F00F03 		bic	r3, r3, #15
 1214 0046 1361     		str	r3, [r2, #16]
ARM GAS  C:\Users\HP\AppData\Local\Temp\cc3vbRST.s 			page 22


 1215              		.loc 1 648 3 view .LVU358
 1216 0048 2368     		ldr	r3, [r4]
 1217 004a 1969     		ldr	r1, [r3, #16]
 1218 004c 0D43     		orrs	r5, r5, r1
 1219 004e 1D61     		str	r5, [r3, #16]
 1220              		.loc 1 651 3 view .LVU359
 1221 0050 2268     		ldr	r2, [r4]
 1222 0052 D368     		ldr	r3, [r2, #12]
 1223 0054 23F40063 		bic	r3, r3, #2048
 1224 0058 D360     		str	r3, [r2, #12]
 1225              		.loc 1 652 3 view .LVU360
 1226 005a 2368     		ldr	r3, [r4]
 1227 005c DA68     		ldr	r2, [r3, #12]
 1228 005e 1643     		orrs	r6, r6, r2
 1229              	.LVL90:
 1230              		.loc 1 652 3 is_stmt 0 view .LVU361
 1231 0060 DE60     		str	r6, [r3, #12]
 1232              		.loc 1 655 3 is_stmt 1 view .LVU362
 1233 0062 2268     		ldr	r2, [r4]
 1234 0064 D368     		ldr	r3, [r2, #12]
 1235 0066 43F40053 		orr	r3, r3, #8192
 1236 006a D360     		str	r3, [r2, #12]
 1237              		.loc 1 658 3 view .LVU363
 1238              		.loc 1 658 20 is_stmt 0 view .LVU364
 1239 006c 0020     		movs	r0, #0
 1240 006e 6064     		str	r0, [r4, #68]
 1241              		.loc 1 659 3 is_stmt 1 view .LVU365
 1242              		.loc 1 659 17 is_stmt 0 view .LVU366
 1243 0070 2023     		movs	r3, #32
 1244 0072 84F84130 		strb	r3, [r4, #65]
 1245              		.loc 1 660 3 is_stmt 1 view .LVU367
 1246              		.loc 1 660 18 is_stmt 0 view .LVU368
 1247 0076 84F84230 		strb	r3, [r4, #66]
 1248              		.loc 1 661 3 is_stmt 1 view .LVU369
 1249              		.loc 1 661 22 is_stmt 0 view .LVU370
 1250 007a 6063     		str	r0, [r4, #52]
 1251              		.loc 1 663 3 is_stmt 1 view .LVU371
 1252              		.loc 1 664 1 is_stmt 0 view .LVU372
 1253 007c 70BD     		pop	{r4, r5, r6, pc}
 1254              	.LVL91:
 1255              	.L77:
 1256              		.loc 1 614 5 is_stmt 1 view .LVU373
 1257              		.loc 1 614 17 is_stmt 0 view .LVU374
 1258 007e 80F84030 		strb	r3, [r0, #64]
 1259              		.loc 1 628 5 is_stmt 1 view .LVU375
 1260 0082 034B     		ldr	r3, .L78+4
 1261 0084 9847     		blx	r3
 1262              	.LVL92:
 1263              		.loc 1 628 5 is_stmt 0 view .LVU376
 1264 0086 C5E7     		b	.L71
 1265              	.LVL93:
 1266              	.L72:
 1267              	.LCFI9:
 1268              		.cfi_def_cfa_offset 0
 1269              		.cfi_restore 4
 1270              		.cfi_restore 5
 1271              		.cfi_restore 6
ARM GAS  C:\Users\HP\AppData\Local\Temp\cc3vbRST.s 			page 23


 1272              		.cfi_restore 14
 1273              		.loc 1 597 12 view .LVU377
 1274 0088 0120     		movs	r0, #1
 1275              	.LVL94:
 1276              		.loc 1 664 1 view .LVU378
 1277 008a 7047     		bx	lr
 1278              	.L79:
 1279              		.align	2
 1280              	.L78:
 1281 008c 00000000 		.word	UART_SetConfig
 1282 0090 00000000 		.word	HAL_UART_MspInit
 1283              		.cfi_endproc
 1284              	.LFE68:
 1286              		.section	.text.HAL_UART_MspDeInit,"ax",%progbits
 1287              		.align	1
 1288              		.weak	HAL_UART_MspDeInit
 1289              		.syntax unified
 1290              		.thumb
 1291              		.thumb_func
 1292              		.fpu softvfp
 1294              	HAL_UART_MspDeInit:
 1295              	.LVL95:
 1296              	.LFB71:
 1297              		.loc 1 734 1 is_stmt 1 view -0
 1298              		.cfi_startproc
 1299              		@ args = 0, pretend = 0, frame = 0
 1300              		@ frame_needed = 0, uses_anonymous_args = 0
 1301              		@ link register save eliminated.
 1302              		.loc 1 736 3 view .LVU380
 1303              		.loc 1 740 1 is_stmt 0 view .LVU381
 1304 0000 7047     		bx	lr
 1305              		.cfi_endproc
 1306              	.LFE71:
 1308              		.section	.text.HAL_UART_DeInit,"ax",%progbits
 1309              		.align	1
 1310              		.global	HAL_UART_DeInit
 1311              		.syntax unified
 1312              		.thumb
 1313              		.thumb_func
 1314              		.fpu softvfp
 1316              	HAL_UART_DeInit:
 1317              	.LVL96:
 1318              	.LFB69:
 1319              		.loc 1 673 1 is_stmt 1 view -0
 1320              		.cfi_startproc
 1321              		@ args = 0, pretend = 0, frame = 0
 1322              		@ frame_needed = 0, uses_anonymous_args = 0
 1323              		.loc 1 675 3 view .LVU383
 1324              		.loc 1 675 6 is_stmt 0 view .LVU384
 1325 0000 B0B1     		cbz	r0, .L83
 1326              		.loc 1 673 1 view .LVU385
 1327 0002 10B5     		push	{r4, lr}
 1328              	.LCFI10:
 1329              		.cfi_def_cfa_offset 8
 1330              		.cfi_offset 4, -8
 1331              		.cfi_offset 14, -4
 1332 0004 0446     		mov	r4, r0
ARM GAS  C:\Users\HP\AppData\Local\Temp\cc3vbRST.s 			page 24


 1333              		.loc 1 681 3 is_stmt 1 view .LVU386
 1334              		.loc 1 683 3 view .LVU387
 1335              		.loc 1 683 17 is_stmt 0 view .LVU388
 1336 0006 2423     		movs	r3, #36
 1337 0008 80F84130 		strb	r3, [r0, #65]
 1338              		.loc 1 686 3 is_stmt 1 view .LVU389
 1339 000c 0268     		ldr	r2, [r0]
 1340 000e D368     		ldr	r3, [r2, #12]
 1341 0010 23F40053 		bic	r3, r3, #8192
 1342 0014 D360     		str	r3, [r2, #12]
 1343              		.loc 1 697 3 view .LVU390
 1344 0016 074B     		ldr	r3, .L88
 1345 0018 9847     		blx	r3
 1346              	.LVL97:
 1347              		.loc 1 700 3 view .LVU391
 1348              		.loc 1 700 20 is_stmt 0 view .LVU392
 1349 001a 0020     		movs	r0, #0
 1350 001c 6064     		str	r0, [r4, #68]
 1351              		.loc 1 701 3 is_stmt 1 view .LVU393
 1352              		.loc 1 701 17 is_stmt 0 view .LVU394
 1353 001e 84F84100 		strb	r0, [r4, #65]
 1354              		.loc 1 702 3 is_stmt 1 view .LVU395
 1355              		.loc 1 702 18 is_stmt 0 view .LVU396
 1356 0022 84F84200 		strb	r0, [r4, #66]
 1357              		.loc 1 703 3 is_stmt 1 view .LVU397
 1358              		.loc 1 703 24 is_stmt 0 view .LVU398
 1359 0026 2063     		str	r0, [r4, #48]
 1360              		.loc 1 704 3 is_stmt 1 view .LVU399
 1361              		.loc 1 704 22 is_stmt 0 view .LVU400
 1362 0028 6063     		str	r0, [r4, #52]
 1363              		.loc 1 707 3 is_stmt 1 view .LVU401
 1364              		.loc 1 707 3 view .LVU402
 1365 002a 84F84000 		strb	r0, [r4, #64]
 1366              		.loc 1 707 3 view .LVU403
 1367              		.loc 1 709 3 view .LVU404
 1368              		.loc 1 710 1 is_stmt 0 view .LVU405
 1369 002e 10BD     		pop	{r4, pc}
 1370              	.LVL98:
 1371              	.L83:
 1372              	.LCFI11:
 1373              		.cfi_def_cfa_offset 0
 1374              		.cfi_restore 4
 1375              		.cfi_restore 14
 1376              		.loc 1 677 12 view .LVU406
 1377 0030 0120     		movs	r0, #1
 1378              	.LVL99:
 1379              		.loc 1 710 1 view .LVU407
 1380 0032 7047     		bx	lr
 1381              	.L89:
 1382              		.align	2
 1383              	.L88:
 1384 0034 00000000 		.word	HAL_UART_MspDeInit
 1385              		.cfi_endproc
 1386              	.LFE69:
 1388              		.section	.text.HAL_UART_Transmit,"ax",%progbits
 1389              		.align	1
 1390              		.global	HAL_UART_Transmit
ARM GAS  C:\Users\HP\AppData\Local\Temp\cc3vbRST.s 			page 25


 1391              		.syntax unified
 1392              		.thumb
 1393              		.thumb_func
 1394              		.fpu softvfp
 1396              	HAL_UART_Transmit:
 1397              	.LVL100:
 1398              	.LFB72:
 1399              		.loc 1 1139 1 is_stmt 1 view -0
 1400              		.cfi_startproc
 1401              		@ args = 0, pretend = 0, frame = 0
 1402              		@ frame_needed = 0, uses_anonymous_args = 0
 1403              		.loc 1 1139 1 is_stmt 0 view .LVU409
 1404 0000 2DE9F043 		push	{r4, r5, r6, r7, r8, r9, lr}
 1405              	.LCFI12:
 1406              		.cfi_def_cfa_offset 28
 1407              		.cfi_offset 4, -28
 1408              		.cfi_offset 5, -24
 1409              		.cfi_offset 6, -20
 1410              		.cfi_offset 7, -16
 1411              		.cfi_offset 8, -12
 1412              		.cfi_offset 9, -8
 1413              		.cfi_offset 14, -4
 1414 0004 83B0     		sub	sp, sp, #12
 1415              	.LCFI13:
 1416              		.cfi_def_cfa_offset 40
 1417 0006 1E46     		mov	r6, r3
 1418              		.loc 1 1140 3 is_stmt 1 view .LVU410
 1419              		.loc 1 1141 3 view .LVU411
 1420              		.loc 1 1142 3 view .LVU412
 1421              	.LVL101:
 1422              		.loc 1 1145 3 view .LVU413
 1423              		.loc 1 1145 12 is_stmt 0 view .LVU414
 1424 0008 90F84130 		ldrb	r3, [r0, #65]	@ zero_extendqisi2
 1425              	.LVL102:
 1426              		.loc 1 1145 12 view .LVU415
 1427 000c DBB2     		uxtb	r3, r3
 1428              		.loc 1 1145 6 view .LVU416
 1429 000e 202B     		cmp	r3, #32
 1430 0010 4CD1     		bne	.L97
 1431 0012 0446     		mov	r4, r0
 1432 0014 0D46     		mov	r5, r1
 1433 0016 9046     		mov	r8, r2
 1434              		.loc 1 1147 5 is_stmt 1 view .LVU417
 1435              		.loc 1 1147 8 is_stmt 0 view .LVU418
 1436 0018 0029     		cmp	r1, #0
 1437 001a 4BD0     		beq	.L98
 1438              		.loc 1 1147 25 discriminator 1 view .LVU419
 1439 001c 0AB9     		cbnz	r2, .L105
 1440              		.loc 1 1149 15 view .LVU420
 1441 001e 0120     		movs	r0, #1
 1442              	.LVL103:
 1443              		.loc 1 1149 15 view .LVU421
 1444 0020 45E0     		b	.L91
 1445              	.LVL104:
 1446              	.L105:
 1447              		.loc 1 1152 5 is_stmt 1 view .LVU422
 1448              		.loc 1 1152 22 is_stmt 0 view .LVU423
ARM GAS  C:\Users\HP\AppData\Local\Temp\cc3vbRST.s 			page 26


 1449 0022 0023     		movs	r3, #0
 1450 0024 4364     		str	r3, [r0, #68]
 1451              		.loc 1 1153 5 is_stmt 1 view .LVU424
 1452              		.loc 1 1153 19 is_stmt 0 view .LVU425
 1453 0026 2123     		movs	r3, #33
 1454 0028 80F84130 		strb	r3, [r0, #65]
 1455              		.loc 1 1156 5 is_stmt 1 view .LVU426
 1456              		.loc 1 1156 17 is_stmt 0 view .LVU427
 1457 002c 244B     		ldr	r3, .L109
 1458 002e 9847     		blx	r3
 1459              	.LVL105:
 1460              		.loc 1 1156 17 view .LVU428
 1461 0030 0746     		mov	r7, r0
 1462              	.LVL106:
 1463              		.loc 1 1158 5 is_stmt 1 view .LVU429
 1464              		.loc 1 1158 23 is_stmt 0 view .LVU430
 1465 0032 A4F82480 		strh	r8, [r4, #36]	@ movhi
 1466              		.loc 1 1159 5 is_stmt 1 view .LVU431
 1467              		.loc 1 1159 24 is_stmt 0 view .LVU432
 1468 0036 A4F82680 		strh	r8, [r4, #38]	@ movhi
 1469              		.loc 1 1162 5 is_stmt 1 view .LVU433
 1470              		.loc 1 1162 21 is_stmt 0 view .LVU434
 1471 003a A368     		ldr	r3, [r4, #8]
 1472              		.loc 1 1162 8 view .LVU435
 1473 003c B3F5805F 		cmp	r3, #4096
 1474 0040 02D0     		beq	.L106
 1475              		.loc 1 1170 19 view .LVU436
 1476 0042 4FF00008 		mov	r8, #0
 1477 0046 0FE0     		b	.L95
 1478              	.L106:
 1479              		.loc 1 1162 71 discriminator 1 view .LVU437
 1480 0048 2369     		ldr	r3, [r4, #16]
 1481              		.loc 1 1162 56 discriminator 1 view .LVU438
 1482 004a 03B3     		cbz	r3, .L101
 1483              		.loc 1 1170 19 view .LVU439
 1484 004c 4FF00008 		mov	r8, #0
 1485 0050 0AE0     		b	.L95
 1486              	.LVL107:
 1487              	.L108:
 1488              		.loc 1 1181 9 is_stmt 1 view .LVU440
 1489              		.loc 1 1181 42 is_stmt 0 view .LVU441
 1490 0052 38F8023B 		ldrh	r3, [r8], #2
 1491              	.LVL108:
 1492              		.loc 1 1181 14 view .LVU442
 1493 0056 2268     		ldr	r2, [r4]
 1494              		.loc 1 1181 31 view .LVU443
 1495 0058 C3F30803 		ubfx	r3, r3, #0, #9
 1496              		.loc 1 1181 29 view .LVU444
 1497 005c 5360     		str	r3, [r2, #4]
 1498              		.loc 1 1182 9 is_stmt 1 view .LVU445
 1499              	.LVL109:
 1500              	.L94:
 1501              		.loc 1 1189 7 view .LVU446
 1502              		.loc 1 1189 12 is_stmt 0 view .LVU447
 1503 005e E28C     		ldrh	r2, [r4, #38]
 1504 0060 92B2     		uxth	r2, r2
 1505              		.loc 1 1189 25 view .LVU448
ARM GAS  C:\Users\HP\AppData\Local\Temp\cc3vbRST.s 			page 27


 1506 0062 013A     		subs	r2, r2, #1
 1507 0064 92B2     		uxth	r2, r2
 1508 0066 E284     		strh	r2, [r4, #38]	@ movhi
 1509              	.LVL110:
 1510              	.L95:
 1511              		.loc 1 1173 11 is_stmt 1 view .LVU449
 1512              		.loc 1 1173 17 is_stmt 0 view .LVU450
 1513 0068 E38C     		ldrh	r3, [r4, #38]
 1514 006a 9BB2     		uxth	r3, r3
 1515              		.loc 1 1173 11 view .LVU451
 1516 006c 93B1     		cbz	r3, .L107
 1517              		.loc 1 1175 7 is_stmt 1 view .LVU452
 1518              		.loc 1 1175 11 is_stmt 0 view .LVU453
 1519 006e 0096     		str	r6, [sp]
 1520 0070 3B46     		mov	r3, r7
 1521 0072 0022     		movs	r2, #0
 1522 0074 8021     		movs	r1, #128
 1523 0076 2046     		mov	r0, r4
 1524 0078 DFF84890 		ldr	r9, .L109+4
 1525 007c C847     		blx	r9
 1526              	.LVL111:
 1527              		.loc 1 1175 10 view .LVU454
 1528 007e D8B9     		cbnz	r0, .L102
 1529              		.loc 1 1179 7 is_stmt 1 view .LVU455
 1530              		.loc 1 1179 10 is_stmt 0 view .LVU456
 1531 0080 002D     		cmp	r5, #0
 1532 0082 E6D0     		beq	.L108
 1533              		.loc 1 1186 9 is_stmt 1 view .LVU457
 1534              		.loc 1 1186 41 is_stmt 0 view .LVU458
 1535 0084 15F8012B 		ldrb	r2, [r5], #1	@ zero_extendqisi2
 1536              	.LVL112:
 1537              		.loc 1 1186 14 view .LVU459
 1538 0088 2368     		ldr	r3, [r4]
 1539              		.loc 1 1186 29 view .LVU460
 1540 008a 5A60     		str	r2, [r3, #4]
 1541              		.loc 1 1187 9 is_stmt 1 view .LVU461
 1542              	.LVL113:
 1543              		.loc 1 1187 9 is_stmt 0 view .LVU462
 1544 008c E7E7     		b	.L94
 1545              	.LVL114:
 1546              	.L101:
 1547              		.loc 1 1165 19 view .LVU463
 1548 008e A846     		mov	r8, r5
 1549              		.loc 1 1164 19 view .LVU464
 1550 0090 0025     		movs	r5, #0
 1551              	.LVL115:
 1552              		.loc 1 1164 19 view .LVU465
 1553 0092 E9E7     		b	.L95
 1554              	.LVL116:
 1555              	.L107:
 1556              		.loc 1 1192 5 is_stmt 1 view .LVU466
 1557              		.loc 1 1192 9 is_stmt 0 view .LVU467
 1558 0094 0096     		str	r6, [sp]
 1559 0096 3B46     		mov	r3, r7
 1560 0098 0022     		movs	r2, #0
 1561 009a 4021     		movs	r1, #64
 1562 009c 2046     		mov	r0, r4
ARM GAS  C:\Users\HP\AppData\Local\Temp\cc3vbRST.s 			page 28


 1563 009e 094D     		ldr	r5, .L109+4
 1564              	.LVL117:
 1565              		.loc 1 1192 9 view .LVU468
 1566 00a0 A847     		blx	r5
 1567              	.LVL118:
 1568              		.loc 1 1192 8 view .LVU469
 1569 00a2 58B9     		cbnz	r0, .L103
 1570              		.loc 1 1198 5 is_stmt 1 view .LVU470
 1571              		.loc 1 1198 19 is_stmt 0 view .LVU471
 1572 00a4 2023     		movs	r3, #32
 1573 00a6 84F84130 		strb	r3, [r4, #65]
 1574              		.loc 1 1200 5 is_stmt 1 view .LVU472
 1575              		.loc 1 1200 12 is_stmt 0 view .LVU473
 1576 00aa 00E0     		b	.L91
 1577              	.LVL119:
 1578              	.L97:
 1579              		.loc 1 1204 12 view .LVU474
 1580 00ac 0220     		movs	r0, #2
 1581              	.LVL120:
 1582              	.L91:
 1583              		.loc 1 1206 1 view .LVU475
 1584 00ae 03B0     		add	sp, sp, #12
 1585              	.LCFI14:
 1586              		.cfi_remember_state
 1587              		.cfi_def_cfa_offset 28
 1588              		@ sp needed
 1589 00b0 BDE8F083 		pop	{r4, r5, r6, r7, r8, r9, pc}
 1590              	.LVL121:
 1591              	.L98:
 1592              	.LCFI15:
 1593              		.cfi_restore_state
 1594              		.loc 1 1149 15 view .LVU476
 1595 00b4 0120     		movs	r0, #1
 1596              	.LVL122:
 1597              		.loc 1 1149 15 view .LVU477
 1598 00b6 FAE7     		b	.L91
 1599              	.LVL123:
 1600              	.L102:
 1601              		.loc 1 1177 16 view .LVU478
 1602 00b8 0320     		movs	r0, #3
 1603 00ba F8E7     		b	.L91
 1604              	.LVL124:
 1605              	.L103:
 1606              		.loc 1 1194 14 view .LVU479
 1607 00bc 0320     		movs	r0, #3
 1608 00be F6E7     		b	.L91
 1609              	.L110:
 1610              		.align	2
 1611              	.L109:
 1612 00c0 00000000 		.word	HAL_GetTick
 1613 00c4 00000000 		.word	UART_WaitOnFlagUntilTimeout
 1614              		.cfi_endproc
 1615              	.LFE72:
 1617              		.section	.text.HAL_UART_Receive,"ax",%progbits
 1618              		.align	1
 1619              		.global	HAL_UART_Receive
 1620              		.syntax unified
ARM GAS  C:\Users\HP\AppData\Local\Temp\cc3vbRST.s 			page 29


 1621              		.thumb
 1622              		.thumb_func
 1623              		.fpu softvfp
 1625              	HAL_UART_Receive:
 1626              	.LVL125:
 1627              	.LFB73:
 1628              		.loc 1 1221 1 is_stmt 1 view -0
 1629              		.cfi_startproc
 1630              		@ args = 0, pretend = 0, frame = 0
 1631              		@ frame_needed = 0, uses_anonymous_args = 0
 1632              		.loc 1 1221 1 is_stmt 0 view .LVU481
 1633 0000 2DE9F043 		push	{r4, r5, r6, r7, r8, r9, lr}
 1634              	.LCFI16:
 1635              		.cfi_def_cfa_offset 28
 1636              		.cfi_offset 4, -28
 1637              		.cfi_offset 5, -24
 1638              		.cfi_offset 6, -20
 1639              		.cfi_offset 7, -16
 1640              		.cfi_offset 8, -12
 1641              		.cfi_offset 9, -8
 1642              		.cfi_offset 14, -4
 1643 0004 83B0     		sub	sp, sp, #12
 1644              	.LCFI17:
 1645              		.cfi_def_cfa_offset 40
 1646 0006 1E46     		mov	r6, r3
 1647              		.loc 1 1222 3 is_stmt 1 view .LVU482
 1648              		.loc 1 1223 3 view .LVU483
 1649              		.loc 1 1224 3 view .LVU484
 1650              	.LVL126:
 1651              		.loc 1 1227 3 view .LVU485
 1652              		.loc 1 1227 12 is_stmt 0 view .LVU486
 1653 0008 90F84230 		ldrb	r3, [r0, #66]	@ zero_extendqisi2
 1654              	.LVL127:
 1655              		.loc 1 1227 12 view .LVU487
 1656 000c DBB2     		uxtb	r3, r3
 1657              		.loc 1 1227 6 view .LVU488
 1658 000e 202B     		cmp	r3, #32
 1659 0010 54D1     		bne	.L121
 1660 0012 0446     		mov	r4, r0
 1661 0014 0D46     		mov	r5, r1
 1662 0016 9046     		mov	r8, r2
 1663              		.loc 1 1229 5 is_stmt 1 view .LVU489
 1664              		.loc 1 1229 8 is_stmt 0 view .LVU490
 1665 0018 0029     		cmp	r1, #0
 1666 001a 53D0     		beq	.L122
 1667              		.loc 1 1229 25 discriminator 1 view .LVU491
 1668 001c 0AB9     		cbnz	r2, .L128
 1669              		.loc 1 1231 15 view .LVU492
 1670 001e 0120     		movs	r0, #1
 1671              	.LVL128:
 1672              		.loc 1 1231 15 view .LVU493
 1673 0020 4DE0     		b	.L112
 1674              	.LVL129:
 1675              	.L128:
 1676              		.loc 1 1234 5 is_stmt 1 view .LVU494
 1677              		.loc 1 1234 22 is_stmt 0 view .LVU495
 1678 0022 0023     		movs	r3, #0
ARM GAS  C:\Users\HP\AppData\Local\Temp\cc3vbRST.s 			page 30


 1679 0024 4364     		str	r3, [r0, #68]
 1680              		.loc 1 1235 5 is_stmt 1 view .LVU496
 1681              		.loc 1 1235 20 is_stmt 0 view .LVU497
 1682 0026 2222     		movs	r2, #34
 1683              	.LVL130:
 1684              		.loc 1 1235 20 view .LVU498
 1685 0028 80F84220 		strb	r2, [r0, #66]
 1686              		.loc 1 1236 5 is_stmt 1 view .LVU499
 1687              		.loc 1 1236 26 is_stmt 0 view .LVU500
 1688 002c 0363     		str	r3, [r0, #48]
 1689              		.loc 1 1239 5 is_stmt 1 view .LVU501
 1690              		.loc 1 1239 17 is_stmt 0 view .LVU502
 1691 002e 274B     		ldr	r3, .L132
 1692 0030 9847     		blx	r3
 1693              	.LVL131:
 1694              		.loc 1 1239 17 view .LVU503
 1695 0032 0746     		mov	r7, r0
 1696              	.LVL132:
 1697              		.loc 1 1241 5 is_stmt 1 view .LVU504
 1698              		.loc 1 1241 23 is_stmt 0 view .LVU505
 1699 0034 A4F82C80 		strh	r8, [r4, #44]	@ movhi
 1700              		.loc 1 1242 5 is_stmt 1 view .LVU506
 1701              		.loc 1 1242 24 is_stmt 0 view .LVU507
 1702 0038 A4F82E80 		strh	r8, [r4, #46]	@ movhi
 1703              		.loc 1 1245 5 is_stmt 1 view .LVU508
 1704              		.loc 1 1245 21 is_stmt 0 view .LVU509
 1705 003c A368     		ldr	r3, [r4, #8]
 1706              		.loc 1 1245 8 view .LVU510
 1707 003e B3F5805F 		cmp	r3, #4096
 1708 0042 02D0     		beq	.L129
 1709              		.loc 1 1253 19 view .LVU511
 1710 0044 4FF00008 		mov	r8, #0
 1711 0048 17E0     		b	.L114
 1712              	.L129:
 1713              		.loc 1 1245 71 discriminator 1 view .LVU512
 1714 004a 2369     		ldr	r3, [r4, #16]
 1715              		.loc 1 1245 56 discriminator 1 view .LVU513
 1716 004c 13B1     		cbz	r3, .L125
 1717              		.loc 1 1253 19 view .LVU514
 1718 004e 4FF00008 		mov	r8, #0
 1719 0052 12E0     		b	.L114
 1720              	.L125:
 1721              		.loc 1 1248 19 view .LVU515
 1722 0054 A846     		mov	r8, r5
 1723              		.loc 1 1247 19 view .LVU516
 1724 0056 0025     		movs	r5, #0
 1725              	.LVL133:
 1726              		.loc 1 1247 19 view .LVU517
 1727 0058 0FE0     		b	.L114
 1728              	.LVL134:
 1729              	.L131:
 1730              		.loc 1 1265 9 is_stmt 1 view .LVU518
 1731              		.loc 1 1265 40 is_stmt 0 view .LVU519
 1732 005a 2368     		ldr	r3, [r4]
 1733              		.loc 1 1265 50 view .LVU520
 1734 005c 5B68     		ldr	r3, [r3, #4]
 1735              		.loc 1 1265 24 view .LVU521
ARM GAS  C:\Users\HP\AppData\Local\Temp\cc3vbRST.s 			page 31


 1736 005e C3F30803 		ubfx	r3, r3, #0, #9
 1737              		.loc 1 1265 22 view .LVU522
 1738 0062 28F8023B 		strh	r3, [r8], #2	@ movhi
 1739              	.LVL135:
 1740              		.loc 1 1266 9 is_stmt 1 view .LVU523
 1741              		.loc 1 1266 9 is_stmt 0 view .LVU524
 1742 0066 03E0     		b	.L116
 1743              	.L117:
 1744              		.loc 1 1272 11 is_stmt 1 view .LVU525
 1745              		.loc 1 1272 40 is_stmt 0 view .LVU526
 1746 0068 2368     		ldr	r3, [r4]
 1747              		.loc 1 1272 50 view .LVU527
 1748 006a 5B68     		ldr	r3, [r3, #4]
 1749              		.loc 1 1272 23 view .LVU528
 1750 006c 2B70     		strb	r3, [r5]
 1751              	.L119:
 1752              		.loc 1 1278 9 is_stmt 1 view .LVU529
 1753              		.loc 1 1278 19 is_stmt 0 view .LVU530
 1754 006e 0135     		adds	r5, r5, #1
 1755              	.LVL136:
 1756              	.L116:
 1757              		.loc 1 1280 7 is_stmt 1 view .LVU531
 1758              		.loc 1 1280 12 is_stmt 0 view .LVU532
 1759 0070 E28D     		ldrh	r2, [r4, #46]
 1760 0072 92B2     		uxth	r2, r2
 1761              		.loc 1 1280 25 view .LVU533
 1762 0074 013A     		subs	r2, r2, #1
 1763 0076 92B2     		uxth	r2, r2
 1764 0078 E285     		strh	r2, [r4, #46]	@ movhi
 1765              	.LVL137:
 1766              	.L114:
 1767              		.loc 1 1257 11 is_stmt 1 view .LVU534
 1768              		.loc 1 1257 17 is_stmt 0 view .LVU535
 1769 007a E38D     		ldrh	r3, [r4, #46]
 1770 007c 9BB2     		uxth	r3, r3
 1771              		.loc 1 1257 11 view .LVU536
 1772 007e C3B1     		cbz	r3, .L130
 1773              		.loc 1 1259 7 is_stmt 1 view .LVU537
 1774              		.loc 1 1259 11 is_stmt 0 view .LVU538
 1775 0080 0096     		str	r6, [sp]
 1776 0082 3B46     		mov	r3, r7
 1777 0084 0022     		movs	r2, #0
 1778 0086 2021     		movs	r1, #32
 1779 0088 2046     		mov	r0, r4
 1780 008a DFF84490 		ldr	r9, .L132+4
 1781 008e C847     		blx	r9
 1782              	.LVL138:
 1783              		.loc 1 1259 10 view .LVU539
 1784 0090 D0B9     		cbnz	r0, .L126
 1785              		.loc 1 1263 7 is_stmt 1 view .LVU540
 1786              		.loc 1 1263 10 is_stmt 0 view .LVU541
 1787 0092 002D     		cmp	r5, #0
 1788 0094 E1D0     		beq	.L131
 1789              		.loc 1 1270 9 is_stmt 1 view .LVU542
 1790              		.loc 1 1270 25 is_stmt 0 view .LVU543
 1791 0096 A368     		ldr	r3, [r4, #8]
 1792              		.loc 1 1270 12 view .LVU544
ARM GAS  C:\Users\HP\AppData\Local\Temp\cc3vbRST.s 			page 32


 1793 0098 B3F5805F 		cmp	r3, #4096
 1794 009c E4D0     		beq	.L117
 1795              		.loc 1 1270 60 discriminator 1 view .LVU545
 1796 009e 13B9     		cbnz	r3, .L118
 1797              		.loc 1 1270 126 discriminator 2 view .LVU546
 1798 00a0 2369     		ldr	r3, [r4, #16]
 1799              		.loc 1 1270 111 discriminator 2 view .LVU547
 1800 00a2 002B     		cmp	r3, #0
 1801 00a4 E0D0     		beq	.L117
 1802              	.L118:
 1803              		.loc 1 1276 11 is_stmt 1 view .LVU548
 1804              		.loc 1 1276 40 is_stmt 0 view .LVU549
 1805 00a6 2368     		ldr	r3, [r4]
 1806              		.loc 1 1276 50 view .LVU550
 1807 00a8 5B68     		ldr	r3, [r3, #4]
 1808              		.loc 1 1276 25 view .LVU551
 1809 00aa 03F07F03 		and	r3, r3, #127
 1810              		.loc 1 1276 23 view .LVU552
 1811 00ae 2B70     		strb	r3, [r5]
 1812 00b0 DDE7     		b	.L119
 1813              	.L130:
 1814              		.loc 1 1284 5 is_stmt 1 view .LVU553
 1815              		.loc 1 1284 20 is_stmt 0 view .LVU554
 1816 00b2 2023     		movs	r3, #32
 1817 00b4 84F84230 		strb	r3, [r4, #66]
 1818              		.loc 1 1286 5 is_stmt 1 view .LVU555
 1819              		.loc 1 1286 12 is_stmt 0 view .LVU556
 1820 00b8 0020     		movs	r0, #0
 1821 00ba 00E0     		b	.L112
 1822              	.LVL139:
 1823              	.L121:
 1824              		.loc 1 1290 12 view .LVU557
 1825 00bc 0220     		movs	r0, #2
 1826              	.LVL140:
 1827              	.L112:
 1828              		.loc 1 1292 1 view .LVU558
 1829 00be 03B0     		add	sp, sp, #12
 1830              	.LCFI18:
 1831              		.cfi_remember_state
 1832              		.cfi_def_cfa_offset 28
 1833              		@ sp needed
 1834 00c0 BDE8F083 		pop	{r4, r5, r6, r7, r8, r9, pc}
 1835              	.LVL141:
 1836              	.L122:
 1837              	.LCFI19:
 1838              		.cfi_restore_state
 1839              		.loc 1 1231 15 view .LVU559
 1840 00c4 0120     		movs	r0, #1
 1841              	.LVL142:
 1842              		.loc 1 1231 15 view .LVU560
 1843 00c6 FAE7     		b	.L112
 1844              	.LVL143:
 1845              	.L126:
 1846              		.loc 1 1261 16 view .LVU561
 1847 00c8 0320     		movs	r0, #3
 1848 00ca F8E7     		b	.L112
 1849              	.L133:
ARM GAS  C:\Users\HP\AppData\Local\Temp\cc3vbRST.s 			page 33


 1850              		.align	2
 1851              	.L132:
 1852 00cc 00000000 		.word	HAL_GetTick
 1853 00d0 00000000 		.word	UART_WaitOnFlagUntilTimeout
 1854              		.cfi_endproc
 1855              	.LFE73:
 1857              		.section	.text.HAL_UART_Transmit_IT,"ax",%progbits
 1858              		.align	1
 1859              		.global	HAL_UART_Transmit_IT
 1860              		.syntax unified
 1861              		.thumb
 1862              		.thumb_func
 1863              		.fpu softvfp
 1865              	HAL_UART_Transmit_IT:
 1866              	.LVL144:
 1867              	.LFB74:
 1868              		.loc 1 1306 1 is_stmt 1 view -0
 1869              		.cfi_startproc
 1870              		@ args = 0, pretend = 0, frame = 0
 1871              		@ frame_needed = 0, uses_anonymous_args = 0
 1872              		@ link register save eliminated.
 1873              		.loc 1 1308 3 view .LVU563
 1874              		.loc 1 1308 12 is_stmt 0 view .LVU564
 1875 0000 90F84130 		ldrb	r3, [r0, #65]	@ zero_extendqisi2
 1876 0004 DBB2     		uxtb	r3, r3
 1877              		.loc 1 1308 6 view .LVU565
 1878 0006 202B     		cmp	r3, #32
 1879 0008 10D1     		bne	.L136
 1880              		.loc 1 1310 5 is_stmt 1 view .LVU566
 1881              		.loc 1 1310 8 is_stmt 0 view .LVU567
 1882 000a 89B1     		cbz	r1, .L137
 1883              		.loc 1 1310 25 discriminator 1 view .LVU568
 1884 000c 92B1     		cbz	r2, .L138
 1885              		.loc 1 1315 5 is_stmt 1 view .LVU569
 1886              		.loc 1 1315 23 is_stmt 0 view .LVU570
 1887 000e 0162     		str	r1, [r0, #32]
 1888              		.loc 1 1316 5 is_stmt 1 view .LVU571
 1889              		.loc 1 1316 23 is_stmt 0 view .LVU572
 1890 0010 8284     		strh	r2, [r0, #36]	@ movhi
 1891              		.loc 1 1317 5 is_stmt 1 view .LVU573
 1892              		.loc 1 1317 24 is_stmt 0 view .LVU574
 1893 0012 C284     		strh	r2, [r0, #38]	@ movhi
 1894              		.loc 1 1319 5 is_stmt 1 view .LVU575
 1895              		.loc 1 1319 22 is_stmt 0 view .LVU576
 1896 0014 0023     		movs	r3, #0
 1897 0016 4364     		str	r3, [r0, #68]
 1898              		.loc 1 1320 5 is_stmt 1 view .LVU577
 1899              		.loc 1 1320 19 is_stmt 0 view .LVU578
 1900 0018 2122     		movs	r2, #33
 1901              	.LVL145:
 1902              		.loc 1 1320 19 view .LVU579
 1903 001a 80F84120 		strb	r2, [r0, #65]
 1904              		.loc 1 1323 5 is_stmt 1 view .LVU580
 1905 001e 0168     		ldr	r1, [r0]
 1906              	.LVL146:
 1907              		.loc 1 1323 5 is_stmt 0 view .LVU581
 1908 0020 CA68     		ldr	r2, [r1, #12]
ARM GAS  C:\Users\HP\AppData\Local\Temp\cc3vbRST.s 			page 34


 1909 0022 42F08002 		orr	r2, r2, #128
 1910 0026 CA60     		str	r2, [r1, #12]
 1911              	.LVL147:
 1912              		.loc 1 1325 5 is_stmt 1 view .LVU582
 1913              		.loc 1 1325 12 is_stmt 0 view .LVU583
 1914 0028 1846     		mov	r0, r3
 1915              	.LVL148:
 1916              		.loc 1 1325 12 view .LVU584
 1917 002a 7047     		bx	lr
 1918              	.LVL149:
 1919              	.L136:
 1920              		.loc 1 1329 12 view .LVU585
 1921 002c 0220     		movs	r0, #2
 1922              	.LVL150:
 1923              		.loc 1 1329 12 view .LVU586
 1924 002e 7047     		bx	lr
 1925              	.LVL151:
 1926              	.L137:
 1927              		.loc 1 1312 14 view .LVU587
 1928 0030 0120     		movs	r0, #1
 1929              	.LVL152:
 1930              		.loc 1 1312 14 view .LVU588
 1931 0032 7047     		bx	lr
 1932              	.LVL153:
 1933              	.L138:
 1934              		.loc 1 1312 14 view .LVU589
 1935 0034 0120     		movs	r0, #1
 1936              	.LVL154:
 1937              		.loc 1 1331 1 view .LVU590
 1938 0036 7047     		bx	lr
 1939              		.cfi_endproc
 1940              	.LFE74:
 1942              		.section	.text.HAL_UART_Transmit_DMA,"ax",%progbits
 1943              		.align	1
 1944              		.global	HAL_UART_Transmit_DMA
 1945              		.syntax unified
 1946              		.thumb
 1947              		.thumb_func
 1948              		.fpu softvfp
 1950              	HAL_UART_Transmit_DMA:
 1951              	.LVL155:
 1952              	.LFB76:
 1953              		.loc 1 1377 1 is_stmt 1 view -0
 1954              		.cfi_startproc
 1955              		@ args = 0, pretend = 0, frame = 0
 1956              		@ frame_needed = 0, uses_anonymous_args = 0
 1957              		.loc 1 1377 1 is_stmt 0 view .LVU592
 1958 0000 38B5     		push	{r3, r4, r5, lr}
 1959              	.LCFI20:
 1960              		.cfi_def_cfa_offset 16
 1961              		.cfi_offset 3, -16
 1962              		.cfi_offset 4, -12
 1963              		.cfi_offset 5, -8
 1964              		.cfi_offset 14, -4
 1965              		.loc 1 1378 3 is_stmt 1 view .LVU593
 1966              		.loc 1 1381 3 view .LVU594
 1967              		.loc 1 1381 12 is_stmt 0 view .LVU595
ARM GAS  C:\Users\HP\AppData\Local\Temp\cc3vbRST.s 			page 35


 1968 0002 90F84130 		ldrb	r3, [r0, #65]	@ zero_extendqisi2
 1969 0006 DBB2     		uxtb	r3, r3
 1970              		.loc 1 1381 6 view .LVU596
 1971 0008 202B     		cmp	r3, #32
 1972 000a 30D1     		bne	.L142
 1973 000c 0446     		mov	r4, r0
 1974              		.loc 1 1383 5 is_stmt 1 view .LVU597
 1975              		.loc 1 1383 8 is_stmt 0 view .LVU598
 1976 000e 0029     		cmp	r1, #0
 1977 0010 2FD0     		beq	.L143
 1978              		.loc 1 1383 25 discriminator 1 view .LVU599
 1979 0012 0AB9     		cbnz	r2, .L146
 1980              		.loc 1 1385 14 view .LVU600
 1981 0014 0120     		movs	r0, #1
 1982              	.LVL156:
 1983              	.L140:
 1984              		.loc 1 1424 1 view .LVU601
 1985 0016 38BD     		pop	{r3, r4, r5, pc}
 1986              	.LVL157:
 1987              	.L146:
 1988              		.loc 1 1388 5 is_stmt 1 view .LVU602
 1989              		.loc 1 1388 23 is_stmt 0 view .LVU603
 1990 0018 0162     		str	r1, [r0, #32]
 1991              		.loc 1 1389 5 is_stmt 1 view .LVU604
 1992              		.loc 1 1389 23 is_stmt 0 view .LVU605
 1993 001a 8284     		strh	r2, [r0, #36]	@ movhi
 1994              		.loc 1 1390 5 is_stmt 1 view .LVU606
 1995              		.loc 1 1390 24 is_stmt 0 view .LVU607
 1996 001c C284     		strh	r2, [r0, #38]	@ movhi
 1997              		.loc 1 1392 5 is_stmt 1 view .LVU608
 1998              		.loc 1 1392 22 is_stmt 0 view .LVU609
 1999 001e 0023     		movs	r3, #0
 2000 0020 4364     		str	r3, [r0, #68]
 2001              		.loc 1 1393 5 is_stmt 1 view .LVU610
 2002              		.loc 1 1393 19 is_stmt 0 view .LVU611
 2003 0022 2120     		movs	r0, #33
 2004              	.LVL158:
 2005              		.loc 1 1393 19 view .LVU612
 2006 0024 84F84100 		strb	r0, [r4, #65]
 2007              		.loc 1 1396 5 is_stmt 1 view .LVU613
 2008              		.loc 1 1396 10 is_stmt 0 view .LVU614
 2009 0028 A06B     		ldr	r0, [r4, #56]
 2010              		.loc 1 1396 37 view .LVU615
 2011 002a 134D     		ldr	r5, .L147
 2012 002c 8562     		str	r5, [r0, #40]
 2013              		.loc 1 1399 5 is_stmt 1 view .LVU616
 2014              		.loc 1 1399 10 is_stmt 0 view .LVU617
 2015 002e A06B     		ldr	r0, [r4, #56]
 2016              		.loc 1 1399 41 view .LVU618
 2017 0030 124D     		ldr	r5, .L147+4
 2018 0032 C562     		str	r5, [r0, #44]
 2019              		.loc 1 1402 5 is_stmt 1 view .LVU619
 2020              		.loc 1 1402 10 is_stmt 0 view .LVU620
 2021 0034 A06B     		ldr	r0, [r4, #56]
 2022              		.loc 1 1402 38 view .LVU621
 2023 0036 124D     		ldr	r5, .L147+8
 2024 0038 0563     		str	r5, [r0, #48]
ARM GAS  C:\Users\HP\AppData\Local\Temp\cc3vbRST.s 			page 36


 2025              		.loc 1 1405 5 is_stmt 1 view .LVU622
 2026              		.loc 1 1405 10 is_stmt 0 view .LVU623
 2027 003a A06B     		ldr	r0, [r4, #56]
 2028              		.loc 1 1405 38 view .LVU624
 2029 003c 4363     		str	r3, [r0, #52]
 2030              		.loc 1 1408 5 is_stmt 1 view .LVU625
 2031              	.LVL159:
 2032              		.loc 1 1409 5 view .LVU626
 2033              		.loc 1 1409 77 is_stmt 0 view .LVU627
 2034 003e 2068     		ldr	r0, [r4]
 2035              		.loc 1 1409 5 view .LVU628
 2036 0040 1346     		mov	r3, r2
 2037 0042 021D     		adds	r2, r0, #4
 2038              	.LVL160:
 2039              		.loc 1 1409 5 view .LVU629
 2040 0044 A06B     		ldr	r0, [r4, #56]
 2041 0046 0F4D     		ldr	r5, .L147+12
 2042 0048 A847     		blx	r5
 2043              	.LVL161:
 2044              		.loc 1 1412 5 is_stmt 1 view .LVU630
 2045 004a 2368     		ldr	r3, [r4]
 2046 004c 6FF04002 		mvn	r2, #64
 2047 0050 1A60     		str	r2, [r3]
 2048              	.L141:
 2049              		.loc 1 1416 5 discriminator 1 view .LVU631
 2050              	.LBB350:
 2051              		.loc 1 1416 5 discriminator 1 view .LVU632
 2052              		.loc 1 1416 5 discriminator 1 view .LVU633
 2053              		.loc 1 1416 5 discriminator 1 view .LVU634
 2054 0052 2268     		ldr	r2, [r4]
 2055              	.LVL162:
 2056              	.LBB351:
 2057              	.LBI351:
 2058              		.loc 2 1068 31 discriminator 1 view .LVU635
 2059              	.LBB352:
 2060              		.loc 2 1070 5 discriminator 1 view .LVU636
 2061              		.loc 2 1072 4 discriminator 1 view .LVU637
 2062 0054 02F11403 		add	r3, r2, #20
 2063              	.LVL163:
 2064              		.loc 2 1072 4 is_stmt 0 discriminator 1 view .LVU638
 2065              		.syntax unified
 2066              	@ 1072 "Drivers/CMSIS/Include/cmsis_gcc.h" 1
 2067 0058 53E8003F 		ldrex r3, [r3]
 2068              	@ 0 "" 2
 2069              	.LVL164:
 2070              		.loc 2 1073 4 is_stmt 1 discriminator 1 view .LVU639
 2071              		.loc 2 1073 4 is_stmt 0 discriminator 1 view .LVU640
 2072              		.thumb
 2073              		.syntax unified
 2074              	.LBE352:
 2075              	.LBE351:
 2076              		.loc 1 1416 5 discriminator 1 view .LVU641
 2077 005c 43F08003 		orr	r3, r3, #128
 2078              	.LVL165:
 2079              		.loc 1 1416 5 is_stmt 1 discriminator 1 view .LVU642
 2080              	.LBB353:
 2081              	.LBI353:
ARM GAS  C:\Users\HP\AppData\Local\Temp\cc3vbRST.s 			page 37


 2082              		.loc 2 1119 31 discriminator 1 view .LVU643
 2083              	.LBB354:
 2084              		.loc 2 1121 4 discriminator 1 view .LVU644
 2085              		.loc 2 1123 4 discriminator 1 view .LVU645
 2086 0060 1432     		adds	r2, r2, #20
 2087              	.LVL166:
 2088              		.loc 2 1123 4 is_stmt 0 discriminator 1 view .LVU646
 2089              		.syntax unified
 2090              	@ 1123 "Drivers/CMSIS/Include/cmsis_gcc.h" 1
 2091 0062 42E80031 		strex r1, r3, [r2]
 2092              	@ 0 "" 2
 2093              	.LVL167:
 2094              		.loc 2 1124 4 is_stmt 1 discriminator 1 view .LVU647
 2095              		.loc 2 1124 4 is_stmt 0 discriminator 1 view .LVU648
 2096              		.thumb
 2097              		.syntax unified
 2098              	.LBE354:
 2099              	.LBE353:
 2100              		.loc 1 1416 5 discriminator 1 view .LVU649
 2101 0066 0029     		cmp	r1, #0
 2102 0068 F3D1     		bne	.L141
 2103              	.LBE350:
 2104              		.loc 1 1418 12 view .LVU650
 2105 006a 0020     		movs	r0, #0
 2106              	.LBB355:
 2107 006c D3E7     		b	.L140
 2108              	.LVL168:
 2109              	.L142:
 2110              		.loc 1 1418 12 view .LVU651
 2111              	.LBE355:
 2112              		.loc 1 1422 12 view .LVU652
 2113 006e 0220     		movs	r0, #2
 2114              	.LVL169:
 2115              		.loc 1 1422 12 view .LVU653
 2116 0070 D1E7     		b	.L140
 2117              	.LVL170:
 2118              	.L143:
 2119              		.loc 1 1385 14 view .LVU654
 2120 0072 0120     		movs	r0, #1
 2121              	.LVL171:
 2122              		.loc 1 1385 14 view .LVU655
 2123 0074 CFE7     		b	.L140
 2124              	.L148:
 2125 0076 00BF     		.align	2
 2126              	.L147:
 2127 0078 00000000 		.word	UART_DMATransmitCplt
 2128 007c 00000000 		.word	UART_DMATxHalfCplt
 2129 0080 00000000 		.word	UART_DMAError
 2130 0084 00000000 		.word	HAL_DMA_Start_IT
 2131              		.cfi_endproc
 2132              	.LFE76:
 2134              		.section	.text.HAL_UART_DMAPause,"ax",%progbits
 2135              		.align	1
 2136              		.global	HAL_UART_DMAPause
 2137              		.syntax unified
 2138              		.thumb
 2139              		.thumb_func
ARM GAS  C:\Users\HP\AppData\Local\Temp\cc3vbRST.s 			page 38


 2140              		.fpu softvfp
 2142              	HAL_UART_DMAPause:
 2143              	.LVL172:
 2144              	.LFB78:
 2145              		.loc 1 1466 1 is_stmt 1 view -0
 2146              		.cfi_startproc
 2147              		@ args = 0, pretend = 0, frame = 0
 2148              		@ frame_needed = 0, uses_anonymous_args = 0
 2149              		@ link register save eliminated.
 2150              		.loc 1 1467 3 view .LVU657
 2151              		.loc 1 1469 3 view .LVU658
 2152              		.loc 1 1469 16 is_stmt 0 view .LVU659
 2153 0000 0368     		ldr	r3, [r0]
 2154 0002 5A69     		ldr	r2, [r3, #20]
 2155 0004 02F08002 		and	r2, r2, #128
 2156              	.LVL173:
 2157              		.loc 1 1470 3 is_stmt 1 view .LVU660
 2158              		.loc 1 1470 13 is_stmt 0 view .LVU661
 2159 0008 90F84130 		ldrb	r3, [r0, #65]	@ zero_extendqisi2
 2160 000c DBB2     		uxtb	r3, r3
 2161              		.loc 1 1470 6 view .LVU662
 2162 000e 212B     		cmp	r3, #33
 2163 0010 0AD0     		beq	.L156
 2164              	.LVL174:
 2165              	.L150:
 2166              		.loc 1 1473 5 is_stmt 1 discriminator 2 view .LVU663
 2167              		.loc 1 1476 3 discriminator 2 view .LVU664
 2168              		.loc 1 1476 16 is_stmt 0 discriminator 2 view .LVU665
 2169 0012 0368     		ldr	r3, [r0]
 2170 0014 5A69     		ldr	r2, [r3, #20]
 2171 0016 02F04002 		and	r2, r2, #64
 2172              	.LVL175:
 2173              		.loc 1 1477 3 is_stmt 1 discriminator 2 view .LVU666
 2174              		.loc 1 1477 13 is_stmt 0 discriminator 2 view .LVU667
 2175 001a 90F84230 		ldrb	r3, [r0, #66]	@ zero_extendqisi2
 2176 001e DBB2     		uxtb	r3, r3
 2177              		.loc 1 1477 6 discriminator 2 view .LVU668
 2178 0020 222B     		cmp	r3, #34
 2179 0022 10D0     		beq	.L157
 2180              	.LVL176:
 2181              	.L152:
 2182              		.loc 1 1484 5 is_stmt 1 discriminator 2 view .LVU669
 2183              		.loc 1 1487 3 discriminator 2 view .LVU670
 2184              		.loc 1 1488 1 is_stmt 0 discriminator 2 view .LVU671
 2185 0024 0020     		movs	r0, #0
 2186              	.LVL177:
 2187              		.loc 1 1488 1 discriminator 2 view .LVU672
 2188 0026 7047     		bx	lr
 2189              	.LVL178:
 2190              	.L156:
 2191              		.loc 1 1470 49 discriminator 1 view .LVU673
 2192 0028 002A     		cmp	r2, #0
 2193 002a F2D0     		beq	.L150
 2194              	.LVL179:
 2195              	.L151:
 2196              		.loc 1 1473 5 is_stmt 1 discriminator 1 view .LVU674
 2197              	.LBB356:
ARM GAS  C:\Users\HP\AppData\Local\Temp\cc3vbRST.s 			page 39


 2198              		.loc 1 1473 5 discriminator 1 view .LVU675
 2199              		.loc 1 1473 5 discriminator 1 view .LVU676
 2200              		.loc 1 1473 5 discriminator 1 view .LVU677
 2201 002c 0268     		ldr	r2, [r0]
 2202              	.LVL180:
 2203              	.LBB357:
 2204              	.LBI357:
 2205              		.loc 2 1068 31 discriminator 1 view .LVU678
 2206              	.LBB358:
 2207              		.loc 2 1070 5 discriminator 1 view .LVU679
 2208              		.loc 2 1072 4 discriminator 1 view .LVU680
 2209 002e 02F11403 		add	r3, r2, #20
 2210              	.LVL181:
 2211              		.loc 2 1072 4 is_stmt 0 discriminator 1 view .LVU681
 2212              		.syntax unified
 2213              	@ 1072 "Drivers/CMSIS/Include/cmsis_gcc.h" 1
 2214 0032 53E8003F 		ldrex r3, [r3]
 2215              	@ 0 "" 2
 2216              	.LVL182:
 2217              		.loc 2 1073 4 is_stmt 1 discriminator 1 view .LVU682
 2218              		.loc 2 1073 4 is_stmt 0 discriminator 1 view .LVU683
 2219              		.thumb
 2220              		.syntax unified
 2221              	.LBE358:
 2222              	.LBE357:
 2223              		.loc 1 1473 5 discriminator 1 view .LVU684
 2224 0036 23F08003 		bic	r3, r3, #128
 2225              	.LVL183:
 2226              		.loc 1 1473 5 is_stmt 1 discriminator 1 view .LVU685
 2227              	.LBB359:
 2228              	.LBI359:
 2229              		.loc 2 1119 31 discriminator 1 view .LVU686
 2230              	.LBB360:
 2231              		.loc 2 1121 4 discriminator 1 view .LVU687
 2232              		.loc 2 1123 4 discriminator 1 view .LVU688
 2233 003a 1432     		adds	r2, r2, #20
 2234              	.LVL184:
 2235              		.loc 2 1123 4 is_stmt 0 discriminator 1 view .LVU689
 2236              		.syntax unified
 2237              	@ 1123 "Drivers/CMSIS/Include/cmsis_gcc.h" 1
 2238 003c 42E80031 		strex r1, r3, [r2]
 2239              	@ 0 "" 2
 2240              	.LVL185:
 2241              		.loc 2 1124 4 is_stmt 1 discriminator 1 view .LVU690
 2242              		.loc 2 1124 4 is_stmt 0 discriminator 1 view .LVU691
 2243              		.thumb
 2244              		.syntax unified
 2245              	.LBE360:
 2246              	.LBE359:
 2247              		.loc 1 1473 5 discriminator 1 view .LVU692
 2248 0040 0029     		cmp	r1, #0
 2249 0042 F3D1     		bne	.L151
 2250 0044 E5E7     		b	.L150
 2251              	.LVL186:
 2252              	.L157:
 2253              		.loc 1 1473 5 discriminator 1 view .LVU693
 2254              	.LBE356:
ARM GAS  C:\Users\HP\AppData\Local\Temp\cc3vbRST.s 			page 40


 2255              		.loc 1 1477 50 discriminator 1 view .LVU694
 2256 0046 002A     		cmp	r2, #0
 2257 0048 ECD0     		beq	.L152
 2258              	.LVL187:
 2259              	.L153:
 2260              		.loc 1 1480 5 is_stmt 1 discriminator 1 view .LVU695
 2261              	.LBB361:
 2262              		.loc 1 1480 5 discriminator 1 view .LVU696
 2263              		.loc 1 1480 5 discriminator 1 view .LVU697
 2264              		.loc 1 1480 5 discriminator 1 view .LVU698
 2265 004a 0268     		ldr	r2, [r0]
 2266              	.LVL188:
 2267              	.LBB362:
 2268              	.LBI362:
 2269              		.loc 2 1068 31 discriminator 1 view .LVU699
 2270              	.LBB363:
 2271              		.loc 2 1070 5 discriminator 1 view .LVU700
 2272              		.loc 2 1072 4 discriminator 1 view .LVU701
 2273 004c 02F10C03 		add	r3, r2, #12
 2274              	.LVL189:
 2275              		.loc 2 1072 4 is_stmt 0 discriminator 1 view .LVU702
 2276              		.syntax unified
 2277              	@ 1072 "Drivers/CMSIS/Include/cmsis_gcc.h" 1
 2278 0050 53E8003F 		ldrex r3, [r3]
 2279              	@ 0 "" 2
 2280              	.LVL190:
 2281              		.loc 2 1073 4 is_stmt 1 discriminator 1 view .LVU703
 2282              		.loc 2 1073 4 is_stmt 0 discriminator 1 view .LVU704
 2283              		.thumb
 2284              		.syntax unified
 2285              	.LBE363:
 2286              	.LBE362:
 2287              		.loc 1 1480 5 discriminator 1 view .LVU705
 2288 0054 23F48073 		bic	r3, r3, #256
 2289              	.LVL191:
 2290              		.loc 1 1480 5 is_stmt 1 discriminator 1 view .LVU706
 2291              	.LBB364:
 2292              	.LBI364:
 2293              		.loc 2 1119 31 discriminator 1 view .LVU707
 2294              	.LBB365:
 2295              		.loc 2 1121 4 discriminator 1 view .LVU708
 2296              		.loc 2 1123 4 discriminator 1 view .LVU709
 2297 0058 0C32     		adds	r2, r2, #12
 2298              	.LVL192:
 2299              		.loc 2 1123 4 is_stmt 0 discriminator 1 view .LVU710
 2300              		.syntax unified
 2301              	@ 1123 "Drivers/CMSIS/Include/cmsis_gcc.h" 1
 2302 005a 42E80031 		strex r1, r3, [r2]
 2303              	@ 0 "" 2
 2304              	.LVL193:
 2305              		.loc 2 1124 4 is_stmt 1 discriminator 1 view .LVU711
 2306              		.loc 2 1124 4 is_stmt 0 discriminator 1 view .LVU712
 2307              		.thumb
 2308              		.syntax unified
 2309              	.LBE365:
 2310              	.LBE364:
 2311              		.loc 1 1480 5 discriminator 1 view .LVU713
ARM GAS  C:\Users\HP\AppData\Local\Temp\cc3vbRST.s 			page 41


 2312 005e 0029     		cmp	r1, #0
 2313 0060 F3D1     		bne	.L153
 2314              	.LVL194:
 2315              	.L154:
 2316              		.loc 1 1480 5 discriminator 1 view .LVU714
 2317              	.LBE361:
 2318              		.loc 1 1480 5 is_stmt 1 discriminator 1 view .LVU715
 2319              		.loc 1 1481 5 discriminator 1 view .LVU716
 2320              	.LBB366:
 2321              		.loc 1 1481 5 discriminator 1 view .LVU717
 2322              		.loc 1 1481 5 discriminator 1 view .LVU718
 2323              		.loc 1 1481 5 discriminator 1 view .LVU719
 2324 0062 0268     		ldr	r2, [r0]
 2325              	.LVL195:
 2326              	.LBB367:
 2327              	.LBI367:
 2328              		.loc 2 1068 31 discriminator 1 view .LVU720
 2329              	.LBB368:
 2330              		.loc 2 1070 5 discriminator 1 view .LVU721
 2331              		.loc 2 1072 4 discriminator 1 view .LVU722
 2332 0064 02F11403 		add	r3, r2, #20
 2333              	.LVL196:
 2334              		.loc 2 1072 4 is_stmt 0 discriminator 1 view .LVU723
 2335              		.syntax unified
 2336              	@ 1072 "Drivers/CMSIS/Include/cmsis_gcc.h" 1
 2337 0068 53E8003F 		ldrex r3, [r3]
 2338              	@ 0 "" 2
 2339              	.LVL197:
 2340              		.loc 2 1073 4 is_stmt 1 discriminator 1 view .LVU724
 2341              		.loc 2 1073 4 is_stmt 0 discriminator 1 view .LVU725
 2342              		.thumb
 2343              		.syntax unified
 2344              	.LBE368:
 2345              	.LBE367:
 2346              		.loc 1 1481 5 discriminator 1 view .LVU726
 2347 006c 23F00103 		bic	r3, r3, #1
 2348              	.LVL198:
 2349              		.loc 1 1481 5 is_stmt 1 discriminator 1 view .LVU727
 2350              	.LBB369:
 2351              	.LBI369:
 2352              		.loc 2 1119 31 discriminator 1 view .LVU728
 2353              	.LBB370:
 2354              		.loc 2 1121 4 discriminator 1 view .LVU729
 2355              		.loc 2 1123 4 discriminator 1 view .LVU730
 2356 0070 1432     		adds	r2, r2, #20
 2357              	.LVL199:
 2358              		.loc 2 1123 4 is_stmt 0 discriminator 1 view .LVU731
 2359              		.syntax unified
 2360              	@ 1123 "Drivers/CMSIS/Include/cmsis_gcc.h" 1
 2361 0072 42E80031 		strex r1, r3, [r2]
 2362              	@ 0 "" 2
 2363              	.LVL200:
 2364              		.loc 2 1124 4 is_stmt 1 discriminator 1 view .LVU732
 2365              		.loc 2 1124 4 is_stmt 0 discriminator 1 view .LVU733
 2366              		.thumb
 2367              		.syntax unified
 2368              	.LBE370:
ARM GAS  C:\Users\HP\AppData\Local\Temp\cc3vbRST.s 			page 42


 2369              	.LBE369:
 2370              		.loc 1 1481 5 discriminator 1 view .LVU734
 2371 0076 0029     		cmp	r1, #0
 2372 0078 F3D1     		bne	.L154
 2373              	.LVL201:
 2374              	.L155:
 2375              		.loc 1 1481 5 discriminator 1 view .LVU735
 2376              	.LBE366:
 2377              		.loc 1 1481 5 is_stmt 1 discriminator 1 view .LVU736
 2378              		.loc 1 1484 5 discriminator 1 view .LVU737
 2379              	.LBB371:
 2380              		.loc 1 1484 5 discriminator 1 view .LVU738
 2381              		.loc 1 1484 5 discriminator 1 view .LVU739
 2382              		.loc 1 1484 5 discriminator 1 view .LVU740
 2383 007a 0268     		ldr	r2, [r0]
 2384              	.LVL202:
 2385              	.LBB372:
 2386              	.LBI372:
 2387              		.loc 2 1068 31 discriminator 1 view .LVU741
 2388              	.LBB373:
 2389              		.loc 2 1070 5 discriminator 1 view .LVU742
 2390              		.loc 2 1072 4 discriminator 1 view .LVU743
 2391 007c 02F11403 		add	r3, r2, #20
 2392              	.LVL203:
 2393              		.loc 2 1072 4 is_stmt 0 discriminator 1 view .LVU744
 2394              		.syntax unified
 2395              	@ 1072 "Drivers/CMSIS/Include/cmsis_gcc.h" 1
 2396 0080 53E8003F 		ldrex r3, [r3]
 2397              	@ 0 "" 2
 2398              	.LVL204:
 2399              		.loc 2 1073 4 is_stmt 1 discriminator 1 view .LVU745
 2400              		.loc 2 1073 4 is_stmt 0 discriminator 1 view .LVU746
 2401              		.thumb
 2402              		.syntax unified
 2403              	.LBE373:
 2404              	.LBE372:
 2405              		.loc 1 1484 5 discriminator 1 view .LVU747
 2406 0084 23F04003 		bic	r3, r3, #64
 2407              	.LVL205:
 2408              		.loc 1 1484 5 is_stmt 1 discriminator 1 view .LVU748
 2409              	.LBB374:
 2410              	.LBI374:
 2411              		.loc 2 1119 31 discriminator 1 view .LVU749
 2412              	.LBB375:
 2413              		.loc 2 1121 4 discriminator 1 view .LVU750
 2414              		.loc 2 1123 4 discriminator 1 view .LVU751
 2415 0088 1432     		adds	r2, r2, #20
 2416              	.LVL206:
 2417              		.loc 2 1123 4 is_stmt 0 discriminator 1 view .LVU752
 2418              		.syntax unified
 2419              	@ 1123 "Drivers/CMSIS/Include/cmsis_gcc.h" 1
 2420 008a 42E80031 		strex r1, r3, [r2]
 2421              	@ 0 "" 2
 2422              	.LVL207:
 2423              		.loc 2 1124 4 is_stmt 1 discriminator 1 view .LVU753
 2424              		.loc 2 1124 4 is_stmt 0 discriminator 1 view .LVU754
 2425              		.thumb
ARM GAS  C:\Users\HP\AppData\Local\Temp\cc3vbRST.s 			page 43


 2426              		.syntax unified
 2427              	.LBE375:
 2428              	.LBE374:
 2429              		.loc 1 1484 5 discriminator 1 view .LVU755
 2430 008e 0029     		cmp	r1, #0
 2431 0090 F3D1     		bne	.L155
 2432 0092 C7E7     		b	.L152
 2433              	.LBE371:
 2434              		.cfi_endproc
 2435              	.LFE78:
 2437              		.section	.text.HAL_UART_DMAResume,"ax",%progbits
 2438              		.align	1
 2439              		.global	HAL_UART_DMAResume
 2440              		.syntax unified
 2441              		.thumb
 2442              		.thumb_func
 2443              		.fpu softvfp
 2445              	HAL_UART_DMAResume:
 2446              	.LVL208:
 2447              	.LFB79:
 2448              		.loc 1 1497 1 is_stmt 1 view -0
 2449              		.cfi_startproc
 2450              		@ args = 0, pretend = 0, frame = 8
 2451              		@ frame_needed = 0, uses_anonymous_args = 0
 2452              		@ link register save eliminated.
 2453              		.loc 1 1499 3 view .LVU757
 2454              		.loc 1 1499 12 is_stmt 0 view .LVU758
 2455 0000 90F84130 		ldrb	r3, [r0, #65]	@ zero_extendqisi2
 2456 0004 DBB2     		uxtb	r3, r3
 2457              		.loc 1 1499 6 view .LVU759
 2458 0006 212B     		cmp	r3, #33
 2459 0008 06D0     		beq	.L160
 2460              	.L159:
 2461              		.loc 1 1502 5 is_stmt 1 discriminator 2 view .LVU760
 2462              		.loc 1 1505 3 discriminator 2 view .LVU761
 2463              		.loc 1 1505 12 is_stmt 0 discriminator 2 view .LVU762
 2464 000a 90F84230 		ldrb	r3, [r0, #66]	@ zero_extendqisi2
 2465 000e DBB2     		uxtb	r3, r3
 2466              		.loc 1 1505 6 discriminator 2 view .LVU763
 2467 0010 222B     		cmp	r3, #34
 2468 0012 0ED0     		beq	.L170
 2469              		.loc 1 1518 5 is_stmt 1 view .LVU764
 2470              		.loc 1 1521 3 view .LVU765
 2471              		.loc 1 1522 1 is_stmt 0 view .LVU766
 2472 0014 0020     		movs	r0, #0
 2473              	.LVL209:
 2474              		.loc 1 1522 1 view .LVU767
 2475 0016 7047     		bx	lr
 2476              	.LVL210:
 2477              	.L160:
 2478              		.loc 1 1502 5 is_stmt 1 discriminator 1 view .LVU768
 2479              	.LBB376:
 2480              		.loc 1 1502 5 discriminator 1 view .LVU769
 2481              		.loc 1 1502 5 discriminator 1 view .LVU770
 2482              		.loc 1 1502 5 discriminator 1 view .LVU771
 2483 0018 0268     		ldr	r2, [r0]
 2484              	.LVL211:
ARM GAS  C:\Users\HP\AppData\Local\Temp\cc3vbRST.s 			page 44


 2485              	.LBB377:
 2486              	.LBI377:
 2487              		.loc 2 1068 31 discriminator 1 view .LVU772
 2488              	.LBB378:
 2489              		.loc 2 1070 5 discriminator 1 view .LVU773
 2490              		.loc 2 1072 4 discriminator 1 view .LVU774
 2491 001a 02F11403 		add	r3, r2, #20
 2492              	.LVL212:
 2493              		.loc 2 1072 4 is_stmt 0 discriminator 1 view .LVU775
 2494              		.syntax unified
 2495              	@ 1072 "Drivers/CMSIS/Include/cmsis_gcc.h" 1
 2496 001e 53E8003F 		ldrex r3, [r3]
 2497              	@ 0 "" 2
 2498              	.LVL213:
 2499              		.loc 2 1073 4 is_stmt 1 discriminator 1 view .LVU776
 2500              		.loc 2 1073 4 is_stmt 0 discriminator 1 view .LVU777
 2501              		.thumb
 2502              		.syntax unified
 2503              	.LBE378:
 2504              	.LBE377:
 2505              		.loc 1 1502 5 discriminator 1 view .LVU778
 2506 0022 43F08003 		orr	r3, r3, #128
 2507              	.LVL214:
 2508              		.loc 1 1502 5 is_stmt 1 discriminator 1 view .LVU779
 2509              	.LBB379:
 2510              	.LBI379:
 2511              		.loc 2 1119 31 discriminator 1 view .LVU780
 2512              	.LBB380:
 2513              		.loc 2 1121 4 discriminator 1 view .LVU781
 2514              		.loc 2 1123 4 discriminator 1 view .LVU782
 2515 0026 1432     		adds	r2, r2, #20
 2516              	.LVL215:
 2517              		.loc 2 1123 4 is_stmt 0 discriminator 1 view .LVU783
 2518              		.syntax unified
 2519              	@ 1123 "Drivers/CMSIS/Include/cmsis_gcc.h" 1
 2520 0028 42E80031 		strex r1, r3, [r2]
 2521              	@ 0 "" 2
 2522              	.LVL216:
 2523              		.loc 2 1124 4 is_stmt 1 discriminator 1 view .LVU784
 2524              		.loc 2 1124 4 is_stmt 0 discriminator 1 view .LVU785
 2525              		.thumb
 2526              		.syntax unified
 2527              	.LBE380:
 2528              	.LBE379:
 2529              		.loc 1 1502 5 discriminator 1 view .LVU786
 2530 002c 0029     		cmp	r1, #0
 2531 002e F3D1     		bne	.L160
 2532 0030 EBE7     		b	.L159
 2533              	.LVL217:
 2534              	.L170:
 2535              		.loc 1 1502 5 discriminator 1 view .LVU787
 2536              	.LBE376:
 2537              		.loc 1 1497 1 view .LVU788
 2538 0032 82B0     		sub	sp, sp, #8
 2539              	.LCFI21:
 2540              		.cfi_def_cfa_offset 8
 2541              		.loc 1 1508 5 is_stmt 1 view .LVU789
ARM GAS  C:\Users\HP\AppData\Local\Temp\cc3vbRST.s 			page 45


 2542              	.LBB381:
 2543              		.loc 1 1508 5 view .LVU790
 2544 0034 0023     		movs	r3, #0
 2545 0036 0193     		str	r3, [sp, #4]
 2546              		.loc 1 1508 5 view .LVU791
 2547 0038 0368     		ldr	r3, [r0]
 2548 003a 1A68     		ldr	r2, [r3]
 2549 003c 0192     		str	r2, [sp, #4]
 2550              		.loc 1 1508 5 view .LVU792
 2551 003e 5B68     		ldr	r3, [r3, #4]
 2552 0040 0193     		str	r3, [sp, #4]
 2553              		.loc 1 1508 5 view .LVU793
 2554 0042 019B     		ldr	r3, [sp, #4]
 2555              	.LBE381:
 2556              		.loc 1 1508 5 view .LVU794
 2557              		.loc 1 1511 5 view .LVU795
 2558              		.loc 1 1511 20 is_stmt 0 view .LVU796
 2559 0044 0369     		ldr	r3, [r0, #16]
 2560              		.loc 1 1511 8 view .LVU797
 2561 0046 5BB1     		cbz	r3, .L164
 2562              	.L163:
 2563              		.loc 1 1513 7 is_stmt 1 discriminator 1 view .LVU798
 2564              	.LBB382:
 2565              		.loc 1 1513 7 discriminator 1 view .LVU799
 2566              		.loc 1 1513 7 discriminator 1 view .LVU800
 2567              		.loc 1 1513 7 discriminator 1 view .LVU801
 2568 0048 0268     		ldr	r2, [r0]
 2569              	.LVL218:
 2570              	.LBB383:
 2571              	.LBI383:
 2572              		.loc 2 1068 31 discriminator 1 view .LVU802
 2573              	.LBB384:
 2574              		.loc 2 1070 5 discriminator 1 view .LVU803
 2575              		.loc 2 1072 4 discriminator 1 view .LVU804
 2576 004a 02F10C03 		add	r3, r2, #12
 2577              	.LVL219:
 2578              		.loc 2 1072 4 is_stmt 0 discriminator 1 view .LVU805
 2579              		.syntax unified
 2580              	@ 1072 "Drivers/CMSIS/Include/cmsis_gcc.h" 1
 2581 004e 53E8003F 		ldrex r3, [r3]
 2582              	@ 0 "" 2
 2583              	.LVL220:
 2584              		.loc 2 1073 4 is_stmt 1 discriminator 1 view .LVU806
 2585              		.loc 2 1073 4 is_stmt 0 discriminator 1 view .LVU807
 2586              		.thumb
 2587              		.syntax unified
 2588              	.LBE384:
 2589              	.LBE383:
 2590              		.loc 1 1513 7 discriminator 1 view .LVU808
 2591 0052 43F48073 		orr	r3, r3, #256
 2592              	.LVL221:
 2593              		.loc 1 1513 7 is_stmt 1 discriminator 1 view .LVU809
 2594              	.LBB385:
 2595              	.LBI385:
 2596              		.loc 2 1119 31 discriminator 1 view .LVU810
 2597              	.LBB386:
 2598              		.loc 2 1121 4 discriminator 1 view .LVU811
ARM GAS  C:\Users\HP\AppData\Local\Temp\cc3vbRST.s 			page 46


 2599              		.loc 2 1123 4 discriminator 1 view .LVU812
 2600 0056 0C32     		adds	r2, r2, #12
 2601              	.LVL222:
 2602              		.loc 2 1123 4 is_stmt 0 discriminator 1 view .LVU813
 2603              		.syntax unified
 2604              	@ 1123 "Drivers/CMSIS/Include/cmsis_gcc.h" 1
 2605 0058 42E80031 		strex r1, r3, [r2]
 2606              	@ 0 "" 2
 2607              	.LVL223:
 2608              		.loc 2 1124 4 is_stmt 1 discriminator 1 view .LVU814
 2609              		.loc 2 1124 4 is_stmt 0 discriminator 1 view .LVU815
 2610              		.thumb
 2611              		.syntax unified
 2612              	.LBE386:
 2613              	.LBE385:
 2614              		.loc 1 1513 7 discriminator 1 view .LVU816
 2615 005c 0029     		cmp	r1, #0
 2616 005e F3D1     		bne	.L163
 2617              	.LVL224:
 2618              	.L164:
 2619              		.loc 1 1513 7 discriminator 1 view .LVU817
 2620              	.LBE382:
 2621              		.loc 1 1513 7 is_stmt 1 discriminator 1 view .LVU818
 2622              		.loc 1 1515 5 discriminator 1 view .LVU819
 2623              	.LBB387:
 2624              		.loc 1 1515 5 discriminator 1 view .LVU820
 2625              		.loc 1 1515 5 discriminator 1 view .LVU821
 2626              		.loc 1 1515 5 discriminator 1 view .LVU822
 2627 0060 0268     		ldr	r2, [r0]
 2628              	.LVL225:
 2629              	.LBB388:
 2630              	.LBI388:
 2631              		.loc 2 1068 31 discriminator 1 view .LVU823
 2632              	.LBB389:
 2633              		.loc 2 1070 5 discriminator 1 view .LVU824
 2634              		.loc 2 1072 4 discriminator 1 view .LVU825
 2635 0062 02F11403 		add	r3, r2, #20
 2636              	.LVL226:
 2637              		.loc 2 1072 4 is_stmt 0 discriminator 1 view .LVU826
 2638              		.syntax unified
 2639              	@ 1072 "Drivers/CMSIS/Include/cmsis_gcc.h" 1
 2640 0066 53E8003F 		ldrex r3, [r3]
 2641              	@ 0 "" 2
 2642              	.LVL227:
 2643              		.loc 2 1073 4 is_stmt 1 discriminator 1 view .LVU827
 2644              		.loc 2 1073 4 is_stmt 0 discriminator 1 view .LVU828
 2645              		.thumb
 2646              		.syntax unified
 2647              	.LBE389:
 2648              	.LBE388:
 2649              		.loc 1 1515 5 discriminator 1 view .LVU829
 2650 006a 43F00103 		orr	r3, r3, #1
 2651              	.LVL228:
 2652              		.loc 1 1515 5 is_stmt 1 discriminator 1 view .LVU830
 2653              	.LBB390:
 2654              	.LBI390:
 2655              		.loc 2 1119 31 discriminator 1 view .LVU831
ARM GAS  C:\Users\HP\AppData\Local\Temp\cc3vbRST.s 			page 47


 2656              	.LBB391:
 2657              		.loc 2 1121 4 discriminator 1 view .LVU832
 2658              		.loc 2 1123 4 discriminator 1 view .LVU833
 2659 006e 1432     		adds	r2, r2, #20
 2660              	.LVL229:
 2661              		.loc 2 1123 4 is_stmt 0 discriminator 1 view .LVU834
 2662              		.syntax unified
 2663              	@ 1123 "Drivers/CMSIS/Include/cmsis_gcc.h" 1
 2664 0070 42E80031 		strex r1, r3, [r2]
 2665              	@ 0 "" 2
 2666              	.LVL230:
 2667              		.loc 2 1124 4 is_stmt 1 discriminator 1 view .LVU835
 2668              		.loc 2 1124 4 is_stmt 0 discriminator 1 view .LVU836
 2669              		.thumb
 2670              		.syntax unified
 2671              	.LBE391:
 2672              	.LBE390:
 2673              		.loc 1 1515 5 discriminator 1 view .LVU837
 2674 0074 0029     		cmp	r1, #0
 2675 0076 F3D1     		bne	.L164
 2676              	.LVL231:
 2677              	.L165:
 2678              		.loc 1 1515 5 discriminator 1 view .LVU838
 2679              	.LBE387:
 2680              		.loc 1 1515 5 is_stmt 1 discriminator 1 view .LVU839
 2681              		.loc 1 1518 5 discriminator 1 view .LVU840
 2682              	.LBB392:
 2683              		.loc 1 1518 5 discriminator 1 view .LVU841
 2684              		.loc 1 1518 5 discriminator 1 view .LVU842
 2685              		.loc 1 1518 5 discriminator 1 view .LVU843
 2686 0078 0268     		ldr	r2, [r0]
 2687              	.LVL232:
 2688              	.LBB393:
 2689              	.LBI393:
 2690              		.loc 2 1068 31 discriminator 1 view .LVU844
 2691              	.LBB394:
 2692              		.loc 2 1070 5 discriminator 1 view .LVU845
 2693              		.loc 2 1072 4 discriminator 1 view .LVU846
 2694 007a 02F11403 		add	r3, r2, #20
 2695              	.LVL233:
 2696              		.loc 2 1072 4 is_stmt 0 discriminator 1 view .LVU847
 2697              		.syntax unified
 2698              	@ 1072 "Drivers/CMSIS/Include/cmsis_gcc.h" 1
 2699 007e 53E8003F 		ldrex r3, [r3]
 2700              	@ 0 "" 2
 2701              	.LVL234:
 2702              		.loc 2 1073 4 is_stmt 1 discriminator 1 view .LVU848
 2703              		.loc 2 1073 4 is_stmt 0 discriminator 1 view .LVU849
 2704              		.thumb
 2705              		.syntax unified
 2706              	.LBE394:
 2707              	.LBE393:
 2708              		.loc 1 1518 5 discriminator 1 view .LVU850
 2709 0082 43F04003 		orr	r3, r3, #64
 2710              	.LVL235:
 2711              		.loc 1 1518 5 is_stmt 1 discriminator 1 view .LVU851
 2712              	.LBB395:
ARM GAS  C:\Users\HP\AppData\Local\Temp\cc3vbRST.s 			page 48


 2713              	.LBI395:
 2714              		.loc 2 1119 31 discriminator 1 view .LVU852
 2715              	.LBB396:
 2716              		.loc 2 1121 4 discriminator 1 view .LVU853
 2717              		.loc 2 1123 4 discriminator 1 view .LVU854
 2718 0086 1432     		adds	r2, r2, #20
 2719              	.LVL236:
 2720              		.loc 2 1123 4 is_stmt 0 discriminator 1 view .LVU855
 2721              		.syntax unified
 2722              	@ 1123 "Drivers/CMSIS/Include/cmsis_gcc.h" 1
 2723 0088 42E80031 		strex r1, r3, [r2]
 2724              	@ 0 "" 2
 2725              	.LVL237:
 2726              		.loc 2 1124 4 is_stmt 1 discriminator 1 view .LVU856
 2727              		.loc 2 1124 4 is_stmt 0 discriminator 1 view .LVU857
 2728              		.thumb
 2729              		.syntax unified
 2730              	.LBE396:
 2731              	.LBE395:
 2732              		.loc 1 1518 5 discriminator 1 view .LVU858
 2733 008c 0029     		cmp	r1, #0
 2734 008e F3D1     		bne	.L165
 2735              	.LBE392:
 2736              		.loc 1 1518 5 is_stmt 1 discriminator 2 view .LVU859
 2737              		.loc 1 1521 3 discriminator 2 view .LVU860
 2738              		.loc 1 1522 1 is_stmt 0 discriminator 2 view .LVU861
 2739 0090 0020     		movs	r0, #0
 2740              	.LVL238:
 2741              		.loc 1 1522 1 discriminator 2 view .LVU862
 2742 0092 02B0     		add	sp, sp, #8
 2743              	.LCFI22:
 2744              		.cfi_def_cfa_offset 0
 2745              		@ sp needed
 2746 0094 7047     		bx	lr
 2747              		.cfi_endproc
 2748              	.LFE79:
 2750              		.section	.text.HAL_UART_DMAStop,"ax",%progbits
 2751              		.align	1
 2752              		.global	HAL_UART_DMAStop
 2753              		.syntax unified
 2754              		.thumb
 2755              		.thumb_func
 2756              		.fpu softvfp
 2758              	HAL_UART_DMAStop:
 2759              	.LVL239:
 2760              	.LFB80:
 2761              		.loc 1 1531 1 is_stmt 1 view -0
 2762              		.cfi_startproc
 2763              		@ args = 0, pretend = 0, frame = 0
 2764              		@ frame_needed = 0, uses_anonymous_args = 0
 2765              		.loc 1 1531 1 is_stmt 0 view .LVU864
 2766 0000 10B5     		push	{r4, lr}
 2767              	.LCFI23:
 2768              		.cfi_def_cfa_offset 8
 2769              		.cfi_offset 4, -8
 2770              		.cfi_offset 14, -4
 2771 0002 0446     		mov	r4, r0
ARM GAS  C:\Users\HP\AppData\Local\Temp\cc3vbRST.s 			page 49


 2772              		.loc 1 1532 3 is_stmt 1 view .LVU865
 2773              	.LVL240:
 2774              		.loc 1 1540 3 view .LVU866
 2775              		.loc 1 1540 16 is_stmt 0 view .LVU867
 2776 0004 0368     		ldr	r3, [r0]
 2777 0006 5A69     		ldr	r2, [r3, #20]
 2778              	.LVL241:
 2779              		.loc 1 1541 3 is_stmt 1 view .LVU868
 2780              		.loc 1 1541 13 is_stmt 0 view .LVU869
 2781 0008 90F84130 		ldrb	r3, [r0, #65]	@ zero_extendqisi2
 2782 000c DBB2     		uxtb	r3, r3
 2783              		.loc 1 1541 6 view .LVU870
 2784 000e 212B     		cmp	r3, #33
 2785 0010 0AD0     		beq	.L179
 2786              	.LVL242:
 2787              	.L172:
 2788              		.loc 1 1554 3 is_stmt 1 view .LVU871
 2789              		.loc 1 1554 16 is_stmt 0 view .LVU872
 2790 0012 2368     		ldr	r3, [r4]
 2791 0014 5A69     		ldr	r2, [r3, #20]
 2792 0016 02F04002 		and	r2, r2, #64
 2793              	.LVL243:
 2794              		.loc 1 1555 3 is_stmt 1 view .LVU873
 2795              		.loc 1 1555 13 is_stmt 0 view .LVU874
 2796 001a 94F84230 		ldrb	r3, [r4, #66]	@ zero_extendqisi2
 2797 001e DBB2     		uxtb	r3, r3
 2798              		.loc 1 1555 6 view .LVU875
 2799 0020 222B     		cmp	r3, #34
 2800 0022 19D0     		beq	.L180
 2801              	.LVL244:
 2802              	.L175:
 2803              		.loc 1 1567 3 is_stmt 1 view .LVU876
 2804              		.loc 1 1568 1 is_stmt 0 view .LVU877
 2805 0024 0020     		movs	r0, #0
 2806 0026 10BD     		pop	{r4, pc}
 2807              	.LVL245:
 2808              	.L179:
 2809              		.loc 1 1568 1 view .LVU878
 2810 0028 02F08002 		and	r2, r2, #128
 2811              	.LVL246:
 2812              		.loc 1 1541 49 discriminator 1 view .LVU879
 2813 002c 002A     		cmp	r2, #0
 2814 002e F0D0     		beq	.L172
 2815              	.L173:
 2816              		.loc 1 1543 5 is_stmt 1 discriminator 1 view .LVU880
 2817              	.LBB397:
 2818              		.loc 1 1543 5 discriminator 1 view .LVU881
 2819              		.loc 1 1543 5 discriminator 1 view .LVU882
 2820              		.loc 1 1543 5 discriminator 1 view .LVU883
 2821 0030 2268     		ldr	r2, [r4]
 2822              	.LVL247:
 2823              	.LBB398:
 2824              	.LBI398:
 2825              		.loc 2 1068 31 discriminator 1 view .LVU884
 2826              	.LBB399:
 2827              		.loc 2 1070 5 discriminator 1 view .LVU885
 2828              		.loc 2 1072 4 discriminator 1 view .LVU886
ARM GAS  C:\Users\HP\AppData\Local\Temp\cc3vbRST.s 			page 50


 2829 0032 02F11403 		add	r3, r2, #20
 2830              	.LVL248:
 2831              		.loc 2 1072 4 is_stmt 0 discriminator 1 view .LVU887
 2832              		.syntax unified
 2833              	@ 1072 "Drivers/CMSIS/Include/cmsis_gcc.h" 1
 2834 0036 53E8003F 		ldrex r3, [r3]
 2835              	@ 0 "" 2
 2836              	.LVL249:
 2837              		.loc 2 1073 4 is_stmt 1 discriminator 1 view .LVU888
 2838              		.loc 2 1073 4 is_stmt 0 discriminator 1 view .LVU889
 2839              		.thumb
 2840              		.syntax unified
 2841              	.LBE399:
 2842              	.LBE398:
 2843              		.loc 1 1543 5 discriminator 1 view .LVU890
 2844 003a 23F08003 		bic	r3, r3, #128
 2845              	.LVL250:
 2846              		.loc 1 1543 5 is_stmt 1 discriminator 1 view .LVU891
 2847              	.LBB400:
 2848              	.LBI400:
 2849              		.loc 2 1119 31 discriminator 1 view .LVU892
 2850              	.LBB401:
 2851              		.loc 2 1121 4 discriminator 1 view .LVU893
 2852              		.loc 2 1123 4 discriminator 1 view .LVU894
 2853 003e 1432     		adds	r2, r2, #20
 2854              	.LVL251:
 2855              		.loc 2 1123 4 is_stmt 0 discriminator 1 view .LVU895
 2856              		.syntax unified
 2857              	@ 1123 "Drivers/CMSIS/Include/cmsis_gcc.h" 1
 2858 0040 42E80031 		strex r1, r3, [r2]
 2859              	@ 0 "" 2
 2860              	.LVL252:
 2861              		.loc 2 1124 4 is_stmt 1 discriminator 1 view .LVU896
 2862              		.loc 2 1124 4 is_stmt 0 discriminator 1 view .LVU897
 2863              		.thumb
 2864              		.syntax unified
 2865              	.LBE401:
 2866              	.LBE400:
 2867              		.loc 1 1543 5 discriminator 1 view .LVU898
 2868 0044 0029     		cmp	r1, #0
 2869 0046 F3D1     		bne	.L173
 2870              	.LBE397:
 2871              		.loc 1 1543 5 is_stmt 1 discriminator 2 view .LVU899
 2872              		.loc 1 1546 5 discriminator 2 view .LVU900
 2873              		.loc 1 1546 14 is_stmt 0 discriminator 2 view .LVU901
 2874 0048 A06B     		ldr	r0, [r4, #56]
 2875              	.LVL253:
 2876              		.loc 1 1546 8 discriminator 2 view .LVU902
 2877 004a 08B1     		cbz	r0, .L174
 2878              		.loc 1 1548 7 is_stmt 1 view .LVU903
 2879 004c 0D4B     		ldr	r3, .L181
 2880              	.LVL254:
 2881              		.loc 1 1548 7 is_stmt 0 view .LVU904
 2882 004e 9847     		blx	r3
 2883              	.LVL255:
 2884              	.L174:
 2885              		.loc 1 1550 5 is_stmt 1 view .LVU905
ARM GAS  C:\Users\HP\AppData\Local\Temp\cc3vbRST.s 			page 51


 2886 0050 2046     		mov	r0, r4
 2887 0052 0D4B     		ldr	r3, .L181+4
 2888 0054 9847     		blx	r3
 2889              	.LVL256:
 2890 0056 DCE7     		b	.L172
 2891              	.LVL257:
 2892              	.L180:
 2893              		.loc 1 1555 50 is_stmt 0 discriminator 1 view .LVU906
 2894 0058 002A     		cmp	r2, #0
 2895 005a E3D0     		beq	.L175
 2896              	.LVL258:
 2897              	.L176:
 2898              		.loc 1 1557 5 is_stmt 1 discriminator 1 view .LVU907
 2899              	.LBB402:
 2900              		.loc 1 1557 5 discriminator 1 view .LVU908
 2901              		.loc 1 1557 5 discriminator 1 view .LVU909
 2902              		.loc 1 1557 5 discriminator 1 view .LVU910
 2903 005c 2268     		ldr	r2, [r4]
 2904              	.LVL259:
 2905              	.LBB403:
 2906              	.LBI403:
 2907              		.loc 2 1068 31 discriminator 1 view .LVU911
 2908              	.LBB404:
 2909              		.loc 2 1070 5 discriminator 1 view .LVU912
 2910              		.loc 2 1072 4 discriminator 1 view .LVU913
 2911 005e 02F11403 		add	r3, r2, #20
 2912              	.LVL260:
 2913              		.loc 2 1072 4 is_stmt 0 discriminator 1 view .LVU914
 2914              		.syntax unified
 2915              	@ 1072 "Drivers/CMSIS/Include/cmsis_gcc.h" 1
 2916 0062 53E8003F 		ldrex r3, [r3]
 2917              	@ 0 "" 2
 2918              	.LVL261:
 2919              		.loc 2 1073 4 is_stmt 1 discriminator 1 view .LVU915
 2920              		.loc 2 1073 4 is_stmt 0 discriminator 1 view .LVU916
 2921              		.thumb
 2922              		.syntax unified
 2923              	.LBE404:
 2924              	.LBE403:
 2925              		.loc 1 1557 5 discriminator 1 view .LVU917
 2926 0066 23F04003 		bic	r3, r3, #64
 2927              	.LVL262:
 2928              		.loc 1 1557 5 is_stmt 1 discriminator 1 view .LVU918
 2929              	.LBB405:
 2930              	.LBI405:
 2931              		.loc 2 1119 31 discriminator 1 view .LVU919
 2932              	.LBB406:
 2933              		.loc 2 1121 4 discriminator 1 view .LVU920
 2934              		.loc 2 1123 4 discriminator 1 view .LVU921
 2935 006a 1432     		adds	r2, r2, #20
 2936              	.LVL263:
 2937              		.loc 2 1123 4 is_stmt 0 discriminator 1 view .LVU922
 2938              		.syntax unified
 2939              	@ 1123 "Drivers/CMSIS/Include/cmsis_gcc.h" 1
 2940 006c 42E80031 		strex r1, r3, [r2]
 2941              	@ 0 "" 2
 2942              	.LVL264:
ARM GAS  C:\Users\HP\AppData\Local\Temp\cc3vbRST.s 			page 52


 2943              		.loc 2 1124 4 is_stmt 1 discriminator 1 view .LVU923
 2944              		.loc 2 1124 4 is_stmt 0 discriminator 1 view .LVU924
 2945              		.thumb
 2946              		.syntax unified
 2947              	.LBE406:
 2948              	.LBE405:
 2949              		.loc 1 1557 5 discriminator 1 view .LVU925
 2950 0070 0029     		cmp	r1, #0
 2951 0072 F3D1     		bne	.L176
 2952              	.LBE402:
 2953              		.loc 1 1557 5 is_stmt 1 discriminator 2 view .LVU926
 2954              		.loc 1 1560 5 discriminator 2 view .LVU927
 2955              		.loc 1 1560 14 is_stmt 0 discriminator 2 view .LVU928
 2956 0074 E06B     		ldr	r0, [r4, #60]
 2957              		.loc 1 1560 8 discriminator 2 view .LVU929
 2958 0076 08B1     		cbz	r0, .L177
 2959              		.loc 1 1562 7 is_stmt 1 view .LVU930
 2960 0078 024B     		ldr	r3, .L181
 2961              	.LVL265:
 2962              		.loc 1 1562 7 is_stmt 0 view .LVU931
 2963 007a 9847     		blx	r3
 2964              	.LVL266:
 2965              	.L177:
 2966              		.loc 1 1564 5 is_stmt 1 view .LVU932
 2967 007c 2046     		mov	r0, r4
 2968 007e 034B     		ldr	r3, .L181+8
 2969 0080 9847     		blx	r3
 2970              	.LVL267:
 2971 0082 CFE7     		b	.L175
 2972              	.L182:
 2973              		.align	2
 2974              	.L181:
 2975 0084 00000000 		.word	HAL_DMA_Abort
 2976 0088 00000000 		.word	UART_EndTxTransfer
 2977 008c 00000000 		.word	UART_EndRxTransfer
 2978              		.cfi_endproc
 2979              	.LFE80:
 2981              		.section	.text.HAL_UARTEx_ReceiveToIdle,"ax",%progbits
 2982              		.align	1
 2983              		.global	HAL_UARTEx_ReceiveToIdle
 2984              		.syntax unified
 2985              		.thumb
 2986              		.thumb_func
 2987              		.fpu softvfp
 2989              	HAL_UARTEx_ReceiveToIdle:
 2990              	.LVL268:
 2991              	.LFB81:
 2992              		.loc 1 1587 1 view -0
 2993              		.cfi_startproc
 2994              		@ args = 4, pretend = 0, frame = 8
 2995              		@ frame_needed = 0, uses_anonymous_args = 0
 2996              		.loc 1 1587 1 is_stmt 0 view .LVU934
 2997 0000 2DE9F043 		push	{r4, r5, r6, r7, r8, r9, lr}
 2998              	.LCFI24:
 2999              		.cfi_def_cfa_offset 28
 3000              		.cfi_offset 4, -28
 3001              		.cfi_offset 5, -24
ARM GAS  C:\Users\HP\AppData\Local\Temp\cc3vbRST.s 			page 53


 3002              		.cfi_offset 6, -20
 3003              		.cfi_offset 7, -16
 3004              		.cfi_offset 8, -12
 3005              		.cfi_offset 9, -8
 3006              		.cfi_offset 14, -4
 3007 0004 83B0     		sub	sp, sp, #12
 3008              	.LCFI25:
 3009              		.cfi_def_cfa_offset 40
 3010 0006 1E46     		mov	r6, r3
 3011 0008 0A9F     		ldr	r7, [sp, #40]
 3012              		.loc 1 1588 3 is_stmt 1 view .LVU935
 3013              		.loc 1 1589 3 view .LVU936
 3014              		.loc 1 1590 3 view .LVU937
 3015              		.loc 1 1593 3 view .LVU938
 3016              		.loc 1 1593 12 is_stmt 0 view .LVU939
 3017 000a 90F84230 		ldrb	r3, [r0, #66]	@ zero_extendqisi2
 3018              	.LVL269:
 3019              		.loc 1 1593 12 view .LVU940
 3020 000e DBB2     		uxtb	r3, r3
 3021              		.loc 1 1593 6 view .LVU941
 3022 0010 202B     		cmp	r3, #32
 3023 0012 7FD1     		bne	.L197
 3024 0014 0446     		mov	r4, r0
 3025 0016 0D46     		mov	r5, r1
 3026 0018 9146     		mov	r9, r2
 3027              		.loc 1 1595 5 is_stmt 1 view .LVU942
 3028              		.loc 1 1595 8 is_stmt 0 view .LVU943
 3029 001a 0029     		cmp	r1, #0
 3030 001c 7ED0     		beq	.L198
 3031              		.loc 1 1595 25 discriminator 1 view .LVU944
 3032 001e 0AB9     		cbnz	r2, .L203
 3033              		.loc 1 1597 15 view .LVU945
 3034 0020 0120     		movs	r0, #1
 3035              	.LVL270:
 3036              		.loc 1 1597 15 view .LVU946
 3037 0022 78E0     		b	.L184
 3038              	.LVL271:
 3039              	.L203:
 3040              		.loc 1 1600 5 is_stmt 1 view .LVU947
 3041              		.loc 1 1600 22 is_stmt 0 view .LVU948
 3042 0024 0023     		movs	r3, #0
 3043 0026 4364     		str	r3, [r0, #68]
 3044              		.loc 1 1601 5 is_stmt 1 view .LVU949
 3045              		.loc 1 1601 20 is_stmt 0 view .LVU950
 3046 0028 2222     		movs	r2, #34
 3047              	.LVL272:
 3048              		.loc 1 1601 20 view .LVU951
 3049 002a 80F84220 		strb	r2, [r0, #66]
 3050              		.loc 1 1602 5 is_stmt 1 view .LVU952
 3051              		.loc 1 1602 26 is_stmt 0 view .LVU953
 3052 002e 0122     		movs	r2, #1
 3053 0030 0263     		str	r2, [r0, #48]
 3054              		.loc 1 1603 5 is_stmt 1 view .LVU954
 3055              		.loc 1 1603 24 is_stmt 0 view .LVU955
 3056 0032 4363     		str	r3, [r0, #52]
 3057              		.loc 1 1606 5 is_stmt 1 view .LVU956
 3058              		.loc 1 1606 17 is_stmt 0 view .LVU957
ARM GAS  C:\Users\HP\AppData\Local\Temp\cc3vbRST.s 			page 54


 3059 0034 3A4B     		ldr	r3, .L209
 3060 0036 9847     		blx	r3
 3061              	.LVL273:
 3062              		.loc 1 1606 17 view .LVU958
 3063 0038 8046     		mov	r8, r0
 3064              	.LVL274:
 3065              		.loc 1 1608 5 is_stmt 1 view .LVU959
 3066              		.loc 1 1608 24 is_stmt 0 view .LVU960
 3067 003a A4F82C90 		strh	r9, [r4, #44]	@ movhi
 3068              		.loc 1 1609 5 is_stmt 1 view .LVU961
 3069              		.loc 1 1609 24 is_stmt 0 view .LVU962
 3070 003e A4F82E90 		strh	r9, [r4, #46]	@ movhi
 3071              		.loc 1 1612 5 is_stmt 1 view .LVU963
 3072              		.loc 1 1612 21 is_stmt 0 view .LVU964
 3073 0042 A368     		ldr	r3, [r4, #8]
 3074              		.loc 1 1612 8 view .LVU965
 3075 0044 B3F5805F 		cmp	r3, #4096
 3076 0048 04D0     		beq	.L204
 3077              		.loc 1 1620 19 view .LVU966
 3078 004a 4FF00009 		mov	r9, #0
 3079              	.LVL275:
 3080              	.L185:
 3081              		.loc 1 1624 5 is_stmt 1 view .LVU967
 3082              		.loc 1 1624 12 is_stmt 0 view .LVU968
 3083 004e 0023     		movs	r3, #0
 3084 0050 3380     		strh	r3, [r6]	@ movhi
 3085              		.loc 1 1627 5 is_stmt 1 view .LVU969
 3086              		.loc 1 1627 11 is_stmt 0 view .LVU970
 3087 0052 22E0     		b	.L186
 3088              	.LVL276:
 3089              	.L204:
 3090              		.loc 1 1612 71 discriminator 1 view .LVU971
 3091 0054 2369     		ldr	r3, [r4, #16]
 3092              		.loc 1 1612 56 discriminator 1 view .LVU972
 3093 0056 13B1     		cbz	r3, .L201
 3094              		.loc 1 1620 19 view .LVU973
 3095 0058 4FF00009 		mov	r9, #0
 3096 005c F7E7     		b	.L185
 3097              	.L201:
 3098              		.loc 1 1615 19 view .LVU974
 3099 005e A946     		mov	r9, r5
 3100              		.loc 1 1614 19 view .LVU975
 3101 0060 0025     		movs	r5, #0
 3102              	.LVL277:
 3103              		.loc 1 1614 19 view .LVU976
 3104 0062 F4E7     		b	.L185
 3105              	.LVL278:
 3106              	.L207:
 3107              		.loc 1 1639 11 is_stmt 1 view .LVU977
 3108              		.loc 1 1639 30 is_stmt 0 view .LVU978
 3109 0064 0223     		movs	r3, #2
 3110 0066 6363     		str	r3, [r4, #52]
 3111              		.loc 1 1640 11 is_stmt 1 view .LVU979
 3112              		.loc 1 1640 26 is_stmt 0 view .LVU980
 3113 0068 2023     		movs	r3, #32
 3114 006a 84F84230 		strb	r3, [r4, #66]
 3115              		.loc 1 1642 11 is_stmt 1 view .LVU981
ARM GAS  C:\Users\HP\AppData\Local\Temp\cc3vbRST.s 			page 55


 3116              		.loc 1 1642 18 is_stmt 0 view .LVU982
 3117 006e 0020     		movs	r0, #0
 3118 0070 51E0     		b	.L184
 3119              	.L208:
 3120              		.loc 1 1651 11 is_stmt 1 view .LVU983
 3121              		.loc 1 1651 52 is_stmt 0 view .LVU984
 3122 0072 5368     		ldr	r3, [r2, #4]
 3123              		.loc 1 1651 26 view .LVU985
 3124 0074 C3F30803 		ubfx	r3, r3, #0, #9
 3125              		.loc 1 1651 24 view .LVU986
 3126 0078 29F8023B 		strh	r3, [r9], #2	@ movhi
 3127              	.LVL279:
 3128              		.loc 1 1652 11 is_stmt 1 view .LVU987
 3129              		.loc 1 1652 11 is_stmt 0 view .LVU988
 3130 007c 02E0     		b	.L190
 3131              	.L191:
 3132              		.loc 1 1658 13 is_stmt 1 view .LVU989
 3133              		.loc 1 1658 52 is_stmt 0 view .LVU990
 3134 007e 5368     		ldr	r3, [r2, #4]
 3135              		.loc 1 1658 25 view .LVU991
 3136 0080 2B70     		strb	r3, [r5]
 3137              	.L193:
 3138              		.loc 1 1665 11 is_stmt 1 view .LVU992
 3139              		.loc 1 1665 21 is_stmt 0 view .LVU993
 3140 0082 0135     		adds	r5, r5, #1
 3141              	.LVL280:
 3142              	.L190:
 3143              		.loc 1 1668 9 is_stmt 1 view .LVU994
 3144              		.loc 1 1668 16 is_stmt 0 view .LVU995
 3145 0084 3388     		ldrh	r3, [r6]
 3146 0086 0133     		adds	r3, r3, #1
 3147 0088 3380     		strh	r3, [r6]	@ movhi
 3148              		.loc 1 1669 9 is_stmt 1 view .LVU996
 3149              		.loc 1 1669 14 is_stmt 0 view .LVU997
 3150 008a E38D     		ldrh	r3, [r4, #46]
 3151 008c 9BB2     		uxth	r3, r3
 3152              		.loc 1 1669 27 view .LVU998
 3153 008e 013B     		subs	r3, r3, #1
 3154 0090 9BB2     		uxth	r3, r3
 3155 0092 E385     		strh	r3, [r4, #46]	@ movhi
 3156              	.L188:
 3157              		.loc 1 1673 7 is_stmt 1 view .LVU999
 3158              		.loc 1 1673 10 is_stmt 0 view .LVU1000
 3159 0094 B7F1FF3F 		cmp	r7, #-1
 3160 0098 25D1     		bne	.L205
 3161              	.L186:
 3162              		.loc 1 1627 11 is_stmt 1 view .LVU1001
 3163              		.loc 1 1627 17 is_stmt 0 view .LVU1002
 3164 009a E28D     		ldrh	r2, [r4, #46]
 3165 009c 92B2     		uxth	r2, r2
 3166              		.loc 1 1627 11 view .LVU1003
 3167 009e 002A     		cmp	r2, #0
 3168 00a0 2ED0     		beq	.L206
 3169              		.loc 1 1630 7 is_stmt 1 view .LVU1004
 3170              		.loc 1 1630 11 is_stmt 0 view .LVU1005
 3171 00a2 2268     		ldr	r2, [r4]
 3172 00a4 1368     		ldr	r3, [r2]
ARM GAS  C:\Users\HP\AppData\Local\Temp\cc3vbRST.s 			page 56


 3173              		.loc 1 1630 10 view .LVU1006
 3174 00a6 13F0100F 		tst	r3, #16
 3175 00aa 09D0     		beq	.L187
 3176              		.loc 1 1633 9 is_stmt 1 view .LVU1007
 3177              	.LBB407:
 3178              		.loc 1 1633 9 view .LVU1008
 3179 00ac 0023     		movs	r3, #0
 3180 00ae 0193     		str	r3, [sp, #4]
 3181              		.loc 1 1633 9 view .LVU1009
 3182 00b0 1368     		ldr	r3, [r2]
 3183 00b2 0193     		str	r3, [sp, #4]
 3184              		.loc 1 1633 9 view .LVU1010
 3185 00b4 5368     		ldr	r3, [r2, #4]
 3186 00b6 0193     		str	r3, [sp, #4]
 3187              		.loc 1 1633 9 view .LVU1011
 3188 00b8 019B     		ldr	r3, [sp, #4]
 3189              	.LBE407:
 3190              		.loc 1 1633 9 view .LVU1012
 3191              		.loc 1 1637 9 view .LVU1013
 3192              		.loc 1 1637 13 is_stmt 0 view .LVU1014
 3193 00ba 3388     		ldrh	r3, [r6]
 3194              		.loc 1 1637 12 view .LVU1015
 3195 00bc 002B     		cmp	r3, #0
 3196 00be D1D1     		bne	.L207
 3197              	.L187:
 3198              		.loc 1 1647 7 is_stmt 1 view .LVU1016
 3199              		.loc 1 1647 11 is_stmt 0 view .LVU1017
 3200 00c0 1368     		ldr	r3, [r2]
 3201              		.loc 1 1647 10 view .LVU1018
 3202 00c2 13F0200F 		tst	r3, #32
 3203 00c6 E5D0     		beq	.L188
 3204              		.loc 1 1649 9 is_stmt 1 view .LVU1019
 3205              		.loc 1 1649 12 is_stmt 0 view .LVU1020
 3206 00c8 002D     		cmp	r5, #0
 3207 00ca D2D0     		beq	.L208
 3208              		.loc 1 1656 11 is_stmt 1 view .LVU1021
 3209              		.loc 1 1656 27 is_stmt 0 view .LVU1022
 3210 00cc A368     		ldr	r3, [r4, #8]
 3211              		.loc 1 1656 14 view .LVU1023
 3212 00ce B3F5805F 		cmp	r3, #4096
 3213 00d2 D4D0     		beq	.L191
 3214              		.loc 1 1656 62 discriminator 1 view .LVU1024
 3215 00d4 13B9     		cbnz	r3, .L192
 3216              		.loc 1 1656 128 discriminator 2 view .LVU1025
 3217 00d6 2369     		ldr	r3, [r4, #16]
 3218              		.loc 1 1656 113 discriminator 2 view .LVU1026
 3219 00d8 002B     		cmp	r3, #0
 3220 00da D0D0     		beq	.L191
 3221              	.L192:
 3222              		.loc 1 1662 13 is_stmt 1 view .LVU1027
 3223              		.loc 1 1662 52 is_stmt 0 view .LVU1028
 3224 00dc 5368     		ldr	r3, [r2, #4]
 3225              		.loc 1 1662 27 view .LVU1029
 3226 00de 03F07F03 		and	r3, r3, #127
 3227              		.loc 1 1662 25 view .LVU1030
 3228 00e2 2B70     		strb	r3, [r5]
 3229 00e4 CDE7     		b	.L193
ARM GAS  C:\Users\HP\AppData\Local\Temp\cc3vbRST.s 			page 57


 3230              	.L205:
 3231              		.loc 1 1675 9 is_stmt 1 view .LVU1031
 3232              		.loc 1 1675 15 is_stmt 0 view .LVU1032
 3233 00e6 0E4B     		ldr	r3, .L209
 3234 00e8 9847     		blx	r3
 3235              	.LVL281:
 3236              		.loc 1 1675 29 view .LVU1033
 3237 00ea A0EB0800 		sub	r0, r0, r8
 3238              		.loc 1 1675 12 view .LVU1034
 3239 00ee B842     		cmp	r0, r7
 3240 00f0 01D8     		bhi	.L195
 3241              		.loc 1 1675 53 discriminator 1 view .LVU1035
 3242 00f2 002F     		cmp	r7, #0
 3243 00f4 D1D1     		bne	.L186
 3244              	.L195:
 3245              		.loc 1 1677 11 is_stmt 1 view .LVU1036
 3246              		.loc 1 1677 26 is_stmt 0 view .LVU1037
 3247 00f6 2023     		movs	r3, #32
 3248 00f8 84F84230 		strb	r3, [r4, #66]
 3249              		.loc 1 1679 11 is_stmt 1 view .LVU1038
 3250              		.loc 1 1679 18 is_stmt 0 view .LVU1039
 3251 00fc 0320     		movs	r0, #3
 3252 00fe 0AE0     		b	.L184
 3253              	.L206:
 3254              		.loc 1 1685 5 is_stmt 1 view .LVU1040
 3255              		.loc 1 1685 19 is_stmt 0 view .LVU1041
 3256 0100 A38D     		ldrh	r3, [r4, #44]
 3257              		.loc 1 1685 39 view .LVU1042
 3258 0102 E28D     		ldrh	r2, [r4, #46]
 3259 0104 92B2     		uxth	r2, r2
 3260              		.loc 1 1685 32 view .LVU1043
 3261 0106 9B1A     		subs	r3, r3, r2
 3262              		.loc 1 1685 12 view .LVU1044
 3263 0108 3380     		strh	r3, [r6]	@ movhi
 3264              		.loc 1 1687 5 is_stmt 1 view .LVU1045
 3265              		.loc 1 1687 20 is_stmt 0 view .LVU1046
 3266 010a 2023     		movs	r3, #32
 3267 010c 84F84230 		strb	r3, [r4, #66]
 3268              		.loc 1 1689 5 is_stmt 1 view .LVU1047
 3269              		.loc 1 1689 12 is_stmt 0 view .LVU1048
 3270 0110 0020     		movs	r0, #0
 3271 0112 00E0     		b	.L184
 3272              	.LVL282:
 3273              	.L197:
 3274              		.loc 1 1693 12 view .LVU1049
 3275 0114 0220     		movs	r0, #2
 3276              	.LVL283:
 3277              	.L184:
 3278              		.loc 1 1695 1 view .LVU1050
 3279 0116 03B0     		add	sp, sp, #12
 3280              	.LCFI26:
 3281              		.cfi_remember_state
 3282              		.cfi_def_cfa_offset 28
 3283              		@ sp needed
 3284 0118 BDE8F083 		pop	{r4, r5, r6, r7, r8, r9, pc}
 3285              	.LVL284:
 3286              	.L198:
ARM GAS  C:\Users\HP\AppData\Local\Temp\cc3vbRST.s 			page 58


 3287              	.LCFI27:
 3288              		.cfi_restore_state
 3289              		.loc 1 1597 15 view .LVU1051
 3290 011c 0120     		movs	r0, #1
 3291              	.LVL285:
 3292              		.loc 1 1597 15 view .LVU1052
 3293 011e FAE7     		b	.L184
 3294              	.L210:
 3295              		.align	2
 3296              	.L209:
 3297 0120 00000000 		.word	HAL_GetTick
 3298              		.cfi_endproc
 3299              	.LFE81:
 3301              		.section	.text.HAL_UARTEx_GetRxEventType,"ax",%progbits
 3302              		.align	1
 3303              		.global	HAL_UARTEx_GetRxEventType
 3304              		.syntax unified
 3305              		.thumb
 3306              		.thumb_func
 3307              		.fpu softvfp
 3309              	HAL_UARTEx_GetRxEventType:
 3310              	.LVL286:
 3311              	.LFB84:
 3312              		.loc 1 1839 1 is_stmt 1 view -0
 3313              		.cfi_startproc
 3314              		@ args = 0, pretend = 0, frame = 0
 3315              		@ frame_needed = 0, uses_anonymous_args = 0
 3316              		@ link register save eliminated.
 3317              		.loc 1 1841 3 view .LVU1054
 3318              		.loc 1 1841 15 is_stmt 0 view .LVU1055
 3319 0000 406B     		ldr	r0, [r0, #52]
 3320              	.LVL287:
 3321              		.loc 1 1842 1 view .LVU1056
 3322 0002 7047     		bx	lr
 3323              		.cfi_endproc
 3324              	.LFE84:
 3326              		.section	.text.HAL_UART_Abort,"ax",%progbits
 3327              		.align	1
 3328              		.global	HAL_UART_Abort
 3329              		.syntax unified
 3330              		.thumb
 3331              		.thumb_func
 3332              		.fpu softvfp
 3334              	HAL_UART_Abort:
 3335              	.LVL288:
 3336              	.LFB85:
 3337              		.loc 1 1857 1 is_stmt 1 view -0
 3338              		.cfi_startproc
 3339              		@ args = 0, pretend = 0, frame = 0
 3340              		@ frame_needed = 0, uses_anonymous_args = 0
 3341              		.loc 1 1857 1 is_stmt 0 view .LVU1058
 3342 0000 10B5     		push	{r4, lr}
 3343              	.LCFI28:
 3344              		.cfi_def_cfa_offset 8
 3345              		.cfi_offset 4, -8
 3346              		.cfi_offset 14, -4
 3347 0002 0446     		mov	r4, r0
ARM GAS  C:\Users\HP\AppData\Local\Temp\cc3vbRST.s 			page 59


 3348              	.L213:
 3349              		.loc 1 1859 3 is_stmt 1 discriminator 1 view .LVU1059
 3350              	.LBB408:
 3351              		.loc 1 1859 3 discriminator 1 view .LVU1060
 3352              		.loc 1 1859 3 discriminator 1 view .LVU1061
 3353              		.loc 1 1859 3 discriminator 1 view .LVU1062
 3354 0004 2268     		ldr	r2, [r4]
 3355              	.LVL289:
 3356              	.LBB409:
 3357              	.LBI409:
 3358              		.loc 2 1068 31 discriminator 1 view .LVU1063
 3359              	.LBB410:
 3360              		.loc 2 1070 5 discriminator 1 view .LVU1064
 3361              		.loc 2 1072 4 discriminator 1 view .LVU1065
 3362 0006 02F10C03 		add	r3, r2, #12
 3363              	.LVL290:
 3364              		.loc 2 1072 4 is_stmt 0 discriminator 1 view .LVU1066
 3365              		.syntax unified
 3366              	@ 1072 "Drivers/CMSIS/Include/cmsis_gcc.h" 1
 3367 000a 53E8003F 		ldrex r3, [r3]
 3368              	@ 0 "" 2
 3369              	.LVL291:
 3370              		.loc 2 1073 4 is_stmt 1 discriminator 1 view .LVU1067
 3371              		.loc 2 1073 4 is_stmt 0 discriminator 1 view .LVU1068
 3372              		.thumb
 3373              		.syntax unified
 3374              	.LBE410:
 3375              	.LBE409:
 3376              		.loc 1 1859 3 discriminator 1 view .LVU1069
 3377 000e 23F4F073 		bic	r3, r3, #480
 3378              	.LVL292:
 3379              		.loc 1 1859 3 is_stmt 1 discriminator 1 view .LVU1070
 3380              	.LBB411:
 3381              	.LBI411:
 3382              		.loc 2 1119 31 discriminator 1 view .LVU1071
 3383              	.LBB412:
 3384              		.loc 2 1121 4 discriminator 1 view .LVU1072
 3385              		.loc 2 1123 4 discriminator 1 view .LVU1073
 3386 0012 0C32     		adds	r2, r2, #12
 3387              	.LVL293:
 3388              		.loc 2 1123 4 is_stmt 0 discriminator 1 view .LVU1074
 3389              		.syntax unified
 3390              	@ 1123 "Drivers/CMSIS/Include/cmsis_gcc.h" 1
 3391 0014 42E80031 		strex r1, r3, [r2]
 3392              	@ 0 "" 2
 3393              	.LVL294:
 3394              		.loc 2 1124 4 is_stmt 1 discriminator 1 view .LVU1075
 3395              		.loc 2 1124 4 is_stmt 0 discriminator 1 view .LVU1076
 3396              		.thumb
 3397              		.syntax unified
 3398              	.LBE412:
 3399              	.LBE411:
 3400              		.loc 1 1859 3 discriminator 1 view .LVU1077
 3401 0018 0029     		cmp	r1, #0
 3402 001a F3D1     		bne	.L213
 3403              	.LVL295:
 3404              	.L214:
ARM GAS  C:\Users\HP\AppData\Local\Temp\cc3vbRST.s 			page 60


 3405              		.loc 1 1859 3 discriminator 1 view .LVU1078
 3406              	.LBE408:
 3407              		.loc 1 1859 3 is_stmt 1 discriminator 1 view .LVU1079
 3408              		.loc 1 1860 3 discriminator 1 view .LVU1080
 3409              	.LBB413:
 3410              		.loc 1 1860 3 discriminator 1 view .LVU1081
 3411              		.loc 1 1860 3 discriminator 1 view .LVU1082
 3412              		.loc 1 1860 3 discriminator 1 view .LVU1083
 3413 001c 2268     		ldr	r2, [r4]
 3414              	.LVL296:
 3415              	.LBB414:
 3416              	.LBI414:
 3417              		.loc 2 1068 31 discriminator 1 view .LVU1084
 3418              	.LBB415:
 3419              		.loc 2 1070 5 discriminator 1 view .LVU1085
 3420              		.loc 2 1072 4 discriminator 1 view .LVU1086
 3421 001e 02F11403 		add	r3, r2, #20
 3422              	.LVL297:
 3423              		.loc 2 1072 4 is_stmt 0 discriminator 1 view .LVU1087
 3424              		.syntax unified
 3425              	@ 1072 "Drivers/CMSIS/Include/cmsis_gcc.h" 1
 3426 0022 53E8003F 		ldrex r3, [r3]
 3427              	@ 0 "" 2
 3428              	.LVL298:
 3429              		.loc 2 1073 4 is_stmt 1 discriminator 1 view .LVU1088
 3430              		.loc 2 1073 4 is_stmt 0 discriminator 1 view .LVU1089
 3431              		.thumb
 3432              		.syntax unified
 3433              	.LBE415:
 3434              	.LBE414:
 3435              		.loc 1 1860 3 discriminator 1 view .LVU1090
 3436 0026 23F00103 		bic	r3, r3, #1
 3437              	.LVL299:
 3438              		.loc 1 1860 3 is_stmt 1 discriminator 1 view .LVU1091
 3439              	.LBB416:
 3440              	.LBI416:
 3441              		.loc 2 1119 31 discriminator 1 view .LVU1092
 3442              	.LBB417:
 3443              		.loc 2 1121 4 discriminator 1 view .LVU1093
 3444              		.loc 2 1123 4 discriminator 1 view .LVU1094
 3445 002a 1432     		adds	r2, r2, #20
 3446              	.LVL300:
 3447              		.loc 2 1123 4 is_stmt 0 discriminator 1 view .LVU1095
 3448              		.syntax unified
 3449              	@ 1123 "Drivers/CMSIS/Include/cmsis_gcc.h" 1
 3450 002c 42E80031 		strex r1, r3, [r2]
 3451              	@ 0 "" 2
 3452              	.LVL301:
 3453              		.loc 2 1124 4 is_stmt 1 discriminator 1 view .LVU1096
 3454              		.loc 2 1124 4 is_stmt 0 discriminator 1 view .LVU1097
 3455              		.thumb
 3456              		.syntax unified
 3457              	.LBE417:
 3458              	.LBE416:
 3459              		.loc 1 1860 3 discriminator 1 view .LVU1098
 3460 0030 0029     		cmp	r1, #0
 3461 0032 F3D1     		bne	.L214
ARM GAS  C:\Users\HP\AppData\Local\Temp\cc3vbRST.s 			page 61


 3462              	.LBE413:
 3463              		.loc 1 1860 3 is_stmt 1 discriminator 2 view .LVU1099
 3464              		.loc 1 1863 3 discriminator 2 view .LVU1100
 3465              		.loc 1 1863 12 is_stmt 0 discriminator 2 view .LVU1101
 3466 0034 236B     		ldr	r3, [r4, #48]
 3467              	.LVL302:
 3468              		.loc 1 1863 6 discriminator 2 view .LVU1102
 3469 0036 012B     		cmp	r3, #1
 3470 0038 3DD0     		beq	.L216
 3471              	.L215:
 3472              		.loc 1 1865 5 is_stmt 1 discriminator 2 view .LVU1103
 3473              		.loc 1 1869 3 discriminator 2 view .LVU1104
 3474              		.loc 1 1869 7 is_stmt 0 discriminator 2 view .LVU1105
 3475 003a 2368     		ldr	r3, [r4]
 3476 003c 5B69     		ldr	r3, [r3, #20]
 3477              		.loc 1 1869 6 discriminator 2 view .LVU1106
 3478 003e 13F0800F 		tst	r3, #128
 3479 0042 14D0     		beq	.L217
 3480              	.L218:
 3481              		.loc 1 1871 5 is_stmt 1 discriminator 1 view .LVU1107
 3482              	.LBB418:
 3483              		.loc 1 1871 5 discriminator 1 view .LVU1108
 3484              		.loc 1 1871 5 discriminator 1 view .LVU1109
 3485              		.loc 1 1871 5 discriminator 1 view .LVU1110
 3486 0044 2268     		ldr	r2, [r4]
 3487              	.LVL303:
 3488              	.LBB419:
 3489              	.LBI419:
 3490              		.loc 2 1068 31 discriminator 1 view .LVU1111
 3491              	.LBB420:
 3492              		.loc 2 1070 5 discriminator 1 view .LVU1112
 3493              		.loc 2 1072 4 discriminator 1 view .LVU1113
 3494 0046 02F11403 		add	r3, r2, #20
 3495              	.LVL304:
 3496              		.loc 2 1072 4 is_stmt 0 discriminator 1 view .LVU1114
 3497              		.syntax unified
 3498              	@ 1072 "Drivers/CMSIS/Include/cmsis_gcc.h" 1
 3499 004a 53E8003F 		ldrex r3, [r3]
 3500              	@ 0 "" 2
 3501              	.LVL305:
 3502              		.loc 2 1073 4 is_stmt 1 discriminator 1 view .LVU1115
 3503              		.loc 2 1073 4 is_stmt 0 discriminator 1 view .LVU1116
 3504              		.thumb
 3505              		.syntax unified
 3506              	.LBE420:
 3507              	.LBE419:
 3508              		.loc 1 1871 5 discriminator 1 view .LVU1117
 3509 004e 23F08003 		bic	r3, r3, #128
 3510              	.LVL306:
 3511              		.loc 1 1871 5 is_stmt 1 discriminator 1 view .LVU1118
 3512              	.LBB421:
 3513              	.LBI421:
 3514              		.loc 2 1119 31 discriminator 1 view .LVU1119
 3515              	.LBB422:
 3516              		.loc 2 1121 4 discriminator 1 view .LVU1120
 3517              		.loc 2 1123 4 discriminator 1 view .LVU1121
 3518 0052 1432     		adds	r2, r2, #20
ARM GAS  C:\Users\HP\AppData\Local\Temp\cc3vbRST.s 			page 62


 3519              	.LVL307:
 3520              		.loc 2 1123 4 is_stmt 0 discriminator 1 view .LVU1122
 3521              		.syntax unified
 3522              	@ 1123 "Drivers/CMSIS/Include/cmsis_gcc.h" 1
 3523 0054 42E80031 		strex r1, r3, [r2]
 3524              	@ 0 "" 2
 3525              	.LVL308:
 3526              		.loc 2 1124 4 is_stmt 1 discriminator 1 view .LVU1123
 3527              		.loc 2 1124 4 is_stmt 0 discriminator 1 view .LVU1124
 3528              		.thumb
 3529              		.syntax unified
 3530              	.LBE422:
 3531              	.LBE421:
 3532              		.loc 1 1871 5 discriminator 1 view .LVU1125
 3533 0058 0029     		cmp	r1, #0
 3534 005a F3D1     		bne	.L218
 3535              	.LBE418:
 3536              		.loc 1 1871 5 is_stmt 1 discriminator 2 view .LVU1126
 3537              		.loc 1 1874 5 discriminator 2 view .LVU1127
 3538              		.loc 1 1874 14 is_stmt 0 discriminator 2 view .LVU1128
 3539 005c A36B     		ldr	r3, [r4, #56]
 3540              	.LVL309:
 3541              		.loc 1 1874 8 discriminator 2 view .LVU1129
 3542 005e 33B1     		cbz	r3, .L217
 3543              		.loc 1 1878 7 is_stmt 1 view .LVU1130
 3544              		.loc 1 1878 40 is_stmt 0 view .LVU1131
 3545 0060 0022     		movs	r2, #0
 3546 0062 5A63     		str	r2, [r3, #52]
 3547              		.loc 1 1880 7 is_stmt 1 view .LVU1132
 3548              		.loc 1 1880 11 is_stmt 0 view .LVU1133
 3549 0064 A06B     		ldr	r0, [r4, #56]
 3550              	.LVL310:
 3551              		.loc 1 1880 11 view .LVU1134
 3552 0066 234B     		ldr	r3, .L225
 3553 0068 9847     		blx	r3
 3554              	.LVL311:
 3555              		.loc 1 1880 10 view .LVU1135
 3556 006a 0028     		cmp	r0, #0
 3557 006c 30D1     		bne	.L223
 3558              	.L217:
 3559              		.loc 1 1894 3 is_stmt 1 view .LVU1136
 3560              		.loc 1 1894 7 is_stmt 0 view .LVU1137
 3561 006e 2368     		ldr	r3, [r4]
 3562 0070 5B69     		ldr	r3, [r3, #20]
 3563              		.loc 1 1894 6 view .LVU1138
 3564 0072 13F0400F 		tst	r3, #64
 3565 0076 13D0     		beq	.L220
 3566              	.L221:
 3567              		.loc 1 1896 5 is_stmt 1 discriminator 1 view .LVU1139
 3568              	.LBB423:
 3569              		.loc 1 1896 5 discriminator 1 view .LVU1140
 3570              		.loc 1 1896 5 discriminator 1 view .LVU1141
 3571              		.loc 1 1896 5 discriminator 1 view .LVU1142
 3572 0078 2268     		ldr	r2, [r4]
 3573              	.LVL312:
 3574              	.LBB424:
 3575              	.LBI424:
ARM GAS  C:\Users\HP\AppData\Local\Temp\cc3vbRST.s 			page 63


 3576              		.loc 2 1068 31 discriminator 1 view .LVU1143
 3577              	.LBB425:
 3578              		.loc 2 1070 5 discriminator 1 view .LVU1144
 3579              		.loc 2 1072 4 discriminator 1 view .LVU1145
 3580 007a 02F11403 		add	r3, r2, #20
 3581              	.LVL313:
 3582              		.loc 2 1072 4 is_stmt 0 discriminator 1 view .LVU1146
 3583              		.syntax unified
 3584              	@ 1072 "Drivers/CMSIS/Include/cmsis_gcc.h" 1
 3585 007e 53E8003F 		ldrex r3, [r3]
 3586              	@ 0 "" 2
 3587              	.LVL314:
 3588              		.loc 2 1073 4 is_stmt 1 discriminator 1 view .LVU1147
 3589              		.loc 2 1073 4 is_stmt 0 discriminator 1 view .LVU1148
 3590              		.thumb
 3591              		.syntax unified
 3592              	.LBE425:
 3593              	.LBE424:
 3594              		.loc 1 1896 5 discriminator 1 view .LVU1149
 3595 0082 23F04003 		bic	r3, r3, #64
 3596              	.LVL315:
 3597              		.loc 1 1896 5 is_stmt 1 discriminator 1 view .LVU1150
 3598              	.LBB426:
 3599              	.LBI426:
 3600              		.loc 2 1119 31 discriminator 1 view .LVU1151
 3601              	.LBB427:
 3602              		.loc 2 1121 4 discriminator 1 view .LVU1152
 3603              		.loc 2 1123 4 discriminator 1 view .LVU1153
 3604 0086 1432     		adds	r2, r2, #20
 3605              	.LVL316:
 3606              		.loc 2 1123 4 is_stmt 0 discriminator 1 view .LVU1154
 3607              		.syntax unified
 3608              	@ 1123 "Drivers/CMSIS/Include/cmsis_gcc.h" 1
 3609 0088 42E80031 		strex r1, r3, [r2]
 3610              	@ 0 "" 2
 3611              	.LVL317:
 3612              		.loc 2 1124 4 is_stmt 1 discriminator 1 view .LVU1155
 3613              		.loc 2 1124 4 is_stmt 0 discriminator 1 view .LVU1156
 3614              		.thumb
 3615              		.syntax unified
 3616              	.LBE427:
 3617              	.LBE426:
 3618              		.loc 1 1896 5 discriminator 1 view .LVU1157
 3619 008c 0029     		cmp	r1, #0
 3620 008e F3D1     		bne	.L221
 3621              	.LBE423:
 3622              		.loc 1 1896 5 is_stmt 1 discriminator 2 view .LVU1158
 3623              		.loc 1 1899 5 discriminator 2 view .LVU1159
 3624              		.loc 1 1899 14 is_stmt 0 discriminator 2 view .LVU1160
 3625 0090 E36B     		ldr	r3, [r4, #60]
 3626              	.LVL318:
 3627              		.loc 1 1899 8 discriminator 2 view .LVU1161
 3628 0092 2BB1     		cbz	r3, .L220
 3629              		.loc 1 1903 7 is_stmt 1 view .LVU1162
 3630              		.loc 1 1903 40 is_stmt 0 view .LVU1163
 3631 0094 0022     		movs	r2, #0
 3632 0096 5A63     		str	r2, [r3, #52]
ARM GAS  C:\Users\HP\AppData\Local\Temp\cc3vbRST.s 			page 64


 3633              		.loc 1 1905 7 is_stmt 1 view .LVU1164
 3634              		.loc 1 1905 11 is_stmt 0 view .LVU1165
 3635 0098 E06B     		ldr	r0, [r4, #60]
 3636 009a 164B     		ldr	r3, .L225
 3637 009c 9847     		blx	r3
 3638              	.LVL319:
 3639              		.loc 1 1905 10 view .LVU1166
 3640 009e 00BB     		cbnz	r0, .L224
 3641              	.L220:
 3642              		.loc 1 1919 3 is_stmt 1 view .LVU1167
 3643              		.loc 1 1919 22 is_stmt 0 view .LVU1168
 3644 00a0 0020     		movs	r0, #0
 3645 00a2 E084     		strh	r0, [r4, #38]	@ movhi
 3646              		.loc 1 1920 3 is_stmt 1 view .LVU1169
 3647              		.loc 1 1920 22 is_stmt 0 view .LVU1170
 3648 00a4 E085     		strh	r0, [r4, #46]	@ movhi
 3649              		.loc 1 1923 3 is_stmt 1 view .LVU1171
 3650              		.loc 1 1923 20 is_stmt 0 view .LVU1172
 3651 00a6 6064     		str	r0, [r4, #68]
 3652              		.loc 1 1926 3 is_stmt 1 view .LVU1173
 3653              		.loc 1 1926 18 is_stmt 0 view .LVU1174
 3654 00a8 2023     		movs	r3, #32
 3655 00aa 84F84230 		strb	r3, [r4, #66]
 3656              		.loc 1 1927 3 is_stmt 1 view .LVU1175
 3657              		.loc 1 1927 17 is_stmt 0 view .LVU1176
 3658 00ae 84F84130 		strb	r3, [r4, #65]
 3659              		.loc 1 1928 3 is_stmt 1 view .LVU1177
 3660              		.loc 1 1928 24 is_stmt 0 view .LVU1178
 3661 00b2 2063     		str	r0, [r4, #48]
 3662              		.loc 1 1930 3 is_stmt 1 view .LVU1179
 3663              	.L219:
 3664              		.loc 1 1931 1 is_stmt 0 view .LVU1180
 3665 00b4 10BD     		pop	{r4, pc}
 3666              	.LVL320:
 3667              	.L216:
 3668              		.loc 1 1865 5 is_stmt 1 discriminator 1 view .LVU1181
 3669              	.LBB428:
 3670              		.loc 1 1865 5 discriminator 1 view .LVU1182
 3671              		.loc 1 1865 5 discriminator 1 view .LVU1183
 3672              		.loc 1 1865 5 discriminator 1 view .LVU1184
 3673 00b6 2268     		ldr	r2, [r4]
 3674              	.LVL321:
 3675              	.LBB429:
 3676              	.LBI429:
 3677              		.loc 2 1068 31 discriminator 1 view .LVU1185
 3678              	.LBB430:
 3679              		.loc 2 1070 5 discriminator 1 view .LVU1186
 3680              		.loc 2 1072 4 discriminator 1 view .LVU1187
 3681 00b8 02F10C03 		add	r3, r2, #12
 3682              	.LVL322:
 3683              		.loc 2 1072 4 is_stmt 0 discriminator 1 view .LVU1188
 3684              		.syntax unified
 3685              	@ 1072 "Drivers/CMSIS/Include/cmsis_gcc.h" 1
 3686 00bc 53E8003F 		ldrex r3, [r3]
 3687              	@ 0 "" 2
 3688              	.LVL323:
 3689              		.loc 2 1073 4 is_stmt 1 discriminator 1 view .LVU1189
ARM GAS  C:\Users\HP\AppData\Local\Temp\cc3vbRST.s 			page 65


 3690              		.loc 2 1073 4 is_stmt 0 discriminator 1 view .LVU1190
 3691              		.thumb
 3692              		.syntax unified
 3693              	.LBE430:
 3694              	.LBE429:
 3695              		.loc 1 1865 5 discriminator 1 view .LVU1191
 3696 00c0 23F01003 		bic	r3, r3, #16
 3697              	.LVL324:
 3698              		.loc 1 1865 5 is_stmt 1 discriminator 1 view .LVU1192
 3699              	.LBB431:
 3700              	.LBI431:
 3701              		.loc 2 1119 31 discriminator 1 view .LVU1193
 3702              	.LBB432:
 3703              		.loc 2 1121 4 discriminator 1 view .LVU1194
 3704              		.loc 2 1123 4 discriminator 1 view .LVU1195
 3705 00c4 0C32     		adds	r2, r2, #12
 3706              	.LVL325:
 3707              		.loc 2 1123 4 is_stmt 0 discriminator 1 view .LVU1196
 3708              		.syntax unified
 3709              	@ 1123 "Drivers/CMSIS/Include/cmsis_gcc.h" 1
 3710 00c6 42E80031 		strex r1, r3, [r2]
 3711              	@ 0 "" 2
 3712              	.LVL326:
 3713              		.loc 2 1124 4 is_stmt 1 discriminator 1 view .LVU1197
 3714              		.loc 2 1124 4 is_stmt 0 discriminator 1 view .LVU1198
 3715              		.thumb
 3716              		.syntax unified
 3717              	.LBE432:
 3718              	.LBE431:
 3719              		.loc 1 1865 5 discriminator 1 view .LVU1199
 3720 00ca 0029     		cmp	r1, #0
 3721 00cc F3D1     		bne	.L216
 3722 00ce B4E7     		b	.L215
 3723              	.LVL327:
 3724              	.L223:
 3725              		.loc 1 1865 5 discriminator 1 view .LVU1200
 3726              	.LBE428:
 3727              		.loc 1 1882 9 is_stmt 1 view .LVU1201
 3728              		.loc 1 1882 13 is_stmt 0 view .LVU1202
 3729 00d0 A06B     		ldr	r0, [r4, #56]
 3730 00d2 094B     		ldr	r3, .L225+4
 3731 00d4 9847     		blx	r3
 3732              	.LVL328:
 3733              		.loc 1 1882 12 view .LVU1203
 3734 00d6 2028     		cmp	r0, #32
 3735 00d8 C9D1     		bne	.L217
 3736              		.loc 1 1885 11 is_stmt 1 view .LVU1204
 3737              		.loc 1 1885 28 is_stmt 0 view .LVU1205
 3738 00da 1023     		movs	r3, #16
 3739 00dc 6364     		str	r3, [r4, #68]
 3740              		.loc 1 1887 11 is_stmt 1 view .LVU1206
 3741              		.loc 1 1887 18 is_stmt 0 view .LVU1207
 3742 00de 0320     		movs	r0, #3
 3743 00e0 E8E7     		b	.L219
 3744              	.L224:
 3745              		.loc 1 1907 9 is_stmt 1 view .LVU1208
 3746              		.loc 1 1907 13 is_stmt 0 view .LVU1209
ARM GAS  C:\Users\HP\AppData\Local\Temp\cc3vbRST.s 			page 66


 3747 00e2 E06B     		ldr	r0, [r4, #60]
 3748 00e4 044B     		ldr	r3, .L225+4
 3749 00e6 9847     		blx	r3
 3750              	.LVL329:
 3751              		.loc 1 1907 12 view .LVU1210
 3752 00e8 2028     		cmp	r0, #32
 3753 00ea D9D1     		bne	.L220
 3754              		.loc 1 1910 11 is_stmt 1 view .LVU1211
 3755              		.loc 1 1910 28 is_stmt 0 view .LVU1212
 3756 00ec 1023     		movs	r3, #16
 3757 00ee 6364     		str	r3, [r4, #68]
 3758              		.loc 1 1912 11 is_stmt 1 view .LVU1213
 3759              		.loc 1 1912 18 is_stmt 0 view .LVU1214
 3760 00f0 0320     		movs	r0, #3
 3761 00f2 DFE7     		b	.L219
 3762              	.L226:
 3763              		.align	2
 3764              	.L225:
 3765 00f4 00000000 		.word	HAL_DMA_Abort
 3766 00f8 00000000 		.word	HAL_DMA_GetError
 3767              		.cfi_endproc
 3768              	.LFE85:
 3770              		.section	.text.HAL_UART_AbortTransmit,"ax",%progbits
 3771              		.align	1
 3772              		.global	HAL_UART_AbortTransmit
 3773              		.syntax unified
 3774              		.thumb
 3775              		.thumb_func
 3776              		.fpu softvfp
 3778              	HAL_UART_AbortTransmit:
 3779              	.LVL330:
 3780              	.LFB86:
 3781              		.loc 1 1946 1 is_stmt 1 view -0
 3782              		.cfi_startproc
 3783              		@ args = 0, pretend = 0, frame = 0
 3784              		@ frame_needed = 0, uses_anonymous_args = 0
 3785              		.loc 1 1946 1 is_stmt 0 view .LVU1216
 3786 0000 10B5     		push	{r4, lr}
 3787              	.LCFI29:
 3788              		.cfi_def_cfa_offset 8
 3789              		.cfi_offset 4, -8
 3790              		.cfi_offset 14, -4
 3791 0002 0446     		mov	r4, r0
 3792              	.L228:
 3793              		.loc 1 1948 3 is_stmt 1 discriminator 1 view .LVU1217
 3794              	.LBB433:
 3795              		.loc 1 1948 3 discriminator 1 view .LVU1218
 3796              		.loc 1 1948 3 discriminator 1 view .LVU1219
 3797              		.loc 1 1948 3 discriminator 1 view .LVU1220
 3798 0004 2268     		ldr	r2, [r4]
 3799              	.LVL331:
 3800              	.LBB434:
 3801              	.LBI434:
 3802              		.loc 2 1068 31 discriminator 1 view .LVU1221
 3803              	.LBB435:
 3804              		.loc 2 1070 5 discriminator 1 view .LVU1222
 3805              		.loc 2 1072 4 discriminator 1 view .LVU1223
ARM GAS  C:\Users\HP\AppData\Local\Temp\cc3vbRST.s 			page 67


 3806 0006 02F10C03 		add	r3, r2, #12
 3807              	.LVL332:
 3808              		.loc 2 1072 4 is_stmt 0 discriminator 1 view .LVU1224
 3809              		.syntax unified
 3810              	@ 1072 "Drivers/CMSIS/Include/cmsis_gcc.h" 1
 3811 000a 53E8003F 		ldrex r3, [r3]
 3812              	@ 0 "" 2
 3813              	.LVL333:
 3814              		.loc 2 1073 4 is_stmt 1 discriminator 1 view .LVU1225
 3815              		.loc 2 1073 4 is_stmt 0 discriminator 1 view .LVU1226
 3816              		.thumb
 3817              		.syntax unified
 3818              	.LBE435:
 3819              	.LBE434:
 3820              		.loc 1 1948 3 discriminator 1 view .LVU1227
 3821 000e 23F0C003 		bic	r3, r3, #192
 3822              	.LVL334:
 3823              		.loc 1 1948 3 is_stmt 1 discriminator 1 view .LVU1228
 3824              	.LBB436:
 3825              	.LBI436:
 3826              		.loc 2 1119 31 discriminator 1 view .LVU1229
 3827              	.LBB437:
 3828              		.loc 2 1121 4 discriminator 1 view .LVU1230
 3829              		.loc 2 1123 4 discriminator 1 view .LVU1231
 3830 0012 0C32     		adds	r2, r2, #12
 3831              	.LVL335:
 3832              		.loc 2 1123 4 is_stmt 0 discriminator 1 view .LVU1232
 3833              		.syntax unified
 3834              	@ 1123 "Drivers/CMSIS/Include/cmsis_gcc.h" 1
 3835 0014 42E80031 		strex r1, r3, [r2]
 3836              	@ 0 "" 2
 3837              	.LVL336:
 3838              		.loc 2 1124 4 is_stmt 1 discriminator 1 view .LVU1233
 3839              		.loc 2 1124 4 is_stmt 0 discriminator 1 view .LVU1234
 3840              		.thumb
 3841              		.syntax unified
 3842              	.LBE437:
 3843              	.LBE436:
 3844              		.loc 1 1948 3 discriminator 1 view .LVU1235
 3845 0018 0029     		cmp	r1, #0
 3846 001a F3D1     		bne	.L228
 3847              	.LBE433:
 3848              		.loc 1 1948 3 is_stmt 1 discriminator 2 view .LVU1236
 3849              		.loc 1 1951 3 discriminator 2 view .LVU1237
 3850              		.loc 1 1951 7 is_stmt 0 discriminator 2 view .LVU1238
 3851 001c 2368     		ldr	r3, [r4]
 3852              	.LVL337:
 3853              		.loc 1 1951 7 discriminator 2 view .LVU1239
 3854 001e 5B69     		ldr	r3, [r3, #20]
 3855              		.loc 1 1951 6 discriminator 2 view .LVU1240
 3856 0020 13F0800F 		tst	r3, #128
 3857 0024 13D0     		beq	.L229
 3858              	.L230:
 3859              		.loc 1 1953 5 is_stmt 1 discriminator 1 view .LVU1241
 3860              	.LBB438:
 3861              		.loc 1 1953 5 discriminator 1 view .LVU1242
 3862              		.loc 1 1953 5 discriminator 1 view .LVU1243
ARM GAS  C:\Users\HP\AppData\Local\Temp\cc3vbRST.s 			page 68


 3863              		.loc 1 1953 5 discriminator 1 view .LVU1244
 3864 0026 2268     		ldr	r2, [r4]
 3865              	.LVL338:
 3866              	.LBB439:
 3867              	.LBI439:
 3868              		.loc 2 1068 31 discriminator 1 view .LVU1245
 3869              	.LBB440:
 3870              		.loc 2 1070 5 discriminator 1 view .LVU1246
 3871              		.loc 2 1072 4 discriminator 1 view .LVU1247
 3872 0028 02F11403 		add	r3, r2, #20
 3873              	.LVL339:
 3874              		.loc 2 1072 4 is_stmt 0 discriminator 1 view .LVU1248
 3875              		.syntax unified
 3876              	@ 1072 "Drivers/CMSIS/Include/cmsis_gcc.h" 1
 3877 002c 53E8003F 		ldrex r3, [r3]
 3878              	@ 0 "" 2
 3879              	.LVL340:
 3880              		.loc 2 1073 4 is_stmt 1 discriminator 1 view .LVU1249
 3881              		.loc 2 1073 4 is_stmt 0 discriminator 1 view .LVU1250
 3882              		.thumb
 3883              		.syntax unified
 3884              	.LBE440:
 3885              	.LBE439:
 3886              		.loc 1 1953 5 discriminator 1 view .LVU1251
 3887 0030 23F08003 		bic	r3, r3, #128
 3888              	.LVL341:
 3889              		.loc 1 1953 5 is_stmt 1 discriminator 1 view .LVU1252
 3890              	.LBB441:
 3891              	.LBI441:
 3892              		.loc 2 1119 31 discriminator 1 view .LVU1253
 3893              	.LBB442:
 3894              		.loc 2 1121 4 discriminator 1 view .LVU1254
 3895              		.loc 2 1123 4 discriminator 1 view .LVU1255
 3896 0034 1432     		adds	r2, r2, #20
 3897              	.LVL342:
 3898              		.loc 2 1123 4 is_stmt 0 discriminator 1 view .LVU1256
 3899              		.syntax unified
 3900              	@ 1123 "Drivers/CMSIS/Include/cmsis_gcc.h" 1
 3901 0036 42E80031 		strex r1, r3, [r2]
 3902              	@ 0 "" 2
 3903              	.LVL343:
 3904              		.loc 2 1124 4 is_stmt 1 discriminator 1 view .LVU1257
 3905              		.loc 2 1124 4 is_stmt 0 discriminator 1 view .LVU1258
 3906              		.thumb
 3907              		.syntax unified
 3908              	.LBE442:
 3909              	.LBE441:
 3910              		.loc 1 1953 5 discriminator 1 view .LVU1259
 3911 003a 0029     		cmp	r1, #0
 3912 003c F3D1     		bne	.L230
 3913              	.LBE438:
 3914              		.loc 1 1953 5 is_stmt 1 discriminator 2 view .LVU1260
 3915              		.loc 1 1956 5 discriminator 2 view .LVU1261
 3916              		.loc 1 1956 14 is_stmt 0 discriminator 2 view .LVU1262
 3917 003e A36B     		ldr	r3, [r4, #56]
 3918              	.LVL344:
 3919              		.loc 1 1956 8 discriminator 2 view .LVU1263
ARM GAS  C:\Users\HP\AppData\Local\Temp\cc3vbRST.s 			page 69


 3920 0040 2BB1     		cbz	r3, .L229
 3921              		.loc 1 1960 7 is_stmt 1 view .LVU1264
 3922              		.loc 1 1960 40 is_stmt 0 view .LVU1265
 3923 0042 0022     		movs	r2, #0
 3924 0044 5A63     		str	r2, [r3, #52]
 3925              		.loc 1 1962 7 is_stmt 1 view .LVU1266
 3926              		.loc 1 1962 11 is_stmt 0 view .LVU1267
 3927 0046 A06B     		ldr	r0, [r4, #56]
 3928              	.LVL345:
 3929              		.loc 1 1962 11 view .LVU1268
 3930 0048 084B     		ldr	r3, .L234
 3931 004a 9847     		blx	r3
 3932              	.LVL346:
 3933              		.loc 1 1962 10 view .LVU1269
 3934 004c 28B9     		cbnz	r0, .L233
 3935              	.L229:
 3936              		.loc 1 1976 3 is_stmt 1 view .LVU1270
 3937              		.loc 1 1976 22 is_stmt 0 view .LVU1271
 3938 004e 0020     		movs	r0, #0
 3939 0050 E084     		strh	r0, [r4, #38]	@ movhi
 3940              		.loc 1 1979 3 is_stmt 1 view .LVU1272
 3941              		.loc 1 1979 17 is_stmt 0 view .LVU1273
 3942 0052 2023     		movs	r3, #32
 3943 0054 84F84130 		strb	r3, [r4, #65]
 3944              		.loc 1 1981 3 is_stmt 1 view .LVU1274
 3945              	.L231:
 3946              		.loc 1 1982 1 is_stmt 0 view .LVU1275
 3947 0058 10BD     		pop	{r4, pc}
 3948              	.LVL347:
 3949              	.L233:
 3950              		.loc 1 1964 9 is_stmt 1 view .LVU1276
 3951              		.loc 1 1964 13 is_stmt 0 view .LVU1277
 3952 005a A06B     		ldr	r0, [r4, #56]
 3953 005c 044B     		ldr	r3, .L234+4
 3954 005e 9847     		blx	r3
 3955              	.LVL348:
 3956              		.loc 1 1964 12 view .LVU1278
 3957 0060 2028     		cmp	r0, #32
 3958 0062 F4D1     		bne	.L229
 3959              		.loc 1 1967 11 is_stmt 1 view .LVU1279
 3960              		.loc 1 1967 28 is_stmt 0 view .LVU1280
 3961 0064 1023     		movs	r3, #16
 3962 0066 6364     		str	r3, [r4, #68]
 3963              		.loc 1 1969 11 is_stmt 1 view .LVU1281
 3964              		.loc 1 1969 18 is_stmt 0 view .LVU1282
 3965 0068 0320     		movs	r0, #3
 3966 006a F5E7     		b	.L231
 3967              	.L235:
 3968              		.align	2
 3969              	.L234:
 3970 006c 00000000 		.word	HAL_DMA_Abort
 3971 0070 00000000 		.word	HAL_DMA_GetError
 3972              		.cfi_endproc
 3973              	.LFE86:
 3975              		.section	.text.HAL_UART_AbortReceive,"ax",%progbits
 3976              		.align	1
 3977              		.global	HAL_UART_AbortReceive
ARM GAS  C:\Users\HP\AppData\Local\Temp\cc3vbRST.s 			page 70


 3978              		.syntax unified
 3979              		.thumb
 3980              		.thumb_func
 3981              		.fpu softvfp
 3983              	HAL_UART_AbortReceive:
 3984              	.LVL349:
 3985              	.LFB87:
 3986              		.loc 1 1997 1 is_stmt 1 view -0
 3987              		.cfi_startproc
 3988              		@ args = 0, pretend = 0, frame = 0
 3989              		@ frame_needed = 0, uses_anonymous_args = 0
 3990              		.loc 1 1997 1 is_stmt 0 view .LVU1284
 3991 0000 10B5     		push	{r4, lr}
 3992              	.LCFI30:
 3993              		.cfi_def_cfa_offset 8
 3994              		.cfi_offset 4, -8
 3995              		.cfi_offset 14, -4
 3996 0002 0446     		mov	r4, r0
 3997              	.L237:
 3998              		.loc 1 1999 3 is_stmt 1 discriminator 1 view .LVU1285
 3999              	.LBB443:
 4000              		.loc 1 1999 3 discriminator 1 view .LVU1286
 4001              		.loc 1 1999 3 discriminator 1 view .LVU1287
 4002              		.loc 1 1999 3 discriminator 1 view .LVU1288
 4003 0004 2268     		ldr	r2, [r4]
 4004              	.LVL350:
 4005              	.LBB444:
 4006              	.LBI444:
 4007              		.loc 2 1068 31 discriminator 1 view .LVU1289
 4008              	.LBB445:
 4009              		.loc 2 1070 5 discriminator 1 view .LVU1290
 4010              		.loc 2 1072 4 discriminator 1 view .LVU1291
 4011 0006 02F10C03 		add	r3, r2, #12
 4012              	.LVL351:
 4013              		.loc 2 1072 4 is_stmt 0 discriminator 1 view .LVU1292
 4014              		.syntax unified
 4015              	@ 1072 "Drivers/CMSIS/Include/cmsis_gcc.h" 1
 4016 000a 53E8003F 		ldrex r3, [r3]
 4017              	@ 0 "" 2
 4018              	.LVL352:
 4019              		.loc 2 1073 4 is_stmt 1 discriminator 1 view .LVU1293
 4020              		.loc 2 1073 4 is_stmt 0 discriminator 1 view .LVU1294
 4021              		.thumb
 4022              		.syntax unified
 4023              	.LBE445:
 4024              	.LBE444:
 4025              		.loc 1 1999 3 discriminator 1 view .LVU1295
 4026 000e 23F49073 		bic	r3, r3, #288
 4027              	.LVL353:
 4028              		.loc 1 1999 3 is_stmt 1 discriminator 1 view .LVU1296
 4029              	.LBB446:
 4030              	.LBI446:
 4031              		.loc 2 1119 31 discriminator 1 view .LVU1297
 4032              	.LBB447:
 4033              		.loc 2 1121 4 discriminator 1 view .LVU1298
 4034              		.loc 2 1123 4 discriminator 1 view .LVU1299
 4035 0012 0C32     		adds	r2, r2, #12
ARM GAS  C:\Users\HP\AppData\Local\Temp\cc3vbRST.s 			page 71


 4036              	.LVL354:
 4037              		.loc 2 1123 4 is_stmt 0 discriminator 1 view .LVU1300
 4038              		.syntax unified
 4039              	@ 1123 "Drivers/CMSIS/Include/cmsis_gcc.h" 1
 4040 0014 42E80031 		strex r1, r3, [r2]
 4041              	@ 0 "" 2
 4042              	.LVL355:
 4043              		.loc 2 1124 4 is_stmt 1 discriminator 1 view .LVU1301
 4044              		.loc 2 1124 4 is_stmt 0 discriminator 1 view .LVU1302
 4045              		.thumb
 4046              		.syntax unified
 4047              	.LBE447:
 4048              	.LBE446:
 4049              		.loc 1 1999 3 discriminator 1 view .LVU1303
 4050 0018 0029     		cmp	r1, #0
 4051 001a F3D1     		bne	.L237
 4052              	.LVL356:
 4053              	.L238:
 4054              		.loc 1 1999 3 discriminator 1 view .LVU1304
 4055              	.LBE443:
 4056              		.loc 1 1999 3 is_stmt 1 discriminator 1 view .LVU1305
 4057              		.loc 1 2000 3 discriminator 1 view .LVU1306
 4058              	.LBB448:
 4059              		.loc 1 2000 3 discriminator 1 view .LVU1307
 4060              		.loc 1 2000 3 discriminator 1 view .LVU1308
 4061              		.loc 1 2000 3 discriminator 1 view .LVU1309
 4062 001c 2268     		ldr	r2, [r4]
 4063              	.LVL357:
 4064              	.LBB449:
 4065              	.LBI449:
 4066              		.loc 2 1068 31 discriminator 1 view .LVU1310
 4067              	.LBB450:
 4068              		.loc 2 1070 5 discriminator 1 view .LVU1311
 4069              		.loc 2 1072 4 discriminator 1 view .LVU1312
 4070 001e 02F11403 		add	r3, r2, #20
 4071              	.LVL358:
 4072              		.loc 2 1072 4 is_stmt 0 discriminator 1 view .LVU1313
 4073              		.syntax unified
 4074              	@ 1072 "Drivers/CMSIS/Include/cmsis_gcc.h" 1
 4075 0022 53E8003F 		ldrex r3, [r3]
 4076              	@ 0 "" 2
 4077              	.LVL359:
 4078              		.loc 2 1073 4 is_stmt 1 discriminator 1 view .LVU1314
 4079              		.loc 2 1073 4 is_stmt 0 discriminator 1 view .LVU1315
 4080              		.thumb
 4081              		.syntax unified
 4082              	.LBE450:
 4083              	.LBE449:
 4084              		.loc 1 2000 3 discriminator 1 view .LVU1316
 4085 0026 23F00103 		bic	r3, r3, #1
 4086              	.LVL360:
 4087              		.loc 1 2000 3 is_stmt 1 discriminator 1 view .LVU1317
 4088              	.LBB451:
 4089              	.LBI451:
 4090              		.loc 2 1119 31 discriminator 1 view .LVU1318
 4091              	.LBB452:
 4092              		.loc 2 1121 4 discriminator 1 view .LVU1319
ARM GAS  C:\Users\HP\AppData\Local\Temp\cc3vbRST.s 			page 72


 4093              		.loc 2 1123 4 discriminator 1 view .LVU1320
 4094 002a 1432     		adds	r2, r2, #20
 4095              	.LVL361:
 4096              		.loc 2 1123 4 is_stmt 0 discriminator 1 view .LVU1321
 4097              		.syntax unified
 4098              	@ 1123 "Drivers/CMSIS/Include/cmsis_gcc.h" 1
 4099 002c 42E80031 		strex r1, r3, [r2]
 4100              	@ 0 "" 2
 4101              	.LVL362:
 4102              		.loc 2 1124 4 is_stmt 1 discriminator 1 view .LVU1322
 4103              		.loc 2 1124 4 is_stmt 0 discriminator 1 view .LVU1323
 4104              		.thumb
 4105              		.syntax unified
 4106              	.LBE452:
 4107              	.LBE451:
 4108              		.loc 1 2000 3 discriminator 1 view .LVU1324
 4109 0030 0029     		cmp	r1, #0
 4110 0032 F3D1     		bne	.L238
 4111              	.LBE448:
 4112              		.loc 1 2000 3 is_stmt 1 discriminator 2 view .LVU1325
 4113              		.loc 1 2003 3 discriminator 2 view .LVU1326
 4114              		.loc 1 2003 12 is_stmt 0 discriminator 2 view .LVU1327
 4115 0034 236B     		ldr	r3, [r4, #48]
 4116              	.LVL363:
 4117              		.loc 1 2003 6 discriminator 2 view .LVU1328
 4118 0036 012B     		cmp	r3, #1
 4119 0038 1FD0     		beq	.L240
 4120              	.L239:
 4121              		.loc 1 2005 5 is_stmt 1 discriminator 2 view .LVU1329
 4122              		.loc 1 2009 3 discriminator 2 view .LVU1330
 4123              		.loc 1 2009 7 is_stmt 0 discriminator 2 view .LVU1331
 4124 003a 2368     		ldr	r3, [r4]
 4125 003c 5B69     		ldr	r3, [r3, #20]
 4126              		.loc 1 2009 6 discriminator 2 view .LVU1332
 4127 003e 13F0400F 		tst	r3, #64
 4128 0042 13D0     		beq	.L241
 4129              	.L242:
 4130              		.loc 1 2011 5 is_stmt 1 discriminator 1 view .LVU1333
 4131              	.LBB453:
 4132              		.loc 1 2011 5 discriminator 1 view .LVU1334
 4133              		.loc 1 2011 5 discriminator 1 view .LVU1335
 4134              		.loc 1 2011 5 discriminator 1 view .LVU1336
 4135 0044 2268     		ldr	r2, [r4]
 4136              	.LVL364:
 4137              	.LBB454:
 4138              	.LBI454:
 4139              		.loc 2 1068 31 discriminator 1 view .LVU1337
 4140              	.LBB455:
 4141              		.loc 2 1070 5 discriminator 1 view .LVU1338
 4142              		.loc 2 1072 4 discriminator 1 view .LVU1339
 4143 0046 02F11403 		add	r3, r2, #20
 4144              	.LVL365:
 4145              		.loc 2 1072 4 is_stmt 0 discriminator 1 view .LVU1340
 4146              		.syntax unified
 4147              	@ 1072 "Drivers/CMSIS/Include/cmsis_gcc.h" 1
 4148 004a 53E8003F 		ldrex r3, [r3]
 4149              	@ 0 "" 2
ARM GAS  C:\Users\HP\AppData\Local\Temp\cc3vbRST.s 			page 73


 4150              	.LVL366:
 4151              		.loc 2 1073 4 is_stmt 1 discriminator 1 view .LVU1341
 4152              		.loc 2 1073 4 is_stmt 0 discriminator 1 view .LVU1342
 4153              		.thumb
 4154              		.syntax unified
 4155              	.LBE455:
 4156              	.LBE454:
 4157              		.loc 1 2011 5 discriminator 1 view .LVU1343
 4158 004e 23F04003 		bic	r3, r3, #64
 4159              	.LVL367:
 4160              		.loc 1 2011 5 is_stmt 1 discriminator 1 view .LVU1344
 4161              	.LBB456:
 4162              	.LBI456:
 4163              		.loc 2 1119 31 discriminator 1 view .LVU1345
 4164              	.LBB457:
 4165              		.loc 2 1121 4 discriminator 1 view .LVU1346
 4166              		.loc 2 1123 4 discriminator 1 view .LVU1347
 4167 0052 1432     		adds	r2, r2, #20
 4168              	.LVL368:
 4169              		.loc 2 1123 4 is_stmt 0 discriminator 1 view .LVU1348
 4170              		.syntax unified
 4171              	@ 1123 "Drivers/CMSIS/Include/cmsis_gcc.h" 1
 4172 0054 42E80031 		strex r1, r3, [r2]
 4173              	@ 0 "" 2
 4174              	.LVL369:
 4175              		.loc 2 1124 4 is_stmt 1 discriminator 1 view .LVU1349
 4176              		.loc 2 1124 4 is_stmt 0 discriminator 1 view .LVU1350
 4177              		.thumb
 4178              		.syntax unified
 4179              	.LBE457:
 4180              	.LBE456:
 4181              		.loc 1 2011 5 discriminator 1 view .LVU1351
 4182 0058 0029     		cmp	r1, #0
 4183 005a F3D1     		bne	.L242
 4184              	.LBE453:
 4185              		.loc 1 2011 5 is_stmt 1 discriminator 2 view .LVU1352
 4186              		.loc 1 2014 5 discriminator 2 view .LVU1353
 4187              		.loc 1 2014 14 is_stmt 0 discriminator 2 view .LVU1354
 4188 005c E36B     		ldr	r3, [r4, #60]
 4189              	.LVL370:
 4190              		.loc 1 2014 8 discriminator 2 view .LVU1355
 4191 005e 2BB1     		cbz	r3, .L241
 4192              		.loc 1 2018 7 is_stmt 1 view .LVU1356
 4193              		.loc 1 2018 40 is_stmt 0 view .LVU1357
 4194 0060 0022     		movs	r2, #0
 4195 0062 5A63     		str	r2, [r3, #52]
 4196              		.loc 1 2020 7 is_stmt 1 view .LVU1358
 4197              		.loc 1 2020 11 is_stmt 0 view .LVU1359
 4198 0064 E06B     		ldr	r0, [r4, #60]
 4199              	.LVL371:
 4200              		.loc 1 2020 11 view .LVU1360
 4201 0066 104B     		ldr	r3, .L246
 4202 0068 9847     		blx	r3
 4203              	.LVL372:
 4204              		.loc 1 2020 10 view .LVU1361
 4205 006a 98B9     		cbnz	r0, .L245
 4206              	.L241:
ARM GAS  C:\Users\HP\AppData\Local\Temp\cc3vbRST.s 			page 74


 4207              		.loc 1 2034 3 is_stmt 1 view .LVU1362
 4208              		.loc 1 2034 22 is_stmt 0 view .LVU1363
 4209 006c 0020     		movs	r0, #0
 4210 006e E085     		strh	r0, [r4, #46]	@ movhi
 4211              		.loc 1 2037 3 is_stmt 1 view .LVU1364
 4212              		.loc 1 2037 18 is_stmt 0 view .LVU1365
 4213 0070 2023     		movs	r3, #32
 4214 0072 84F84230 		strb	r3, [r4, #66]
 4215              		.loc 1 2038 3 is_stmt 1 view .LVU1366
 4216              		.loc 1 2038 24 is_stmt 0 view .LVU1367
 4217 0076 2063     		str	r0, [r4, #48]
 4218              		.loc 1 2040 3 is_stmt 1 view .LVU1368
 4219              	.L243:
 4220              		.loc 1 2041 1 is_stmt 0 view .LVU1369
 4221 0078 10BD     		pop	{r4, pc}
 4222              	.LVL373:
 4223              	.L240:
 4224              		.loc 1 2005 5 is_stmt 1 discriminator 1 view .LVU1370
 4225              	.LBB458:
 4226              		.loc 1 2005 5 discriminator 1 view .LVU1371
 4227              		.loc 1 2005 5 discriminator 1 view .LVU1372
 4228              		.loc 1 2005 5 discriminator 1 view .LVU1373
 4229 007a 2268     		ldr	r2, [r4]
 4230              	.LVL374:
 4231              	.LBB459:
 4232              	.LBI459:
 4233              		.loc 2 1068 31 discriminator 1 view .LVU1374
 4234              	.LBB460:
 4235              		.loc 2 1070 5 discriminator 1 view .LVU1375
 4236              		.loc 2 1072 4 discriminator 1 view .LVU1376
 4237 007c 02F10C03 		add	r3, r2, #12
 4238              	.LVL375:
 4239              		.loc 2 1072 4 is_stmt 0 discriminator 1 view .LVU1377
 4240              		.syntax unified
 4241              	@ 1072 "Drivers/CMSIS/Include/cmsis_gcc.h" 1
 4242 0080 53E8003F 		ldrex r3, [r3]
 4243              	@ 0 "" 2
 4244              	.LVL376:
 4245              		.loc 2 1073 4 is_stmt 1 discriminator 1 view .LVU1378
 4246              		.loc 2 1073 4 is_stmt 0 discriminator 1 view .LVU1379
 4247              		.thumb
 4248              		.syntax unified
 4249              	.LBE460:
 4250              	.LBE459:
 4251              		.loc 1 2005 5 discriminator 1 view .LVU1380
 4252 0084 23F01003 		bic	r3, r3, #16
 4253              	.LVL377:
 4254              		.loc 1 2005 5 is_stmt 1 discriminator 1 view .LVU1381
 4255              	.LBB461:
 4256              	.LBI461:
 4257              		.loc 2 1119 31 discriminator 1 view .LVU1382
 4258              	.LBB462:
 4259              		.loc 2 1121 4 discriminator 1 view .LVU1383
 4260              		.loc 2 1123 4 discriminator 1 view .LVU1384
 4261 0088 0C32     		adds	r2, r2, #12
 4262              	.LVL378:
 4263              		.loc 2 1123 4 is_stmt 0 discriminator 1 view .LVU1385
ARM GAS  C:\Users\HP\AppData\Local\Temp\cc3vbRST.s 			page 75


 4264              		.syntax unified
 4265              	@ 1123 "Drivers/CMSIS/Include/cmsis_gcc.h" 1
 4266 008a 42E80031 		strex r1, r3, [r2]
 4267              	@ 0 "" 2
 4268              	.LVL379:
 4269              		.loc 2 1124 4 is_stmt 1 discriminator 1 view .LVU1386
 4270              		.loc 2 1124 4 is_stmt 0 discriminator 1 view .LVU1387
 4271              		.thumb
 4272              		.syntax unified
 4273              	.LBE462:
 4274              	.LBE461:
 4275              		.loc 1 2005 5 discriminator 1 view .LVU1388
 4276 008e 0029     		cmp	r1, #0
 4277 0090 F3D1     		bne	.L240
 4278 0092 D2E7     		b	.L239
 4279              	.LVL380:
 4280              	.L245:
 4281              		.loc 1 2005 5 discriminator 1 view .LVU1389
 4282              	.LBE458:
 4283              		.loc 1 2022 9 is_stmt 1 view .LVU1390
 4284              		.loc 1 2022 13 is_stmt 0 view .LVU1391
 4285 0094 E06B     		ldr	r0, [r4, #60]
 4286 0096 054B     		ldr	r3, .L246+4
 4287 0098 9847     		blx	r3
 4288              	.LVL381:
 4289              		.loc 1 2022 12 view .LVU1392
 4290 009a 2028     		cmp	r0, #32
 4291 009c E6D1     		bne	.L241
 4292              		.loc 1 2025 11 is_stmt 1 view .LVU1393
 4293              		.loc 1 2025 28 is_stmt 0 view .LVU1394
 4294 009e 1023     		movs	r3, #16
 4295 00a0 6364     		str	r3, [r4, #68]
 4296              		.loc 1 2027 11 is_stmt 1 view .LVU1395
 4297              		.loc 1 2027 18 is_stmt 0 view .LVU1396
 4298 00a2 0320     		movs	r0, #3
 4299 00a4 E8E7     		b	.L243
 4300              	.L247:
 4301 00a6 00BF     		.align	2
 4302              	.L246:
 4303 00a8 00000000 		.word	HAL_DMA_Abort
 4304 00ac 00000000 		.word	HAL_DMA_GetError
 4305              		.cfi_endproc
 4306              	.LFE87:
 4308              		.section	.text.HAL_UART_TxCpltCallback,"ax",%progbits
 4309              		.align	1
 4310              		.weak	HAL_UART_TxCpltCallback
 4311              		.syntax unified
 4312              		.thumb
 4313              		.thumb_func
 4314              		.fpu softvfp
 4316              	HAL_UART_TxCpltCallback:
 4317              	.LVL382:
 4318              	.LFB92:
 4319              		.loc 1 2590 1 is_stmt 1 view -0
 4320              		.cfi_startproc
 4321              		@ args = 0, pretend = 0, frame = 0
 4322              		@ frame_needed = 0, uses_anonymous_args = 0
ARM GAS  C:\Users\HP\AppData\Local\Temp\cc3vbRST.s 			page 76


 4323              		@ link register save eliminated.
 4324              		.loc 1 2592 3 view .LVU1398
 4325              		.loc 1 2596 1 is_stmt 0 view .LVU1399
 4326 0000 7047     		bx	lr
 4327              		.cfi_endproc
 4328              	.LFE92:
 4330              		.section	.text.UART_DMATransmitCplt,"ax",%progbits
 4331              		.align	1
 4332              		.syntax unified
 4333              		.thumb
 4334              		.thumb_func
 4335              		.fpu softvfp
 4337              	UART_DMATransmitCplt:
 4338              	.LVL383:
 4339              	.LFB108:
 4340              		.loc 1 2986 1 is_stmt 1 view -0
 4341              		.cfi_startproc
 4342              		@ args = 0, pretend = 0, frame = 0
 4343              		@ frame_needed = 0, uses_anonymous_args = 0
 4344              		.loc 1 2986 1 is_stmt 0 view .LVU1401
 4345 0000 08B5     		push	{r3, lr}
 4346              	.LCFI31:
 4347              		.cfi_def_cfa_offset 8
 4348              		.cfi_offset 3, -8
 4349              		.cfi_offset 14, -4
 4350 0002 0346     		mov	r3, r0
 4351              		.loc 1 2987 3 is_stmt 1 view .LVU1402
 4352              		.loc 1 2987 23 is_stmt 0 view .LVU1403
 4353 0004 406A     		ldr	r0, [r0, #36]
 4354              	.LVL384:
 4355              		.loc 1 2989 3 is_stmt 1 view .LVU1404
 4356              		.loc 1 2989 12 is_stmt 0 view .LVU1405
 4357 0006 1B68     		ldr	r3, [r3]
 4358              	.LVL385:
 4359              		.loc 1 2989 22 view .LVU1406
 4360 0008 1B68     		ldr	r3, [r3]
 4361              		.loc 1 2989 6 view .LVU1407
 4362 000a 13F0200F 		tst	r3, #32
 4363 000e 1AD1     		bne	.L250
 4364              		.loc 1 2991 5 is_stmt 1 view .LVU1408
 4365              		.loc 1 2991 24 is_stmt 0 view .LVU1409
 4366 0010 0023     		movs	r3, #0
 4367 0012 C384     		strh	r3, [r0, #38]	@ movhi
 4368              	.L251:
 4369              		.loc 1 2995 5 is_stmt 1 discriminator 1 view .LVU1410
 4370              	.LBB463:
 4371              		.loc 1 2995 5 discriminator 1 view .LVU1411
 4372              		.loc 1 2995 5 discriminator 1 view .LVU1412
 4373              		.loc 1 2995 5 discriminator 1 view .LVU1413
 4374 0014 0268     		ldr	r2, [r0]
 4375              	.LVL386:
 4376              	.LBB464:
 4377              	.LBI464:
 4378              		.loc 2 1068 31 discriminator 1 view .LVU1414
 4379              	.LBB465:
 4380              		.loc 2 1070 5 discriminator 1 view .LVU1415
 4381              		.loc 2 1072 4 discriminator 1 view .LVU1416
ARM GAS  C:\Users\HP\AppData\Local\Temp\cc3vbRST.s 			page 77


 4382 0016 02F11403 		add	r3, r2, #20
 4383              	.LVL387:
 4384              		.loc 2 1072 4 is_stmt 0 discriminator 1 view .LVU1417
 4385              		.syntax unified
 4386              	@ 1072 "Drivers/CMSIS/Include/cmsis_gcc.h" 1
 4387 001a 53E8003F 		ldrex r3, [r3]
 4388              	@ 0 "" 2
 4389              	.LVL388:
 4390              		.loc 2 1073 4 is_stmt 1 discriminator 1 view .LVU1418
 4391              		.loc 2 1073 4 is_stmt 0 discriminator 1 view .LVU1419
 4392              		.thumb
 4393              		.syntax unified
 4394              	.LBE465:
 4395              	.LBE464:
 4396              		.loc 1 2995 5 discriminator 1 view .LVU1420
 4397 001e 23F08003 		bic	r3, r3, #128
 4398              	.LVL389:
 4399              		.loc 1 2995 5 is_stmt 1 discriminator 1 view .LVU1421
 4400              	.LBB466:
 4401              	.LBI466:
 4402              		.loc 2 1119 31 discriminator 1 view .LVU1422
 4403              	.LBB467:
 4404              		.loc 2 1121 4 discriminator 1 view .LVU1423
 4405              		.loc 2 1123 4 discriminator 1 view .LVU1424
 4406 0022 1432     		adds	r2, r2, #20
 4407              	.LVL390:
 4408              		.loc 2 1123 4 is_stmt 0 discriminator 1 view .LVU1425
 4409              		.syntax unified
 4410              	@ 1123 "Drivers/CMSIS/Include/cmsis_gcc.h" 1
 4411 0024 42E80031 		strex r1, r3, [r2]
 4412              	@ 0 "" 2
 4413              	.LVL391:
 4414              		.loc 2 1124 4 is_stmt 1 discriminator 1 view .LVU1426
 4415              		.loc 2 1124 4 is_stmt 0 discriminator 1 view .LVU1427
 4416              		.thumb
 4417              		.syntax unified
 4418              	.LBE467:
 4419              	.LBE466:
 4420              		.loc 1 2995 5 discriminator 1 view .LVU1428
 4421 0028 0029     		cmp	r1, #0
 4422 002a F3D1     		bne	.L251
 4423              	.LVL392:
 4424              	.L252:
 4425              		.loc 1 2995 5 discriminator 1 view .LVU1429
 4426              	.LBE463:
 4427              		.loc 1 2995 5 is_stmt 1 discriminator 1 view .LVU1430
 4428              		.loc 1 2998 5 discriminator 1 view .LVU1431
 4429              	.LBB468:
 4430              		.loc 1 2998 5 discriminator 1 view .LVU1432
 4431              		.loc 1 2998 5 discriminator 1 view .LVU1433
 4432              		.loc 1 2998 5 discriminator 1 view .LVU1434
 4433 002c 0268     		ldr	r2, [r0]
 4434              	.LVL393:
 4435              	.LBB469:
 4436              	.LBI469:
 4437              		.loc 2 1068 31 discriminator 1 view .LVU1435
 4438              	.LBB470:
ARM GAS  C:\Users\HP\AppData\Local\Temp\cc3vbRST.s 			page 78


 4439              		.loc 2 1070 5 discriminator 1 view .LVU1436
 4440              		.loc 2 1072 4 discriminator 1 view .LVU1437
 4441 002e 02F10C03 		add	r3, r2, #12
 4442              	.LVL394:
 4443              		.loc 2 1072 4 is_stmt 0 discriminator 1 view .LVU1438
 4444              		.syntax unified
 4445              	@ 1072 "Drivers/CMSIS/Include/cmsis_gcc.h" 1
 4446 0032 53E8003F 		ldrex r3, [r3]
 4447              	@ 0 "" 2
 4448              	.LVL395:
 4449              		.loc 2 1073 4 is_stmt 1 discriminator 1 view .LVU1439
 4450              		.loc 2 1073 4 is_stmt 0 discriminator 1 view .LVU1440
 4451              		.thumb
 4452              		.syntax unified
 4453              	.LBE470:
 4454              	.LBE469:
 4455              		.loc 1 2998 5 discriminator 1 view .LVU1441
 4456 0036 43F04003 		orr	r3, r3, #64
 4457              	.LVL396:
 4458              		.loc 1 2998 5 is_stmt 1 discriminator 1 view .LVU1442
 4459              	.LBB471:
 4460              	.LBI471:
 4461              		.loc 2 1119 31 discriminator 1 view .LVU1443
 4462              	.LBB472:
 4463              		.loc 2 1121 4 discriminator 1 view .LVU1444
 4464              		.loc 2 1123 4 discriminator 1 view .LVU1445
 4465 003a 0C32     		adds	r2, r2, #12
 4466              	.LVL397:
 4467              		.loc 2 1123 4 is_stmt 0 discriminator 1 view .LVU1446
 4468              		.syntax unified
 4469              	@ 1123 "Drivers/CMSIS/Include/cmsis_gcc.h" 1
 4470 003c 42E80031 		strex r1, r3, [r2]
 4471              	@ 0 "" 2
 4472              	.LVL398:
 4473              		.loc 2 1124 4 is_stmt 1 discriminator 1 view .LVU1447
 4474              		.loc 2 1124 4 is_stmt 0 discriminator 1 view .LVU1448
 4475              		.thumb
 4476              		.syntax unified
 4477              	.LBE472:
 4478              	.LBE471:
 4479              		.loc 1 2998 5 discriminator 1 view .LVU1449
 4480 0040 0029     		cmp	r1, #0
 4481 0042 F3D1     		bne	.L252
 4482              	.LVL399:
 4483              	.L249:
 4484              		.loc 1 2998 5 discriminator 1 view .LVU1450
 4485              	.LBE468:
 4486              		.loc 1 3012 1 view .LVU1451
 4487 0044 08BD     		pop	{r3, pc}
 4488              	.LVL400:
 4489              	.L250:
 4490              		.loc 1 3009 5 is_stmt 1 view .LVU1452
 4491 0046 014B     		ldr	r3, .L255
 4492 0048 9847     		blx	r3
 4493              	.LVL401:
 4494              		.loc 1 3012 1 is_stmt 0 view .LVU1453
 4495 004a FBE7     		b	.L249
ARM GAS  C:\Users\HP\AppData\Local\Temp\cc3vbRST.s 			page 79


 4496              	.L256:
 4497              		.align	2
 4498              	.L255:
 4499 004c 00000000 		.word	HAL_UART_TxCpltCallback
 4500              		.cfi_endproc
 4501              	.LFE108:
 4503              		.section	.text.UART_EndTransmit_IT,"ax",%progbits
 4504              		.align	1
 4505              		.syntax unified
 4506              		.thumb
 4507              		.thumb_func
 4508              		.fpu softvfp
 4510              	UART_EndTransmit_IT:
 4511              	.LVL402:
 4512              	.LFB124:
 4513              		.loc 1 3555 1 is_stmt 1 view -0
 4514              		.cfi_startproc
 4515              		@ args = 0, pretend = 0, frame = 0
 4516              		@ frame_needed = 0, uses_anonymous_args = 0
 4517              		.loc 1 3555 1 is_stmt 0 view .LVU1455
 4518 0000 08B5     		push	{r3, lr}
 4519              	.LCFI32:
 4520              		.cfi_def_cfa_offset 8
 4521              		.cfi_offset 3, -8
 4522              		.cfi_offset 14, -4
 4523              		.loc 1 3557 3 is_stmt 1 view .LVU1456
 4524 0002 0168     		ldr	r1, [r0]
 4525 0004 CA68     		ldr	r2, [r1, #12]
 4526 0006 22F04002 		bic	r2, r2, #64
 4527 000a CA60     		str	r2, [r1, #12]
 4528              		.loc 1 3560 3 view .LVU1457
 4529              		.loc 1 3560 17 is_stmt 0 view .LVU1458
 4530 000c 2022     		movs	r2, #32
 4531 000e 80F84120 		strb	r2, [r0, #65]
 4532              		.loc 1 3567 3 is_stmt 1 view .LVU1459
 4533 0012 024B     		ldr	r3, .L259
 4534 0014 9847     		blx	r3
 4535              	.LVL403:
 4536              		.loc 1 3570 3 view .LVU1460
 4537              		.loc 1 3571 1 is_stmt 0 view .LVU1461
 4538 0016 0020     		movs	r0, #0
 4539 0018 08BD     		pop	{r3, pc}
 4540              	.L260:
 4541 001a 00BF     		.align	2
 4542              	.L259:
 4543 001c 00000000 		.word	HAL_UART_TxCpltCallback
 4544              		.cfi_endproc
 4545              	.LFE124:
 4547              		.section	.text.HAL_UART_TxHalfCpltCallback,"ax",%progbits
 4548              		.align	1
 4549              		.weak	HAL_UART_TxHalfCpltCallback
 4550              		.syntax unified
 4551              		.thumb
 4552              		.thumb_func
 4553              		.fpu softvfp
 4555              	HAL_UART_TxHalfCpltCallback:
 4556              	.LVL404:
ARM GAS  C:\Users\HP\AppData\Local\Temp\cc3vbRST.s 			page 80


 4557              	.LFB93:
 4558              		.loc 1 2605 1 is_stmt 1 view -0
 4559              		.cfi_startproc
 4560              		@ args = 0, pretend = 0, frame = 0
 4561              		@ frame_needed = 0, uses_anonymous_args = 0
 4562              		@ link register save eliminated.
 4563              		.loc 1 2607 3 view .LVU1463
 4564              		.loc 1 2611 1 is_stmt 0 view .LVU1464
 4565 0000 7047     		bx	lr
 4566              		.cfi_endproc
 4567              	.LFE93:
 4569              		.section	.text.UART_DMATxHalfCplt,"ax",%progbits
 4570              		.align	1
 4571              		.syntax unified
 4572              		.thumb
 4573              		.thumb_func
 4574              		.fpu softvfp
 4576              	UART_DMATxHalfCplt:
 4577              	.LVL405:
 4578              	.LFB109:
 4579              		.loc 1 3021 1 is_stmt 1 view -0
 4580              		.cfi_startproc
 4581              		@ args = 0, pretend = 0, frame = 0
 4582              		@ frame_needed = 0, uses_anonymous_args = 0
 4583              		.loc 1 3021 1 is_stmt 0 view .LVU1466
 4584 0000 08B5     		push	{r3, lr}
 4585              	.LCFI33:
 4586              		.cfi_def_cfa_offset 8
 4587              		.cfi_offset 3, -8
 4588              		.cfi_offset 14, -4
 4589              		.loc 1 3022 3 is_stmt 1 view .LVU1467
 4590              	.LVL406:
 4591              		.loc 1 3029 3 view .LVU1468
 4592 0002 406A     		ldr	r0, [r0, #36]
 4593              	.LVL407:
 4594              		.loc 1 3029 3 is_stmt 0 view .LVU1469
 4595 0004 014B     		ldr	r3, .L264
 4596 0006 9847     		blx	r3
 4597              	.LVL408:
 4598              		.loc 1 3031 1 view .LVU1470
 4599 0008 08BD     		pop	{r3, pc}
 4600              	.L265:
 4601 000a 00BF     		.align	2
 4602              	.L264:
 4603 000c 00000000 		.word	HAL_UART_TxHalfCpltCallback
 4604              		.cfi_endproc
 4605              	.LFE109:
 4607              		.section	.text.HAL_UART_RxCpltCallback,"ax",%progbits
 4608              		.align	1
 4609              		.weak	HAL_UART_RxCpltCallback
 4610              		.syntax unified
 4611              		.thumb
 4612              		.thumb_func
 4613              		.fpu softvfp
 4615              	HAL_UART_RxCpltCallback:
 4616              	.LVL409:
 4617              	.LFB94:
ARM GAS  C:\Users\HP\AppData\Local\Temp\cc3vbRST.s 			page 81


 4618              		.loc 1 2620 1 is_stmt 1 view -0
 4619              		.cfi_startproc
 4620              		@ args = 0, pretend = 0, frame = 0
 4621              		@ frame_needed = 0, uses_anonymous_args = 0
 4622              		@ link register save eliminated.
 4623              		.loc 1 2622 3 view .LVU1472
 4624              		.loc 1 2626 1 is_stmt 0 view .LVU1473
 4625 0000 7047     		bx	lr
 4626              		.cfi_endproc
 4627              	.LFE94:
 4629              		.section	.text.HAL_UART_RxHalfCpltCallback,"ax",%progbits
 4630              		.align	1
 4631              		.weak	HAL_UART_RxHalfCpltCallback
 4632              		.syntax unified
 4633              		.thumb
 4634              		.thumb_func
 4635              		.fpu softvfp
 4637              	HAL_UART_RxHalfCpltCallback:
 4638              	.LVL410:
 4639              	.LFB95:
 4640              		.loc 1 2635 1 is_stmt 1 view -0
 4641              		.cfi_startproc
 4642              		@ args = 0, pretend = 0, frame = 0
 4643              		@ frame_needed = 0, uses_anonymous_args = 0
 4644              		@ link register save eliminated.
 4645              		.loc 1 2637 3 view .LVU1475
 4646              		.loc 1 2641 1 is_stmt 0 view .LVU1476
 4647 0000 7047     		bx	lr
 4648              		.cfi_endproc
 4649              	.LFE95:
 4651              		.section	.text.HAL_UART_ErrorCallback,"ax",%progbits
 4652              		.align	1
 4653              		.weak	HAL_UART_ErrorCallback
 4654              		.syntax unified
 4655              		.thumb
 4656              		.thumb_func
 4657              		.fpu softvfp
 4659              	HAL_UART_ErrorCallback:
 4660              	.LVL411:
 4661              	.LFB96:
 4662              		.loc 1 2650 1 is_stmt 1 view -0
 4663              		.cfi_startproc
 4664              		@ args = 0, pretend = 0, frame = 0
 4665              		@ frame_needed = 0, uses_anonymous_args = 0
 4666              		@ link register save eliminated.
 4667              		.loc 1 2652 3 view .LVU1478
 4668              		.loc 1 2656 1 is_stmt 0 view .LVU1479
 4669 0000 7047     		bx	lr
 4670              		.cfi_endproc
 4671              	.LFE96:
 4673              		.section	.text.UART_DMAError,"ax",%progbits
 4674              		.align	1
 4675              		.syntax unified
 4676              		.thumb
 4677              		.thumb_func
 4678              		.fpu softvfp
 4680              	UART_DMAError:
ARM GAS  C:\Users\HP\AppData\Local\Temp\cc3vbRST.s 			page 82


 4681              	.LVL412:
 4682              	.LFB112:
 4683              		.loc 1 3141 1 is_stmt 1 view -0
 4684              		.cfi_startproc
 4685              		@ args = 0, pretend = 0, frame = 0
 4686              		@ frame_needed = 0, uses_anonymous_args = 0
 4687              		.loc 1 3141 1 is_stmt 0 view .LVU1481
 4688 0000 10B5     		push	{r4, lr}
 4689              	.LCFI34:
 4690              		.cfi_def_cfa_offset 8
 4691              		.cfi_offset 4, -8
 4692              		.cfi_offset 14, -4
 4693              		.loc 1 3142 3 is_stmt 1 view .LVU1482
 4694              	.LVL413:
 4695              		.loc 1 3143 3 view .LVU1483
 4696              		.loc 1 3143 23 is_stmt 0 view .LVU1484
 4697 0002 446A     		ldr	r4, [r0, #36]
 4698              	.LVL414:
 4699              		.loc 1 3146 3 is_stmt 1 view .LVU1485
 4700              		.loc 1 3146 16 is_stmt 0 view .LVU1486
 4701 0004 2368     		ldr	r3, [r4]
 4702 0006 5A69     		ldr	r2, [r3, #20]
 4703              	.LVL415:
 4704              		.loc 1 3147 3 is_stmt 1 view .LVU1487
 4705              		.loc 1 3147 13 is_stmt 0 view .LVU1488
 4706 0008 94F84130 		ldrb	r3, [r4, #65]	@ zero_extendqisi2
 4707 000c DBB2     		uxtb	r3, r3
 4708              		.loc 1 3147 6 view .LVU1489
 4709 000e 212B     		cmp	r3, #33
 4710 0010 10D0     		beq	.L273
 4711              	.LVL416:
 4712              	.L270:
 4713              		.loc 1 3154 3 is_stmt 1 view .LVU1490
 4714              		.loc 1 3154 16 is_stmt 0 view .LVU1491
 4715 0012 2368     		ldr	r3, [r4]
 4716 0014 5A69     		ldr	r2, [r3, #20]
 4717 0016 02F04002 		and	r2, r2, #64
 4718              	.LVL417:
 4719              		.loc 1 3155 3 is_stmt 1 view .LVU1492
 4720              		.loc 1 3155 13 is_stmt 0 view .LVU1493
 4721 001a 94F84230 		ldrb	r3, [r4, #66]	@ zero_extendqisi2
 4722 001e DBB2     		uxtb	r3, r3
 4723              		.loc 1 3155 6 view .LVU1494
 4724 0020 222B     		cmp	r3, #34
 4725 0022 11D0     		beq	.L274
 4726              	.LVL418:
 4727              	.L271:
 4728              		.loc 1 3161 3 is_stmt 1 view .LVU1495
 4729              		.loc 1 3161 20 is_stmt 0 view .LVU1496
 4730 0024 636C     		ldr	r3, [r4, #68]
 4731 0026 43F01003 		orr	r3, r3, #16
 4732 002a 6364     		str	r3, [r4, #68]
 4733              		.loc 1 3167 3 is_stmt 1 view .LVU1497
 4734 002c 2046     		mov	r0, r4
 4735 002e 0A4B     		ldr	r3, .L275
 4736 0030 9847     		blx	r3
 4737              	.LVL419:
ARM GAS  C:\Users\HP\AppData\Local\Temp\cc3vbRST.s 			page 83


 4738              		.loc 1 3169 1 is_stmt 0 view .LVU1498
 4739 0032 10BD     		pop	{r4, pc}
 4740              	.LVL420:
 4741              	.L273:
 4742              		.loc 1 3169 1 view .LVU1499
 4743 0034 02F08002 		and	r2, r2, #128
 4744              	.LVL421:
 4745              		.loc 1 3147 49 discriminator 1 view .LVU1500
 4746 0038 002A     		cmp	r2, #0
 4747 003a EAD0     		beq	.L270
 4748              		.loc 1 3149 5 is_stmt 1 view .LVU1501
 4749              		.loc 1 3149 24 is_stmt 0 view .LVU1502
 4750 003c 0023     		movs	r3, #0
 4751 003e E384     		strh	r3, [r4, #38]	@ movhi
 4752              		.loc 1 3150 5 is_stmt 1 view .LVU1503
 4753 0040 2046     		mov	r0, r4
 4754              	.LVL422:
 4755              		.loc 1 3150 5 is_stmt 0 view .LVU1504
 4756 0042 064B     		ldr	r3, .L275+4
 4757 0044 9847     		blx	r3
 4758              	.LVL423:
 4759 0046 E4E7     		b	.L270
 4760              	.LVL424:
 4761              	.L274:
 4762              		.loc 1 3155 50 discriminator 1 view .LVU1505
 4763 0048 002A     		cmp	r2, #0
 4764 004a EBD0     		beq	.L271
 4765              		.loc 1 3157 5 is_stmt 1 view .LVU1506
 4766              		.loc 1 3157 24 is_stmt 0 view .LVU1507
 4767 004c 0023     		movs	r3, #0
 4768 004e E385     		strh	r3, [r4, #46]	@ movhi
 4769              		.loc 1 3158 5 is_stmt 1 view .LVU1508
 4770 0050 2046     		mov	r0, r4
 4771 0052 034B     		ldr	r3, .L275+8
 4772 0054 9847     		blx	r3
 4773              	.LVL425:
 4774              		.loc 1 3158 5 is_stmt 0 view .LVU1509
 4775 0056 E5E7     		b	.L271
 4776              	.L276:
 4777              		.align	2
 4778              	.L275:
 4779 0058 00000000 		.word	HAL_UART_ErrorCallback
 4780 005c 00000000 		.word	UART_EndTxTransfer
 4781 0060 00000000 		.word	UART_EndRxTransfer
 4782              		.cfi_endproc
 4783              	.LFE112:
 4785              		.section	.text.UART_DMAAbortOnError,"ax",%progbits
 4786              		.align	1
 4787              		.syntax unified
 4788              		.thumb
 4789              		.thumb_func
 4790              		.fpu softvfp
 4792              	UART_DMAAbortOnError:
 4793              	.LVL426:
 4794              	.LFB118:
 4795              		.loc 1 3345 1 is_stmt 1 view -0
 4796              		.cfi_startproc
ARM GAS  C:\Users\HP\AppData\Local\Temp\cc3vbRST.s 			page 84


 4797              		@ args = 0, pretend = 0, frame = 0
 4798              		@ frame_needed = 0, uses_anonymous_args = 0
 4799              		.loc 1 3345 1 is_stmt 0 view .LVU1511
 4800 0000 08B5     		push	{r3, lr}
 4801              	.LCFI35:
 4802              		.cfi_def_cfa_offset 8
 4803              		.cfi_offset 3, -8
 4804              		.cfi_offset 14, -4
 4805              		.loc 1 3346 3 is_stmt 1 view .LVU1512
 4806              		.loc 1 3346 23 is_stmt 0 view .LVU1513
 4807 0002 406A     		ldr	r0, [r0, #36]
 4808              	.LVL427:
 4809              		.loc 1 3347 3 is_stmt 1 view .LVU1514
 4810              		.loc 1 3347 22 is_stmt 0 view .LVU1515
 4811 0004 0023     		movs	r3, #0
 4812 0006 C385     		strh	r3, [r0, #46]	@ movhi
 4813              		.loc 1 3348 3 is_stmt 1 view .LVU1516
 4814              		.loc 1 3348 22 is_stmt 0 view .LVU1517
 4815 0008 C384     		strh	r3, [r0, #38]	@ movhi
 4816              		.loc 1 3355 3 is_stmt 1 view .LVU1518
 4817 000a 014B     		ldr	r3, .L279
 4818 000c 9847     		blx	r3
 4819              	.LVL428:
 4820              		.loc 1 3357 1 is_stmt 0 view .LVU1519
 4821 000e 08BD     		pop	{r3, pc}
 4822              	.L280:
 4823              		.align	2
 4824              	.L279:
 4825 0010 00000000 		.word	HAL_UART_ErrorCallback
 4826              		.cfi_endproc
 4827              	.LFE118:
 4829              		.section	.text.HAL_UART_AbortCpltCallback,"ax",%progbits
 4830              		.align	1
 4831              		.weak	HAL_UART_AbortCpltCallback
 4832              		.syntax unified
 4833              		.thumb
 4834              		.thumb_func
 4835              		.fpu softvfp
 4837              	HAL_UART_AbortCpltCallback:
 4838              	.LVL429:
 4839              	.LFB97:
 4840              		.loc 1 2664 1 is_stmt 1 view -0
 4841              		.cfi_startproc
 4842              		@ args = 0, pretend = 0, frame = 0
 4843              		@ frame_needed = 0, uses_anonymous_args = 0
 4844              		@ link register save eliminated.
 4845              		.loc 1 2666 3 view .LVU1521
 4846              		.loc 1 2671 1 is_stmt 0 view .LVU1522
 4847 0000 7047     		bx	lr
 4848              		.cfi_endproc
 4849              	.LFE97:
 4851              		.section	.text.HAL_UART_Abort_IT,"ax",%progbits
 4852              		.align	1
 4853              		.global	HAL_UART_Abort_IT
 4854              		.syntax unified
 4855              		.thumb
 4856              		.thumb_func
ARM GAS  C:\Users\HP\AppData\Local\Temp\cc3vbRST.s 			page 85


 4857              		.fpu softvfp
 4859              	HAL_UART_Abort_IT:
 4860              	.LVL430:
 4861              	.LFB88:
 4862              		.loc 1 2058 1 is_stmt 1 view -0
 4863              		.cfi_startproc
 4864              		@ args = 0, pretend = 0, frame = 0
 4865              		@ frame_needed = 0, uses_anonymous_args = 0
 4866              		.loc 1 2058 1 is_stmt 0 view .LVU1524
 4867 0000 38B5     		push	{r3, r4, r5, lr}
 4868              	.LCFI36:
 4869              		.cfi_def_cfa_offset 16
 4870              		.cfi_offset 3, -16
 4871              		.cfi_offset 4, -12
 4872              		.cfi_offset 5, -8
 4873              		.cfi_offset 14, -4
 4874 0002 0446     		mov	r4, r0
 4875              		.loc 1 2059 3 is_stmt 1 view .LVU1525
 4876              	.LVL431:
 4877              	.L283:
 4878              		.loc 1 2062 3 discriminator 1 view .LVU1526
 4879              	.LBB473:
 4880              		.loc 1 2062 3 discriminator 1 view .LVU1527
 4881              		.loc 1 2062 3 discriminator 1 view .LVU1528
 4882              		.loc 1 2062 3 discriminator 1 view .LVU1529
 4883 0004 2268     		ldr	r2, [r4]
 4884              	.LVL432:
 4885              	.LBB474:
 4886              	.LBI474:
 4887              		.loc 2 1068 31 discriminator 1 view .LVU1530
 4888              	.LBB475:
 4889              		.loc 2 1070 5 discriminator 1 view .LVU1531
 4890              		.loc 2 1072 4 discriminator 1 view .LVU1532
 4891 0006 02F10C03 		add	r3, r2, #12
 4892              	.LVL433:
 4893              		.loc 2 1072 4 is_stmt 0 discriminator 1 view .LVU1533
 4894              		.syntax unified
 4895              	@ 1072 "Drivers/CMSIS/Include/cmsis_gcc.h" 1
 4896 000a 53E8003F 		ldrex r3, [r3]
 4897              	@ 0 "" 2
 4898              	.LVL434:
 4899              		.loc 2 1073 4 is_stmt 1 discriminator 1 view .LVU1534
 4900              		.loc 2 1073 4 is_stmt 0 discriminator 1 view .LVU1535
 4901              		.thumb
 4902              		.syntax unified
 4903              	.LBE475:
 4904              	.LBE474:
 4905              		.loc 1 2062 3 discriminator 1 view .LVU1536
 4906 000e 23F4F073 		bic	r3, r3, #480
 4907              	.LVL435:
 4908              		.loc 1 2062 3 is_stmt 1 discriminator 1 view .LVU1537
 4909              	.LBB476:
 4910              	.LBI476:
 4911              		.loc 2 1119 31 discriminator 1 view .LVU1538
 4912              	.LBB477:
 4913              		.loc 2 1121 4 discriminator 1 view .LVU1539
 4914              		.loc 2 1123 4 discriminator 1 view .LVU1540
ARM GAS  C:\Users\HP\AppData\Local\Temp\cc3vbRST.s 			page 86


 4915 0012 0C32     		adds	r2, r2, #12
 4916              	.LVL436:
 4917              		.loc 2 1123 4 is_stmt 0 discriminator 1 view .LVU1541
 4918              		.syntax unified
 4919              	@ 1123 "Drivers/CMSIS/Include/cmsis_gcc.h" 1
 4920 0014 42E80031 		strex r1, r3, [r2]
 4921              	@ 0 "" 2
 4922              	.LVL437:
 4923              		.loc 2 1124 4 is_stmt 1 discriminator 1 view .LVU1542
 4924              		.loc 2 1124 4 is_stmt 0 discriminator 1 view .LVU1543
 4925              		.thumb
 4926              		.syntax unified
 4927              	.LBE477:
 4928              	.LBE476:
 4929              		.loc 1 2062 3 discriminator 1 view .LVU1544
 4930 0018 0029     		cmp	r1, #0
 4931 001a F3D1     		bne	.L283
 4932              	.LVL438:
 4933              	.L284:
 4934              		.loc 1 2062 3 discriminator 1 view .LVU1545
 4935              	.LBE473:
 4936              		.loc 1 2062 3 is_stmt 1 discriminator 1 view .LVU1546
 4937              		.loc 1 2063 3 discriminator 1 view .LVU1547
 4938              	.LBB478:
 4939              		.loc 1 2063 3 discriminator 1 view .LVU1548
 4940              		.loc 1 2063 3 discriminator 1 view .LVU1549
 4941              		.loc 1 2063 3 discriminator 1 view .LVU1550
 4942 001c 2268     		ldr	r2, [r4]
 4943              	.LVL439:
 4944              	.LBB479:
 4945              	.LBI479:
 4946              		.loc 2 1068 31 discriminator 1 view .LVU1551
 4947              	.LBB480:
 4948              		.loc 2 1070 5 discriminator 1 view .LVU1552
 4949              		.loc 2 1072 4 discriminator 1 view .LVU1553
 4950 001e 02F11403 		add	r3, r2, #20
 4951              	.LVL440:
 4952              		.loc 2 1072 4 is_stmt 0 discriminator 1 view .LVU1554
 4953              		.syntax unified
 4954              	@ 1072 "Drivers/CMSIS/Include/cmsis_gcc.h" 1
 4955 0022 53E8003F 		ldrex r3, [r3]
 4956              	@ 0 "" 2
 4957              	.LVL441:
 4958              		.loc 2 1073 4 is_stmt 1 discriminator 1 view .LVU1555
 4959              		.loc 2 1073 4 is_stmt 0 discriminator 1 view .LVU1556
 4960              		.thumb
 4961              		.syntax unified
 4962              	.LBE480:
 4963              	.LBE479:
 4964              		.loc 1 2063 3 discriminator 1 view .LVU1557
 4965 0026 23F00103 		bic	r3, r3, #1
 4966              	.LVL442:
 4967              		.loc 1 2063 3 is_stmt 1 discriminator 1 view .LVU1558
 4968              	.LBB481:
 4969              	.LBI481:
 4970              		.loc 2 1119 31 discriminator 1 view .LVU1559
 4971              	.LBB482:
ARM GAS  C:\Users\HP\AppData\Local\Temp\cc3vbRST.s 			page 87


 4972              		.loc 2 1121 4 discriminator 1 view .LVU1560
 4973              		.loc 2 1123 4 discriminator 1 view .LVU1561
 4974 002a 1432     		adds	r2, r2, #20
 4975              	.LVL443:
 4976              		.loc 2 1123 4 is_stmt 0 discriminator 1 view .LVU1562
 4977              		.syntax unified
 4978              	@ 1123 "Drivers/CMSIS/Include/cmsis_gcc.h" 1
 4979 002c 42E80031 		strex r1, r3, [r2]
 4980              	@ 0 "" 2
 4981              	.LVL444:
 4982              		.loc 2 1124 4 is_stmt 1 discriminator 1 view .LVU1563
 4983              		.loc 2 1124 4 is_stmt 0 discriminator 1 view .LVU1564
 4984              		.thumb
 4985              		.syntax unified
 4986              	.LBE482:
 4987              	.LBE481:
 4988              		.loc 1 2063 3 discriminator 1 view .LVU1565
 4989 0030 0029     		cmp	r1, #0
 4990 0032 F3D1     		bne	.L284
 4991              	.LBE478:
 4992              		.loc 1 2063 3 is_stmt 1 discriminator 2 view .LVU1566
 4993              		.loc 1 2066 3 discriminator 2 view .LVU1567
 4994              		.loc 1 2066 12 is_stmt 0 discriminator 2 view .LVU1568
 4995 0034 236B     		ldr	r3, [r4, #48]
 4996              	.LVL445:
 4997              		.loc 1 2066 6 discriminator 2 view .LVU1569
 4998 0036 012B     		cmp	r3, #1
 4999 0038 2ED0     		beq	.L286
 5000              	.L285:
 5001              		.loc 1 2068 5 is_stmt 1 discriminator 2 view .LVU1570
 5002              		.loc 1 2074 3 discriminator 2 view .LVU1571
 5003              		.loc 1 2074 12 is_stmt 0 discriminator 2 view .LVU1572
 5004 003a A36B     		ldr	r3, [r4, #56]
 5005              		.loc 1 2074 6 discriminator 2 view .LVU1573
 5006 003c 33B1     		cbz	r3, .L287
 5007              		.loc 1 2078 5 is_stmt 1 view .LVU1574
 5008              		.loc 1 2078 9 is_stmt 0 view .LVU1575
 5009 003e 2268     		ldr	r2, [r4]
 5010 0040 5269     		ldr	r2, [r2, #20]
 5011              		.loc 1 2078 8 view .LVU1576
 5012 0042 12F0800F 		tst	r2, #128
 5013 0046 34D0     		beq	.L288
 5014              		.loc 1 2080 7 is_stmt 1 view .LVU1577
 5015              		.loc 1 2080 40 is_stmt 0 view .LVU1578
 5016 0048 344A     		ldr	r2, .L300
 5017 004a 5A63     		str	r2, [r3, #52]
 5018              	.L287:
 5019              		.loc 1 2088 3 is_stmt 1 view .LVU1579
 5020              		.loc 1 2088 12 is_stmt 0 view .LVU1580
 5021 004c E36B     		ldr	r3, [r4, #60]
 5022              		.loc 1 2088 6 view .LVU1581
 5023 004e 33B1     		cbz	r3, .L289
 5024              		.loc 1 2092 5 is_stmt 1 view .LVU1582
 5025              		.loc 1 2092 9 is_stmt 0 view .LVU1583
 5026 0050 2268     		ldr	r2, [r4]
 5027 0052 5269     		ldr	r2, [r2, #20]
 5028              		.loc 1 2092 8 view .LVU1584
ARM GAS  C:\Users\HP\AppData\Local\Temp\cc3vbRST.s 			page 88


 5029 0054 12F0400F 		tst	r2, #64
 5030 0058 2ED0     		beq	.L290
 5031              		.loc 1 2094 7 is_stmt 1 view .LVU1585
 5032              		.loc 1 2094 40 is_stmt 0 view .LVU1586
 5033 005a 314A     		ldr	r2, .L300+4
 5034 005c 5A63     		str	r2, [r3, #52]
 5035              	.L289:
 5036              		.loc 1 2103 3 is_stmt 1 view .LVU1587
 5037              		.loc 1 2103 7 is_stmt 0 view .LVU1588
 5038 005e 2368     		ldr	r3, [r4]
 5039 0060 5B69     		ldr	r3, [r3, #20]
 5040              		.loc 1 2103 6 view .LVU1589
 5041 0062 13F0800F 		tst	r3, #128
 5042 0066 2AD0     		beq	.L297
 5043              	.L292:
 5044              		.loc 1 2106 5 is_stmt 1 discriminator 1 view .LVU1590
 5045              	.LBB483:
 5046              		.loc 1 2106 5 discriminator 1 view .LVU1591
 5047              		.loc 1 2106 5 discriminator 1 view .LVU1592
 5048              		.loc 1 2106 5 discriminator 1 view .LVU1593
 5049 0068 2168     		ldr	r1, [r4]
 5050              	.LVL446:
 5051              	.LBB484:
 5052              	.LBI484:
 5053              		.loc 2 1068 31 discriminator 1 view .LVU1594
 5054              	.LBB485:
 5055              		.loc 2 1070 5 discriminator 1 view .LVU1595
 5056              		.loc 2 1072 4 discriminator 1 view .LVU1596
 5057 006a 01F11403 		add	r3, r1, #20
 5058              	.LVL447:
 5059              		.loc 2 1072 4 is_stmt 0 discriminator 1 view .LVU1597
 5060              		.syntax unified
 5061              	@ 1072 "Drivers/CMSIS/Include/cmsis_gcc.h" 1
 5062 006e 53E8003F 		ldrex r3, [r3]
 5063              	@ 0 "" 2
 5064              	.LVL448:
 5065              		.loc 2 1073 4 is_stmt 1 discriminator 1 view .LVU1598
 5066              		.loc 2 1073 4 is_stmt 0 discriminator 1 view .LVU1599
 5067              		.thumb
 5068              		.syntax unified
 5069              	.LBE485:
 5070              	.LBE484:
 5071              		.loc 1 2106 5 discriminator 1 view .LVU1600
 5072 0072 23F08003 		bic	r3, r3, #128
 5073              	.LVL449:
 5074              		.loc 1 2106 5 is_stmt 1 discriminator 1 view .LVU1601
 5075              	.LBB486:
 5076              	.LBI486:
 5077              		.loc 2 1119 31 discriminator 1 view .LVU1602
 5078              	.LBB487:
 5079              		.loc 2 1121 4 discriminator 1 view .LVU1603
 5080              		.loc 2 1123 4 discriminator 1 view .LVU1604
 5081 0076 1431     		adds	r1, r1, #20
 5082              	.LVL450:
 5083              		.loc 2 1123 4 is_stmt 0 discriminator 1 view .LVU1605
 5084              		.syntax unified
 5085              	@ 1123 "Drivers/CMSIS/Include/cmsis_gcc.h" 1
ARM GAS  C:\Users\HP\AppData\Local\Temp\cc3vbRST.s 			page 89


 5086 0078 41E80032 		strex r2, r3, [r1]
 5087              	@ 0 "" 2
 5088              		.thumb
 5089              		.syntax unified
 5090 007c 1546     		mov	r5, r2
 5091              	.LVL451:
 5092              		.loc 2 1124 4 is_stmt 1 discriminator 1 view .LVU1606
 5093              		.loc 2 1124 4 is_stmt 0 discriminator 1 view .LVU1607
 5094              	.LBE487:
 5095              	.LBE486:
 5096              		.loc 1 2106 5 discriminator 1 view .LVU1608
 5097 007e 002A     		cmp	r2, #0
 5098 0080 F2D1     		bne	.L292
 5099              	.LBE483:
 5100              		.loc 1 2106 5 is_stmt 1 discriminator 2 view .LVU1609
 5101              		.loc 1 2109 5 discriminator 2 view .LVU1610
 5102              		.loc 1 2109 14 is_stmt 0 discriminator 2 view .LVU1611
 5103 0082 A06B     		ldr	r0, [r4, #56]
 5104              	.LVL452:
 5105              		.loc 1 2109 8 discriminator 2 view .LVU1612
 5106 0084 0028     		cmp	r0, #0
 5107 0086 42D0     		beq	.L298
 5108              		.loc 1 2115 7 is_stmt 1 view .LVU1613
 5109              		.loc 1 2115 11 is_stmt 0 view .LVU1614
 5110 0088 264B     		ldr	r3, .L300+8
 5111              	.LVL453:
 5112              		.loc 1 2115 11 view .LVU1615
 5113 008a 9847     		blx	r3
 5114              	.LVL454:
 5115              		.loc 1 2115 10 view .LVU1616
 5116 008c C0B1     		cbz	r0, .L291
 5117              		.loc 1 2117 9 is_stmt 1 view .LVU1617
 5118              		.loc 1 2117 14 is_stmt 0 view .LVU1618
 5119 008e A36B     		ldr	r3, [r4, #56]
 5120              		.loc 1 2117 42 view .LVU1619
 5121 0090 0022     		movs	r2, #0
 5122 0092 5A63     		str	r2, [r3, #52]
 5123              		.loc 1 2059 12 view .LVU1620
 5124 0094 0125     		movs	r5, #1
 5125 0096 13E0     		b	.L291
 5126              	.LVL455:
 5127              	.L286:
 5128              		.loc 1 2068 5 is_stmt 1 discriminator 1 view .LVU1621
 5129              	.LBB488:
 5130              		.loc 1 2068 5 discriminator 1 view .LVU1622
 5131              		.loc 1 2068 5 discriminator 1 view .LVU1623
 5132              		.loc 1 2068 5 discriminator 1 view .LVU1624
 5133 0098 2268     		ldr	r2, [r4]
 5134              	.LVL456:
 5135              	.LBB489:
 5136              	.LBI489:
 5137              		.loc 2 1068 31 discriminator 1 view .LVU1625
 5138              	.LBB490:
 5139              		.loc 2 1070 5 discriminator 1 view .LVU1626
 5140              		.loc 2 1072 4 discriminator 1 view .LVU1627
 5141 009a 02F10C03 		add	r3, r2, #12
 5142              	.LVL457:
ARM GAS  C:\Users\HP\AppData\Local\Temp\cc3vbRST.s 			page 90


 5143              		.loc 2 1072 4 is_stmt 0 discriminator 1 view .LVU1628
 5144              		.syntax unified
 5145              	@ 1072 "Drivers/CMSIS/Include/cmsis_gcc.h" 1
 5146 009e 53E8003F 		ldrex r3, [r3]
 5147              	@ 0 "" 2
 5148              	.LVL458:
 5149              		.loc 2 1073 4 is_stmt 1 discriminator 1 view .LVU1629
 5150              		.loc 2 1073 4 is_stmt 0 discriminator 1 view .LVU1630
 5151              		.thumb
 5152              		.syntax unified
 5153              	.LBE490:
 5154              	.LBE489:
 5155              		.loc 1 2068 5 discriminator 1 view .LVU1631
 5156 00a2 23F01003 		bic	r3, r3, #16
 5157              	.LVL459:
 5158              		.loc 1 2068 5 is_stmt 1 discriminator 1 view .LVU1632
 5159              	.LBB491:
 5160              	.LBI491:
 5161              		.loc 2 1119 31 discriminator 1 view .LVU1633
 5162              	.LBB492:
 5163              		.loc 2 1121 4 discriminator 1 view .LVU1634
 5164              		.loc 2 1123 4 discriminator 1 view .LVU1635
 5165 00a6 0C32     		adds	r2, r2, #12
 5166              	.LVL460:
 5167              		.loc 2 1123 4 is_stmt 0 discriminator 1 view .LVU1636
 5168              		.syntax unified
 5169              	@ 1123 "Drivers/CMSIS/Include/cmsis_gcc.h" 1
 5170 00a8 42E80031 		strex r1, r3, [r2]
 5171              	@ 0 "" 2
 5172              	.LVL461:
 5173              		.loc 2 1124 4 is_stmt 1 discriminator 1 view .LVU1637
 5174              		.loc 2 1124 4 is_stmt 0 discriminator 1 view .LVU1638
 5175              		.thumb
 5176              		.syntax unified
 5177              	.LBE492:
 5178              	.LBE491:
 5179              		.loc 1 2068 5 discriminator 1 view .LVU1639
 5180 00ac 0029     		cmp	r1, #0
 5181 00ae F3D1     		bne	.L286
 5182 00b0 C3E7     		b	.L285
 5183              	.LVL462:
 5184              	.L288:
 5185              		.loc 1 2068 5 discriminator 1 view .LVU1640
 5186              	.LBE488:
 5187              		.loc 1 2084 7 is_stmt 1 view .LVU1641
 5188              		.loc 1 2084 40 is_stmt 0 view .LVU1642
 5189 00b2 0022     		movs	r2, #0
 5190 00b4 5A63     		str	r2, [r3, #52]
 5191 00b6 C9E7     		b	.L287
 5192              	.L290:
 5193              		.loc 1 2098 7 is_stmt 1 view .LVU1643
 5194              		.loc 1 2098 40 is_stmt 0 view .LVU1644
 5195 00b8 0022     		movs	r2, #0
 5196 00ba 5A63     		str	r2, [r3, #52]
 5197 00bc CFE7     		b	.L289
 5198              	.L297:
 5199              		.loc 1 2059 12 view .LVU1645
ARM GAS  C:\Users\HP\AppData\Local\Temp\cc3vbRST.s 			page 91


 5200 00be 0125     		movs	r5, #1
 5201              	.LVL463:
 5202              	.L291:
 5203              		.loc 1 2127 3 is_stmt 1 view .LVU1646
 5204              		.loc 1 2127 7 is_stmt 0 view .LVU1647
 5205 00c0 2368     		ldr	r3, [r4]
 5206 00c2 5B69     		ldr	r3, [r3, #20]
 5207              		.loc 1 2127 6 view .LVU1648
 5208 00c4 13F0400F 		tst	r3, #64
 5209 00c8 23D0     		beq	.L293
 5210              	.L294:
 5211              		.loc 1 2129 5 is_stmt 1 discriminator 1 view .LVU1649
 5212              	.LBB493:
 5213              		.loc 1 2129 5 discriminator 1 view .LVU1650
 5214              		.loc 1 2129 5 discriminator 1 view .LVU1651
 5215              		.loc 1 2129 5 discriminator 1 view .LVU1652
 5216 00ca 2268     		ldr	r2, [r4]
 5217              	.LVL464:
 5218              	.LBB494:
 5219              	.LBI494:
 5220              		.loc 2 1068 31 discriminator 1 view .LVU1653
 5221              	.LBB495:
 5222              		.loc 2 1070 5 discriminator 1 view .LVU1654
 5223              		.loc 2 1072 4 discriminator 1 view .LVU1655
 5224 00cc 02F11403 		add	r3, r2, #20
 5225              	.LVL465:
 5226              		.loc 2 1072 4 is_stmt 0 discriminator 1 view .LVU1656
 5227              		.syntax unified
 5228              	@ 1072 "Drivers/CMSIS/Include/cmsis_gcc.h" 1
 5229 00d0 53E8003F 		ldrex r3, [r3]
 5230              	@ 0 "" 2
 5231              	.LVL466:
 5232              		.loc 2 1073 4 is_stmt 1 discriminator 1 view .LVU1657
 5233              		.loc 2 1073 4 is_stmt 0 discriminator 1 view .LVU1658
 5234              		.thumb
 5235              		.syntax unified
 5236              	.LBE495:
 5237              	.LBE494:
 5238              		.loc 1 2129 5 discriminator 1 view .LVU1659
 5239 00d4 23F04003 		bic	r3, r3, #64
 5240              	.LVL467:
 5241              		.loc 1 2129 5 is_stmt 1 discriminator 1 view .LVU1660
 5242              	.LBB496:
 5243              	.LBI496:
 5244              		.loc 2 1119 31 discriminator 1 view .LVU1661
 5245              	.LBB497:
 5246              		.loc 2 1121 4 discriminator 1 view .LVU1662
 5247              		.loc 2 1123 4 discriminator 1 view .LVU1663
 5248 00d8 1432     		adds	r2, r2, #20
 5249              	.LVL468:
 5250              		.loc 2 1123 4 is_stmt 0 discriminator 1 view .LVU1664
 5251              		.syntax unified
 5252              	@ 1123 "Drivers/CMSIS/Include/cmsis_gcc.h" 1
 5253 00da 42E80031 		strex r1, r3, [r2]
 5254              	@ 0 "" 2
 5255              	.LVL469:
 5256              		.loc 2 1124 4 is_stmt 1 discriminator 1 view .LVU1665
ARM GAS  C:\Users\HP\AppData\Local\Temp\cc3vbRST.s 			page 92


 5257              		.loc 2 1124 4 is_stmt 0 discriminator 1 view .LVU1666
 5258              		.thumb
 5259              		.syntax unified
 5260              	.LBE497:
 5261              	.LBE496:
 5262              		.loc 1 2129 5 discriminator 1 view .LVU1667
 5263 00de 0029     		cmp	r1, #0
 5264 00e0 F3D1     		bne	.L294
 5265              	.LBE493:
 5266              		.loc 1 2129 5 is_stmt 1 discriminator 2 view .LVU1668
 5267              		.loc 1 2132 5 discriminator 2 view .LVU1669
 5268              		.loc 1 2132 14 is_stmt 0 discriminator 2 view .LVU1670
 5269 00e2 E06B     		ldr	r0, [r4, #60]
 5270              		.loc 1 2132 8 discriminator 2 view .LVU1671
 5271 00e4 A8B1     		cbz	r0, .L293
 5272              		.loc 1 2138 7 is_stmt 1 view .LVU1672
 5273              		.loc 1 2138 11 is_stmt 0 view .LVU1673
 5274 00e6 0F4B     		ldr	r3, .L300+8
 5275              	.LVL470:
 5276              		.loc 1 2138 11 view .LVU1674
 5277 00e8 9847     		blx	r3
 5278              	.LVL471:
 5279              		.loc 1 2138 10 view .LVU1675
 5280 00ea A0B1     		cbz	r0, .L295
 5281              		.loc 1 2140 9 is_stmt 1 view .LVU1676
 5282              		.loc 1 2140 14 is_stmt 0 view .LVU1677
 5283 00ec E36B     		ldr	r3, [r4, #60]
 5284              		.loc 1 2140 42 view .LVU1678
 5285 00ee 0022     		movs	r2, #0
 5286 00f0 5A63     		str	r2, [r3, #52]
 5287              		.loc 1 2141 9 is_stmt 1 view .LVU1679
 5288              	.LVL472:
 5289              		.loc 1 2151 3 view .LVU1680
 5290              	.L296:
 5291              		.loc 1 2154 5 view .LVU1681
 5292              		.loc 1 2154 24 is_stmt 0 view .LVU1682
 5293 00f2 0023     		movs	r3, #0
 5294 00f4 E384     		strh	r3, [r4, #38]	@ movhi
 5295              		.loc 1 2155 5 is_stmt 1 view .LVU1683
 5296              		.loc 1 2155 24 is_stmt 0 view .LVU1684
 5297 00f6 E385     		strh	r3, [r4, #46]	@ movhi
 5298              		.loc 1 2158 5 is_stmt 1 view .LVU1685
 5299              		.loc 1 2158 22 is_stmt 0 view .LVU1686
 5300 00f8 6364     		str	r3, [r4, #68]
 5301              		.loc 1 2161 5 is_stmt 1 view .LVU1687
 5302              		.loc 1 2161 20 is_stmt 0 view .LVU1688
 5303 00fa 2022     		movs	r2, #32
 5304 00fc 84F84120 		strb	r2, [r4, #65]
 5305              		.loc 1 2162 5 is_stmt 1 view .LVU1689
 5306              		.loc 1 2162 20 is_stmt 0 view .LVU1690
 5307 0100 84F84220 		strb	r2, [r4, #66]
 5308              		.loc 1 2163 5 is_stmt 1 view .LVU1691
 5309              		.loc 1 2163 26 is_stmt 0 view .LVU1692
 5310 0104 2363     		str	r3, [r4, #48]
 5311              		.loc 1 2171 5 is_stmt 1 view .LVU1693
 5312 0106 2046     		mov	r0, r4
 5313 0108 074B     		ldr	r3, .L300+12
ARM GAS  C:\Users\HP\AppData\Local\Temp\cc3vbRST.s 			page 93


 5314 010a 9847     		blx	r3
 5315              	.LVL473:
 5316 010c 03E0     		b	.L295
 5317              	.LVL474:
 5318              	.L298:
 5319              		.loc 1 2059 12 is_stmt 0 view .LVU1694
 5320 010e 0125     		movs	r5, #1
 5321 0110 D6E7     		b	.L291
 5322              	.LVL475:
 5323              	.L293:
 5324              		.loc 1 2151 3 is_stmt 1 view .LVU1695
 5325              		.loc 1 2151 6 is_stmt 0 view .LVU1696
 5326 0112 012D     		cmp	r5, #1
 5327 0114 EDD0     		beq	.L296
 5328              	.LVL476:
 5329              	.L295:
 5330              		.loc 1 2175 3 is_stmt 1 view .LVU1697
 5331              		.loc 1 2176 1 is_stmt 0 view .LVU1698
 5332 0116 0020     		movs	r0, #0
 5333 0118 38BD     		pop	{r3, r4, r5, pc}
 5334              	.LVL477:
 5335              	.L301:
 5336              		.loc 1 2176 1 view .LVU1699
 5337 011a 00BF     		.align	2
 5338              	.L300:
 5339 011c 00000000 		.word	UART_DMATxAbortCallback
 5340 0120 00000000 		.word	UART_DMARxAbortCallback
 5341 0124 00000000 		.word	HAL_DMA_Abort_IT
 5342 0128 00000000 		.word	HAL_UART_AbortCpltCallback
 5343              		.cfi_endproc
 5344              	.LFE88:
 5346              		.section	.text.UART_DMARxAbortCallback,"ax",%progbits
 5347              		.align	1
 5348              		.syntax unified
 5349              		.thumb
 5350              		.thumb_func
 5351              		.fpu softvfp
 5353              	UART_DMARxAbortCallback:
 5354              	.LVL478:
 5355              	.LFB120:
 5356              		.loc 1 3415 1 is_stmt 1 view -0
 5357              		.cfi_startproc
 5358              		@ args = 0, pretend = 0, frame = 0
 5359              		@ frame_needed = 0, uses_anonymous_args = 0
 5360              		.loc 1 3415 1 is_stmt 0 view .LVU1701
 5361 0000 08B5     		push	{r3, lr}
 5362              	.LCFI37:
 5363              		.cfi_def_cfa_offset 8
 5364              		.cfi_offset 3, -8
 5365              		.cfi_offset 14, -4
 5366              		.loc 1 3416 3 is_stmt 1 view .LVU1702
 5367              		.loc 1 3416 23 is_stmt 0 view .LVU1703
 5368 0002 406A     		ldr	r0, [r0, #36]
 5369              	.LVL479:
 5370              		.loc 1 3418 3 is_stmt 1 view .LVU1704
 5371              		.loc 1 3418 8 is_stmt 0 view .LVU1705
 5372 0004 C36B     		ldr	r3, [r0, #60]
ARM GAS  C:\Users\HP\AppData\Local\Temp\cc3vbRST.s 			page 94


 5373              		.loc 1 3418 36 view .LVU1706
 5374 0006 0022     		movs	r2, #0
 5375 0008 5A63     		str	r2, [r3, #52]
 5376              		.loc 1 3421 3 is_stmt 1 view .LVU1707
 5377              		.loc 1 3421 12 is_stmt 0 view .LVU1708
 5378 000a 836B     		ldr	r3, [r0, #56]
 5379              		.loc 1 3421 6 view .LVU1709
 5380 000c 0BB1     		cbz	r3, .L303
 5381              		.loc 1 3423 5 is_stmt 1 view .LVU1710
 5382              		.loc 1 3423 22 is_stmt 0 view .LVU1711
 5383 000e 5B6B     		ldr	r3, [r3, #52]
 5384              		.loc 1 3423 8 view .LVU1712
 5385 0010 5BB9     		cbnz	r3, .L302
 5386              	.L303:
 5387              		.loc 1 3430 3 is_stmt 1 view .LVU1713
 5388              		.loc 1 3430 22 is_stmt 0 view .LVU1714
 5389 0012 0023     		movs	r3, #0
 5390 0014 C384     		strh	r3, [r0, #38]	@ movhi
 5391              		.loc 1 3431 3 is_stmt 1 view .LVU1715
 5392              		.loc 1 3431 22 is_stmt 0 view .LVU1716
 5393 0016 C385     		strh	r3, [r0, #46]	@ movhi
 5394              		.loc 1 3434 3 is_stmt 1 view .LVU1717
 5395              		.loc 1 3434 20 is_stmt 0 view .LVU1718
 5396 0018 4364     		str	r3, [r0, #68]
 5397              		.loc 1 3437 3 is_stmt 1 view .LVU1719
 5398              		.loc 1 3437 18 is_stmt 0 view .LVU1720
 5399 001a 2022     		movs	r2, #32
 5400 001c 80F84120 		strb	r2, [r0, #65]
 5401              		.loc 1 3438 3 is_stmt 1 view .LVU1721
 5402              		.loc 1 3438 18 is_stmt 0 view .LVU1722
 5403 0020 80F84220 		strb	r2, [r0, #66]
 5404              		.loc 1 3439 3 is_stmt 1 view .LVU1723
 5405              		.loc 1 3439 24 is_stmt 0 view .LVU1724
 5406 0024 0363     		str	r3, [r0, #48]
 5407              		.loc 1 3447 3 is_stmt 1 view .LVU1725
 5408 0026 014B     		ldr	r3, .L306
 5409 0028 9847     		blx	r3
 5410              	.LVL480:
 5411              	.L302:
 5412              		.loc 1 3449 1 is_stmt 0 view .LVU1726
 5413 002a 08BD     		pop	{r3, pc}
 5414              	.L307:
 5415              		.align	2
 5416              	.L306:
 5417 002c 00000000 		.word	HAL_UART_AbortCpltCallback
 5418              		.cfi_endproc
 5419              	.LFE120:
 5421              		.section	.text.UART_DMATxAbortCallback,"ax",%progbits
 5422              		.align	1
 5423              		.syntax unified
 5424              		.thumb
 5425              		.thumb_func
 5426              		.fpu softvfp
 5428              	UART_DMATxAbortCallback:
 5429              	.LVL481:
 5430              	.LFB119:
 5431              		.loc 1 3369 1 is_stmt 1 view -0
ARM GAS  C:\Users\HP\AppData\Local\Temp\cc3vbRST.s 			page 95


 5432              		.cfi_startproc
 5433              		@ args = 0, pretend = 0, frame = 0
 5434              		@ frame_needed = 0, uses_anonymous_args = 0
 5435              		.loc 1 3369 1 is_stmt 0 view .LVU1728
 5436 0000 08B5     		push	{r3, lr}
 5437              	.LCFI38:
 5438              		.cfi_def_cfa_offset 8
 5439              		.cfi_offset 3, -8
 5440              		.cfi_offset 14, -4
 5441              		.loc 1 3370 3 is_stmt 1 view .LVU1729
 5442              		.loc 1 3370 23 is_stmt 0 view .LVU1730
 5443 0002 406A     		ldr	r0, [r0, #36]
 5444              	.LVL482:
 5445              		.loc 1 3372 3 is_stmt 1 view .LVU1731
 5446              		.loc 1 3372 8 is_stmt 0 view .LVU1732
 5447 0004 836B     		ldr	r3, [r0, #56]
 5448              		.loc 1 3372 36 view .LVU1733
 5449 0006 0022     		movs	r2, #0
 5450 0008 5A63     		str	r2, [r3, #52]
 5451              		.loc 1 3375 3 is_stmt 1 view .LVU1734
 5452              		.loc 1 3375 12 is_stmt 0 view .LVU1735
 5453 000a C36B     		ldr	r3, [r0, #60]
 5454              		.loc 1 3375 6 view .LVU1736
 5455 000c 0BB1     		cbz	r3, .L309
 5456              		.loc 1 3377 5 is_stmt 1 view .LVU1737
 5457              		.loc 1 3377 22 is_stmt 0 view .LVU1738
 5458 000e 5B6B     		ldr	r3, [r3, #52]
 5459              		.loc 1 3377 8 view .LVU1739
 5460 0010 5BB9     		cbnz	r3, .L308
 5461              	.L309:
 5462              		.loc 1 3384 3 is_stmt 1 view .LVU1740
 5463              		.loc 1 3384 22 is_stmt 0 view .LVU1741
 5464 0012 0023     		movs	r3, #0
 5465 0014 C384     		strh	r3, [r0, #38]	@ movhi
 5466              		.loc 1 3385 3 is_stmt 1 view .LVU1742
 5467              		.loc 1 3385 22 is_stmt 0 view .LVU1743
 5468 0016 C385     		strh	r3, [r0, #46]	@ movhi
 5469              		.loc 1 3388 3 is_stmt 1 view .LVU1744
 5470              		.loc 1 3388 20 is_stmt 0 view .LVU1745
 5471 0018 4364     		str	r3, [r0, #68]
 5472              		.loc 1 3391 3 is_stmt 1 view .LVU1746
 5473              		.loc 1 3391 18 is_stmt 0 view .LVU1747
 5474 001a 2022     		movs	r2, #32
 5475 001c 80F84120 		strb	r2, [r0, #65]
 5476              		.loc 1 3392 3 is_stmt 1 view .LVU1748
 5477              		.loc 1 3392 18 is_stmt 0 view .LVU1749
 5478 0020 80F84220 		strb	r2, [r0, #66]
 5479              		.loc 1 3393 3 is_stmt 1 view .LVU1750
 5480              		.loc 1 3393 24 is_stmt 0 view .LVU1751
 5481 0024 0363     		str	r3, [r0, #48]
 5482              		.loc 1 3401 3 is_stmt 1 view .LVU1752
 5483 0026 014B     		ldr	r3, .L312
 5484 0028 9847     		blx	r3
 5485              	.LVL483:
 5486              	.L308:
 5487              		.loc 1 3403 1 is_stmt 0 view .LVU1753
 5488 002a 08BD     		pop	{r3, pc}
ARM GAS  C:\Users\HP\AppData\Local\Temp\cc3vbRST.s 			page 96


 5489              	.L313:
 5490              		.align	2
 5491              	.L312:
 5492 002c 00000000 		.word	HAL_UART_AbortCpltCallback
 5493              		.cfi_endproc
 5494              	.LFE119:
 5496              		.section	.text.HAL_UART_AbortTransmitCpltCallback,"ax",%progbits
 5497              		.align	1
 5498              		.weak	HAL_UART_AbortTransmitCpltCallback
 5499              		.syntax unified
 5500              		.thumb
 5501              		.thumb_func
 5502              		.fpu softvfp
 5504              	HAL_UART_AbortTransmitCpltCallback:
 5505              	.LVL484:
 5506              	.LFB98:
 5507              		.loc 1 2679 1 is_stmt 1 view -0
 5508              		.cfi_startproc
 5509              		@ args = 0, pretend = 0, frame = 0
 5510              		@ frame_needed = 0, uses_anonymous_args = 0
 5511              		@ link register save eliminated.
 5512              		.loc 1 2681 3 view .LVU1755
 5513              		.loc 1 2686 1 is_stmt 0 view .LVU1756
 5514 0000 7047     		bx	lr
 5515              		.cfi_endproc
 5516              	.LFE98:
 5518              		.section	.text.HAL_UART_AbortTransmit_IT,"ax",%progbits
 5519              		.align	1
 5520              		.global	HAL_UART_AbortTransmit_IT
 5521              		.syntax unified
 5522              		.thumb
 5523              		.thumb_func
 5524              		.fpu softvfp
 5526              	HAL_UART_AbortTransmit_IT:
 5527              	.LVL485:
 5528              	.LFB89:
 5529              		.loc 1 2193 1 is_stmt 1 view -0
 5530              		.cfi_startproc
 5531              		@ args = 0, pretend = 0, frame = 0
 5532              		@ frame_needed = 0, uses_anonymous_args = 0
 5533              		.loc 1 2193 1 is_stmt 0 view .LVU1758
 5534 0000 10B5     		push	{r4, lr}
 5535              	.LCFI39:
 5536              		.cfi_def_cfa_offset 8
 5537              		.cfi_offset 4, -8
 5538              		.cfi_offset 14, -4
 5539 0002 0446     		mov	r4, r0
 5540              	.L316:
 5541              		.loc 1 2195 3 is_stmt 1 discriminator 1 view .LVU1759
 5542              	.LBB498:
 5543              		.loc 1 2195 3 discriminator 1 view .LVU1760
 5544              		.loc 1 2195 3 discriminator 1 view .LVU1761
 5545              		.loc 1 2195 3 discriminator 1 view .LVU1762
 5546 0004 2268     		ldr	r2, [r4]
 5547              	.LVL486:
 5548              	.LBB499:
 5549              	.LBI499:
ARM GAS  C:\Users\HP\AppData\Local\Temp\cc3vbRST.s 			page 97


 5550              		.loc 2 1068 31 discriminator 1 view .LVU1763
 5551              	.LBB500:
 5552              		.loc 2 1070 5 discriminator 1 view .LVU1764
 5553              		.loc 2 1072 4 discriminator 1 view .LVU1765
 5554 0006 02F10C03 		add	r3, r2, #12
 5555              	.LVL487:
 5556              		.loc 2 1072 4 is_stmt 0 discriminator 1 view .LVU1766
 5557              		.syntax unified
 5558              	@ 1072 "Drivers/CMSIS/Include/cmsis_gcc.h" 1
 5559 000a 53E8003F 		ldrex r3, [r3]
 5560              	@ 0 "" 2
 5561              	.LVL488:
 5562              		.loc 2 1073 4 is_stmt 1 discriminator 1 view .LVU1767
 5563              		.loc 2 1073 4 is_stmt 0 discriminator 1 view .LVU1768
 5564              		.thumb
 5565              		.syntax unified
 5566              	.LBE500:
 5567              	.LBE499:
 5568              		.loc 1 2195 3 discriminator 1 view .LVU1769
 5569 000e 23F0C003 		bic	r3, r3, #192
 5570              	.LVL489:
 5571              		.loc 1 2195 3 is_stmt 1 discriminator 1 view .LVU1770
 5572              	.LBB501:
 5573              	.LBI501:
 5574              		.loc 2 1119 31 discriminator 1 view .LVU1771
 5575              	.LBB502:
 5576              		.loc 2 1121 4 discriminator 1 view .LVU1772
 5577              		.loc 2 1123 4 discriminator 1 view .LVU1773
 5578 0012 0C32     		adds	r2, r2, #12
 5579              	.LVL490:
 5580              		.loc 2 1123 4 is_stmt 0 discriminator 1 view .LVU1774
 5581              		.syntax unified
 5582              	@ 1123 "Drivers/CMSIS/Include/cmsis_gcc.h" 1
 5583 0014 42E80031 		strex r1, r3, [r2]
 5584              	@ 0 "" 2
 5585              	.LVL491:
 5586              		.loc 2 1124 4 is_stmt 1 discriminator 1 view .LVU1775
 5587              		.loc 2 1124 4 is_stmt 0 discriminator 1 view .LVU1776
 5588              		.thumb
 5589              		.syntax unified
 5590              	.LBE502:
 5591              	.LBE501:
 5592              		.loc 1 2195 3 discriminator 1 view .LVU1777
 5593 0018 0029     		cmp	r1, #0
 5594 001a F3D1     		bne	.L316
 5595              	.LBE498:
 5596              		.loc 1 2195 3 is_stmt 1 discriminator 2 view .LVU1778
 5597              		.loc 1 2198 3 discriminator 2 view .LVU1779
 5598              		.loc 1 2198 7 is_stmt 0 discriminator 2 view .LVU1780
 5599 001c 2368     		ldr	r3, [r4]
 5600              	.LVL492:
 5601              		.loc 1 2198 7 discriminator 2 view .LVU1781
 5602 001e 5B69     		ldr	r3, [r3, #20]
 5603              		.loc 1 2198 6 discriminator 2 view .LVU1782
 5604 0020 13F0800F 		tst	r3, #128
 5605 0024 20D0     		beq	.L317
 5606              	.L318:
ARM GAS  C:\Users\HP\AppData\Local\Temp\cc3vbRST.s 			page 98


 5607              		.loc 1 2200 5 is_stmt 1 discriminator 1 view .LVU1783
 5608              	.LBB503:
 5609              		.loc 1 2200 5 discriminator 1 view .LVU1784
 5610              		.loc 1 2200 5 discriminator 1 view .LVU1785
 5611              		.loc 1 2200 5 discriminator 1 view .LVU1786
 5612 0026 2268     		ldr	r2, [r4]
 5613              	.LVL493:
 5614              	.LBB504:
 5615              	.LBI504:
 5616              		.loc 2 1068 31 discriminator 1 view .LVU1787
 5617              	.LBB505:
 5618              		.loc 2 1070 5 discriminator 1 view .LVU1788
 5619              		.loc 2 1072 4 discriminator 1 view .LVU1789
 5620 0028 02F11403 		add	r3, r2, #20
 5621              	.LVL494:
 5622              		.loc 2 1072 4 is_stmt 0 discriminator 1 view .LVU1790
 5623              		.syntax unified
 5624              	@ 1072 "Drivers/CMSIS/Include/cmsis_gcc.h" 1
 5625 002c 53E8003F 		ldrex r3, [r3]
 5626              	@ 0 "" 2
 5627              	.LVL495:
 5628              		.loc 2 1073 4 is_stmt 1 discriminator 1 view .LVU1791
 5629              		.loc 2 1073 4 is_stmt 0 discriminator 1 view .LVU1792
 5630              		.thumb
 5631              		.syntax unified
 5632              	.LBE505:
 5633              	.LBE504:
 5634              		.loc 1 2200 5 discriminator 1 view .LVU1793
 5635 0030 23F08003 		bic	r3, r3, #128
 5636              	.LVL496:
 5637              		.loc 1 2200 5 is_stmt 1 discriminator 1 view .LVU1794
 5638              	.LBB506:
 5639              	.LBI506:
 5640              		.loc 2 1119 31 discriminator 1 view .LVU1795
 5641              	.LBB507:
 5642              		.loc 2 1121 4 discriminator 1 view .LVU1796
 5643              		.loc 2 1123 4 discriminator 1 view .LVU1797
 5644 0034 1432     		adds	r2, r2, #20
 5645              	.LVL497:
 5646              		.loc 2 1123 4 is_stmt 0 discriminator 1 view .LVU1798
 5647              		.syntax unified
 5648              	@ 1123 "Drivers/CMSIS/Include/cmsis_gcc.h" 1
 5649 0036 42E80031 		strex r1, r3, [r2]
 5650              	@ 0 "" 2
 5651              	.LVL498:
 5652              		.loc 2 1124 4 is_stmt 1 discriminator 1 view .LVU1799
 5653              		.loc 2 1124 4 is_stmt 0 discriminator 1 view .LVU1800
 5654              		.thumb
 5655              		.syntax unified
 5656              	.LBE507:
 5657              	.LBE506:
 5658              		.loc 1 2200 5 discriminator 1 view .LVU1801
 5659 003a 0029     		cmp	r1, #0
 5660 003c F3D1     		bne	.L318
 5661              	.LBE503:
 5662              		.loc 1 2200 5 is_stmt 1 discriminator 2 view .LVU1802
 5663              		.loc 1 2203 5 discriminator 2 view .LVU1803
ARM GAS  C:\Users\HP\AppData\Local\Temp\cc3vbRST.s 			page 99


 5664              		.loc 1 2203 14 is_stmt 0 discriminator 2 view .LVU1804
 5665 003e A36B     		ldr	r3, [r4, #56]
 5666              	.LVL499:
 5667              		.loc 1 2203 8 discriminator 2 view .LVU1805
 5668 0040 4BB1     		cbz	r3, .L319
 5669              		.loc 1 2207 7 is_stmt 1 view .LVU1806
 5670              		.loc 1 2207 40 is_stmt 0 view .LVU1807
 5671 0042 0E4A     		ldr	r2, .L322
 5672 0044 5A63     		str	r2, [r3, #52]
 5673              		.loc 1 2210 7 is_stmt 1 view .LVU1808
 5674              		.loc 1 2210 11 is_stmt 0 view .LVU1809
 5675 0046 A06B     		ldr	r0, [r4, #56]
 5676              	.LVL500:
 5677              		.loc 1 2210 11 view .LVU1810
 5678 0048 0D4B     		ldr	r3, .L322+4
 5679 004a 9847     		blx	r3
 5680              	.LVL501:
 5681              		.loc 1 2210 10 view .LVU1811
 5682 004c A0B1     		cbz	r0, .L320
 5683              		.loc 1 2213 9 is_stmt 1 view .LVU1812
 5684              		.loc 1 2213 14 is_stmt 0 view .LVU1813
 5685 004e A06B     		ldr	r0, [r4, #56]
 5686              		.loc 1 2213 22 view .LVU1814
 5687 0050 436B     		ldr	r3, [r0, #52]
 5688              		.loc 1 2213 9 view .LVU1815
 5689 0052 9847     		blx	r3
 5690              	.LVL502:
 5691 0054 10E0     		b	.L320
 5692              	.LVL503:
 5693              	.L319:
 5694              		.loc 1 2219 7 is_stmt 1 view .LVU1816
 5695              		.loc 1 2219 26 is_stmt 0 view .LVU1817
 5696 0056 0023     		movs	r3, #0
 5697 0058 E384     		strh	r3, [r4, #38]	@ movhi
 5698              		.loc 1 2222 7 is_stmt 1 view .LVU1818
 5699              		.loc 1 2222 21 is_stmt 0 view .LVU1819
 5700 005a 2023     		movs	r3, #32
 5701 005c 84F84130 		strb	r3, [r4, #65]
 5702              		.loc 1 2230 7 is_stmt 1 view .LVU1820
 5703 0060 2046     		mov	r0, r4
 5704              	.LVL504:
 5705              		.loc 1 2230 7 is_stmt 0 view .LVU1821
 5706 0062 084B     		ldr	r3, .L322+8
 5707 0064 9847     		blx	r3
 5708              	.LVL505:
 5709 0066 07E0     		b	.L320
 5710              	.LVL506:
 5711              	.L317:
 5712              		.loc 1 2237 5 is_stmt 1 view .LVU1822
 5713              		.loc 1 2237 24 is_stmt 0 view .LVU1823
 5714 0068 0023     		movs	r3, #0
 5715 006a E384     		strh	r3, [r4, #38]	@ movhi
 5716              		.loc 1 2240 5 is_stmt 1 view .LVU1824
 5717              		.loc 1 2240 19 is_stmt 0 view .LVU1825
 5718 006c 2023     		movs	r3, #32
 5719 006e 84F84130 		strb	r3, [r4, #65]
 5720              		.loc 1 2248 5 is_stmt 1 view .LVU1826
ARM GAS  C:\Users\HP\AppData\Local\Temp\cc3vbRST.s 			page 100


 5721 0072 2046     		mov	r0, r4
 5722              	.LVL507:
 5723              		.loc 1 2248 5 is_stmt 0 view .LVU1827
 5724 0074 034B     		ldr	r3, .L322+8
 5725 0076 9847     		blx	r3
 5726              	.LVL508:
 5727              	.L320:
 5728              		.loc 1 2252 3 is_stmt 1 view .LVU1828
 5729              		.loc 1 2253 1 is_stmt 0 view .LVU1829
 5730 0078 0020     		movs	r0, #0
 5731 007a 10BD     		pop	{r4, pc}
 5732              	.LVL509:
 5733              	.L323:
 5734              		.loc 1 2253 1 view .LVU1830
 5735              		.align	2
 5736              	.L322:
 5737 007c 00000000 		.word	UART_DMATxOnlyAbortCallback
 5738 0080 00000000 		.word	HAL_DMA_Abort_IT
 5739 0084 00000000 		.word	HAL_UART_AbortTransmitCpltCallback
 5740              		.cfi_endproc
 5741              	.LFE89:
 5743              		.section	.text.UART_DMATxOnlyAbortCallback,"ax",%progbits
 5744              		.align	1
 5745              		.syntax unified
 5746              		.thumb
 5747              		.thumb_func
 5748              		.fpu softvfp
 5750              	UART_DMATxOnlyAbortCallback:
 5751              	.LVL510:
 5752              	.LFB121:
 5753              		.loc 1 3461 1 is_stmt 1 view -0
 5754              		.cfi_startproc
 5755              		@ args = 0, pretend = 0, frame = 0
 5756              		@ frame_needed = 0, uses_anonymous_args = 0
 5757              		.loc 1 3461 1 is_stmt 0 view .LVU1832
 5758 0000 08B5     		push	{r3, lr}
 5759              	.LCFI40:
 5760              		.cfi_def_cfa_offset 8
 5761              		.cfi_offset 3, -8
 5762              		.cfi_offset 14, -4
 5763              		.loc 1 3462 3 is_stmt 1 view .LVU1833
 5764              		.loc 1 3462 23 is_stmt 0 view .LVU1834
 5765 0002 406A     		ldr	r0, [r0, #36]
 5766              	.LVL511:
 5767              		.loc 1 3464 3 is_stmt 1 view .LVU1835
 5768              		.loc 1 3464 22 is_stmt 0 view .LVU1836
 5769 0004 0023     		movs	r3, #0
 5770 0006 C384     		strh	r3, [r0, #38]	@ movhi
 5771              		.loc 1 3467 3 is_stmt 1 view .LVU1837
 5772              		.loc 1 3467 17 is_stmt 0 view .LVU1838
 5773 0008 2023     		movs	r3, #32
 5774 000a 80F84130 		strb	r3, [r0, #65]
 5775              		.loc 1 3475 3 is_stmt 1 view .LVU1839
 5776 000e 014B     		ldr	r3, .L326
 5777 0010 9847     		blx	r3
 5778              	.LVL512:
 5779              		.loc 1 3477 1 is_stmt 0 view .LVU1840
ARM GAS  C:\Users\HP\AppData\Local\Temp\cc3vbRST.s 			page 101


 5780 0012 08BD     		pop	{r3, pc}
 5781              	.L327:
 5782              		.align	2
 5783              	.L326:
 5784 0014 00000000 		.word	HAL_UART_AbortTransmitCpltCallback
 5785              		.cfi_endproc
 5786              	.LFE121:
 5788              		.section	.text.HAL_UART_AbortReceiveCpltCallback,"ax",%progbits
 5789              		.align	1
 5790              		.weak	HAL_UART_AbortReceiveCpltCallback
 5791              		.syntax unified
 5792              		.thumb
 5793              		.thumb_func
 5794              		.fpu softvfp
 5796              	HAL_UART_AbortReceiveCpltCallback:
 5797              	.LVL513:
 5798              	.LFB99:
 5799              		.loc 1 2694 1 is_stmt 1 view -0
 5800              		.cfi_startproc
 5801              		@ args = 0, pretend = 0, frame = 0
 5802              		@ frame_needed = 0, uses_anonymous_args = 0
 5803              		@ link register save eliminated.
 5804              		.loc 1 2696 3 view .LVU1842
 5805              		.loc 1 2701 1 is_stmt 0 view .LVU1843
 5806 0000 7047     		bx	lr
 5807              		.cfi_endproc
 5808              	.LFE99:
 5810              		.section	.text.HAL_UART_AbortReceive_IT,"ax",%progbits
 5811              		.align	1
 5812              		.global	HAL_UART_AbortReceive_IT
 5813              		.syntax unified
 5814              		.thumb
 5815              		.thumb_func
 5816              		.fpu softvfp
 5818              	HAL_UART_AbortReceive_IT:
 5819              	.LVL514:
 5820              	.LFB90:
 5821              		.loc 1 2270 1 is_stmt 1 view -0
 5822              		.cfi_startproc
 5823              		@ args = 0, pretend = 0, frame = 0
 5824              		@ frame_needed = 0, uses_anonymous_args = 0
 5825              		.loc 1 2270 1 is_stmt 0 view .LVU1845
 5826 0000 10B5     		push	{r4, lr}
 5827              	.LCFI41:
 5828              		.cfi_def_cfa_offset 8
 5829              		.cfi_offset 4, -8
 5830              		.cfi_offset 14, -4
 5831 0002 0446     		mov	r4, r0
 5832              	.L330:
 5833              		.loc 1 2272 3 is_stmt 1 discriminator 1 view .LVU1846
 5834              	.LBB508:
 5835              		.loc 1 2272 3 discriminator 1 view .LVU1847
 5836              		.loc 1 2272 3 discriminator 1 view .LVU1848
 5837              		.loc 1 2272 3 discriminator 1 view .LVU1849
 5838 0004 2268     		ldr	r2, [r4]
 5839              	.LVL515:
 5840              	.LBB509:
ARM GAS  C:\Users\HP\AppData\Local\Temp\cc3vbRST.s 			page 102


 5841              	.LBI509:
 5842              		.loc 2 1068 31 discriminator 1 view .LVU1850
 5843              	.LBB510:
 5844              		.loc 2 1070 5 discriminator 1 view .LVU1851
 5845              		.loc 2 1072 4 discriminator 1 view .LVU1852
 5846 0006 02F10C03 		add	r3, r2, #12
 5847              	.LVL516:
 5848              		.loc 2 1072 4 is_stmt 0 discriminator 1 view .LVU1853
 5849              		.syntax unified
 5850              	@ 1072 "Drivers/CMSIS/Include/cmsis_gcc.h" 1
 5851 000a 53E8003F 		ldrex r3, [r3]
 5852              	@ 0 "" 2
 5853              	.LVL517:
 5854              		.loc 2 1073 4 is_stmt 1 discriminator 1 view .LVU1854
 5855              		.loc 2 1073 4 is_stmt 0 discriminator 1 view .LVU1855
 5856              		.thumb
 5857              		.syntax unified
 5858              	.LBE510:
 5859              	.LBE509:
 5860              		.loc 1 2272 3 discriminator 1 view .LVU1856
 5861 000e 23F49073 		bic	r3, r3, #288
 5862              	.LVL518:
 5863              		.loc 1 2272 3 is_stmt 1 discriminator 1 view .LVU1857
 5864              	.LBB511:
 5865              	.LBI511:
 5866              		.loc 2 1119 31 discriminator 1 view .LVU1858
 5867              	.LBB512:
 5868              		.loc 2 1121 4 discriminator 1 view .LVU1859
 5869              		.loc 2 1123 4 discriminator 1 view .LVU1860
 5870 0012 0C32     		adds	r2, r2, #12
 5871              	.LVL519:
 5872              		.loc 2 1123 4 is_stmt 0 discriminator 1 view .LVU1861
 5873              		.syntax unified
 5874              	@ 1123 "Drivers/CMSIS/Include/cmsis_gcc.h" 1
 5875 0014 42E80031 		strex r1, r3, [r2]
 5876              	@ 0 "" 2
 5877              	.LVL520:
 5878              		.loc 2 1124 4 is_stmt 1 discriminator 1 view .LVU1862
 5879              		.loc 2 1124 4 is_stmt 0 discriminator 1 view .LVU1863
 5880              		.thumb
 5881              		.syntax unified
 5882              	.LBE512:
 5883              	.LBE511:
 5884              		.loc 1 2272 3 discriminator 1 view .LVU1864
 5885 0018 0029     		cmp	r1, #0
 5886 001a F3D1     		bne	.L330
 5887              	.LVL521:
 5888              	.L331:
 5889              		.loc 1 2272 3 discriminator 1 view .LVU1865
 5890              	.LBE508:
 5891              		.loc 1 2272 3 is_stmt 1 discriminator 1 view .LVU1866
 5892              		.loc 1 2273 3 discriminator 1 view .LVU1867
 5893              	.LBB513:
 5894              		.loc 1 2273 3 discriminator 1 view .LVU1868
 5895              		.loc 1 2273 3 discriminator 1 view .LVU1869
 5896              		.loc 1 2273 3 discriminator 1 view .LVU1870
 5897 001c 2268     		ldr	r2, [r4]
ARM GAS  C:\Users\HP\AppData\Local\Temp\cc3vbRST.s 			page 103


 5898              	.LVL522:
 5899              	.LBB514:
 5900              	.LBI514:
 5901              		.loc 2 1068 31 discriminator 1 view .LVU1871
 5902              	.LBB515:
 5903              		.loc 2 1070 5 discriminator 1 view .LVU1872
 5904              		.loc 2 1072 4 discriminator 1 view .LVU1873
 5905 001e 02F11403 		add	r3, r2, #20
 5906              	.LVL523:
 5907              		.loc 2 1072 4 is_stmt 0 discriminator 1 view .LVU1874
 5908              		.syntax unified
 5909              	@ 1072 "Drivers/CMSIS/Include/cmsis_gcc.h" 1
 5910 0022 53E8003F 		ldrex r3, [r3]
 5911              	@ 0 "" 2
 5912              	.LVL524:
 5913              		.loc 2 1073 4 is_stmt 1 discriminator 1 view .LVU1875
 5914              		.loc 2 1073 4 is_stmt 0 discriminator 1 view .LVU1876
 5915              		.thumb
 5916              		.syntax unified
 5917              	.LBE515:
 5918              	.LBE514:
 5919              		.loc 1 2273 3 discriminator 1 view .LVU1877
 5920 0026 23F00103 		bic	r3, r3, #1
 5921              	.LVL525:
 5922              		.loc 1 2273 3 is_stmt 1 discriminator 1 view .LVU1878
 5923              	.LBB516:
 5924              	.LBI516:
 5925              		.loc 2 1119 31 discriminator 1 view .LVU1879
 5926              	.LBB517:
 5927              		.loc 2 1121 4 discriminator 1 view .LVU1880
 5928              		.loc 2 1123 4 discriminator 1 view .LVU1881
 5929 002a 1432     		adds	r2, r2, #20
 5930              	.LVL526:
 5931              		.loc 2 1123 4 is_stmt 0 discriminator 1 view .LVU1882
 5932              		.syntax unified
 5933              	@ 1123 "Drivers/CMSIS/Include/cmsis_gcc.h" 1
 5934 002c 42E80031 		strex r1, r3, [r2]
 5935              	@ 0 "" 2
 5936              	.LVL527:
 5937              		.loc 2 1124 4 is_stmt 1 discriminator 1 view .LVU1883
 5938              		.loc 2 1124 4 is_stmt 0 discriminator 1 view .LVU1884
 5939              		.thumb
 5940              		.syntax unified
 5941              	.LBE517:
 5942              	.LBE516:
 5943              		.loc 1 2273 3 discriminator 1 view .LVU1885
 5944 0030 0029     		cmp	r1, #0
 5945 0032 F3D1     		bne	.L331
 5946              	.LBE513:
 5947              		.loc 1 2273 3 is_stmt 1 discriminator 2 view .LVU1886
 5948              		.loc 1 2276 3 discriminator 2 view .LVU1887
 5949              		.loc 1 2276 12 is_stmt 0 discriminator 2 view .LVU1888
 5950 0034 236B     		ldr	r3, [r4, #48]
 5951              	.LVL528:
 5952              		.loc 1 2276 6 discriminator 2 view .LVU1889
 5953 0036 012B     		cmp	r3, #1
 5954 0038 1CD0     		beq	.L333
ARM GAS  C:\Users\HP\AppData\Local\Temp\cc3vbRST.s 			page 104


 5955              	.L332:
 5956              		.loc 1 2278 5 is_stmt 1 discriminator 2 view .LVU1890
 5957              		.loc 1 2282 3 discriminator 2 view .LVU1891
 5958              		.loc 1 2282 7 is_stmt 0 discriminator 2 view .LVU1892
 5959 003a 2368     		ldr	r3, [r4]
 5960 003c 5B69     		ldr	r3, [r3, #20]
 5961              		.loc 1 2282 6 discriminator 2 view .LVU1893
 5962 003e 13F0400F 		tst	r3, #64
 5963 0042 2ED0     		beq	.L334
 5964              	.L335:
 5965              		.loc 1 2284 5 is_stmt 1 discriminator 1 view .LVU1894
 5966              	.LBB518:
 5967              		.loc 1 2284 5 discriminator 1 view .LVU1895
 5968              		.loc 1 2284 5 discriminator 1 view .LVU1896
 5969              		.loc 1 2284 5 discriminator 1 view .LVU1897
 5970 0044 2268     		ldr	r2, [r4]
 5971              	.LVL529:
 5972              	.LBB519:
 5973              	.LBI519:
 5974              		.loc 2 1068 31 discriminator 1 view .LVU1898
 5975              	.LBB520:
 5976              		.loc 2 1070 5 discriminator 1 view .LVU1899
 5977              		.loc 2 1072 4 discriminator 1 view .LVU1900
 5978 0046 02F11403 		add	r3, r2, #20
 5979              	.LVL530:
 5980              		.loc 2 1072 4 is_stmt 0 discriminator 1 view .LVU1901
 5981              		.syntax unified
 5982              	@ 1072 "Drivers/CMSIS/Include/cmsis_gcc.h" 1
 5983 004a 53E8003F 		ldrex r3, [r3]
 5984              	@ 0 "" 2
 5985              	.LVL531:
 5986              		.loc 2 1073 4 is_stmt 1 discriminator 1 view .LVU1902
 5987              		.loc 2 1073 4 is_stmt 0 discriminator 1 view .LVU1903
 5988              		.thumb
 5989              		.syntax unified
 5990              	.LBE520:
 5991              	.LBE519:
 5992              		.loc 1 2284 5 discriminator 1 view .LVU1904
 5993 004e 23F04003 		bic	r3, r3, #64
 5994              	.LVL532:
 5995              		.loc 1 2284 5 is_stmt 1 discriminator 1 view .LVU1905
 5996              	.LBB521:
 5997              	.LBI521:
 5998              		.loc 2 1119 31 discriminator 1 view .LVU1906
 5999              	.LBB522:
 6000              		.loc 2 1121 4 discriminator 1 view .LVU1907
 6001              		.loc 2 1123 4 discriminator 1 view .LVU1908
 6002 0052 1432     		adds	r2, r2, #20
 6003              	.LVL533:
 6004              		.loc 2 1123 4 is_stmt 0 discriminator 1 view .LVU1909
 6005              		.syntax unified
 6006              	@ 1123 "Drivers/CMSIS/Include/cmsis_gcc.h" 1
 6007 0054 42E80031 		strex r1, r3, [r2]
 6008              	@ 0 "" 2
 6009              	.LVL534:
 6010              		.loc 2 1124 4 is_stmt 1 discriminator 1 view .LVU1910
 6011              		.loc 2 1124 4 is_stmt 0 discriminator 1 view .LVU1911
ARM GAS  C:\Users\HP\AppData\Local\Temp\cc3vbRST.s 			page 105


 6012              		.thumb
 6013              		.syntax unified
 6014              	.LBE522:
 6015              	.LBE521:
 6016              		.loc 1 2284 5 discriminator 1 view .LVU1912
 6017 0058 0029     		cmp	r1, #0
 6018 005a F3D1     		bne	.L335
 6019              	.LBE518:
 6020              		.loc 1 2284 5 is_stmt 1 discriminator 2 view .LVU1913
 6021              		.loc 1 2287 5 discriminator 2 view .LVU1914
 6022              		.loc 1 2287 14 is_stmt 0 discriminator 2 view .LVU1915
 6023 005c E36B     		ldr	r3, [r4, #60]
 6024              	.LVL535:
 6025              		.loc 1 2287 8 discriminator 2 view .LVU1916
 6026 005e B3B1     		cbz	r3, .L336
 6027              		.loc 1 2291 7 is_stmt 1 view .LVU1917
 6028              		.loc 1 2291 40 is_stmt 0 view .LVU1918
 6029 0060 154A     		ldr	r2, .L339
 6030 0062 5A63     		str	r2, [r3, #52]
 6031              		.loc 1 2294 7 is_stmt 1 view .LVU1919
 6032              		.loc 1 2294 11 is_stmt 0 view .LVU1920
 6033 0064 E06B     		ldr	r0, [r4, #60]
 6034              	.LVL536:
 6035              		.loc 1 2294 11 view .LVU1921
 6036 0066 154B     		ldr	r3, .L339+4
 6037 0068 9847     		blx	r3
 6038              	.LVL537:
 6039              		.loc 1 2294 10 view .LVU1922
 6040 006a 18B3     		cbz	r0, .L337
 6041              		.loc 1 2297 9 is_stmt 1 view .LVU1923
 6042              		.loc 1 2297 14 is_stmt 0 view .LVU1924
 6043 006c E06B     		ldr	r0, [r4, #60]
 6044              		.loc 1 2297 22 view .LVU1925
 6045 006e 436B     		ldr	r3, [r0, #52]
 6046              		.loc 1 2297 9 view .LVU1926
 6047 0070 9847     		blx	r3
 6048              	.LVL538:
 6049 0072 1FE0     		b	.L337
 6050              	.LVL539:
 6051              	.L333:
 6052              		.loc 1 2278 5 is_stmt 1 discriminator 1 view .LVU1927
 6053              	.LBB523:
 6054              		.loc 1 2278 5 discriminator 1 view .LVU1928
 6055              		.loc 1 2278 5 discriminator 1 view .LVU1929
 6056              		.loc 1 2278 5 discriminator 1 view .LVU1930
 6057 0074 2268     		ldr	r2, [r4]
 6058              	.LVL540:
 6059              	.LBB524:
 6060              	.LBI524:
 6061              		.loc 2 1068 31 discriminator 1 view .LVU1931
 6062              	.LBB525:
 6063              		.loc 2 1070 5 discriminator 1 view .LVU1932
 6064              		.loc 2 1072 4 discriminator 1 view .LVU1933
 6065 0076 02F10C03 		add	r3, r2, #12
 6066              	.LVL541:
 6067              		.loc 2 1072 4 is_stmt 0 discriminator 1 view .LVU1934
 6068              		.syntax unified
ARM GAS  C:\Users\HP\AppData\Local\Temp\cc3vbRST.s 			page 106


 6069              	@ 1072 "Drivers/CMSIS/Include/cmsis_gcc.h" 1
 6070 007a 53E8003F 		ldrex r3, [r3]
 6071              	@ 0 "" 2
 6072              	.LVL542:
 6073              		.loc 2 1073 4 is_stmt 1 discriminator 1 view .LVU1935
 6074              		.loc 2 1073 4 is_stmt 0 discriminator 1 view .LVU1936
 6075              		.thumb
 6076              		.syntax unified
 6077              	.LBE525:
 6078              	.LBE524:
 6079              		.loc 1 2278 5 discriminator 1 view .LVU1937
 6080 007e 23F01003 		bic	r3, r3, #16
 6081              	.LVL543:
 6082              		.loc 1 2278 5 is_stmt 1 discriminator 1 view .LVU1938
 6083              	.LBB526:
 6084              	.LBI526:
 6085              		.loc 2 1119 31 discriminator 1 view .LVU1939
 6086              	.LBB527:
 6087              		.loc 2 1121 4 discriminator 1 view .LVU1940
 6088              		.loc 2 1123 4 discriminator 1 view .LVU1941
 6089 0082 0C32     		adds	r2, r2, #12
 6090              	.LVL544:
 6091              		.loc 2 1123 4 is_stmt 0 discriminator 1 view .LVU1942
 6092              		.syntax unified
 6093              	@ 1123 "Drivers/CMSIS/Include/cmsis_gcc.h" 1
 6094 0084 42E80031 		strex r1, r3, [r2]
 6095              	@ 0 "" 2
 6096              	.LVL545:
 6097              		.loc 2 1124 4 is_stmt 1 discriminator 1 view .LVU1943
 6098              		.loc 2 1124 4 is_stmt 0 discriminator 1 view .LVU1944
 6099              		.thumb
 6100              		.syntax unified
 6101              	.LBE527:
 6102              	.LBE526:
 6103              		.loc 1 2278 5 discriminator 1 view .LVU1945
 6104 0088 0029     		cmp	r1, #0
 6105 008a F3D1     		bne	.L333
 6106 008c D5E7     		b	.L332
 6107              	.LVL546:
 6108              	.L336:
 6109              		.loc 1 2278 5 discriminator 1 view .LVU1946
 6110              	.LBE523:
 6111              		.loc 1 2303 7 is_stmt 1 view .LVU1947
 6112              		.loc 1 2303 26 is_stmt 0 view .LVU1948
 6113 008e 0023     		movs	r3, #0
 6114 0090 E385     		strh	r3, [r4, #46]	@ movhi
 6115              		.loc 1 2306 7 is_stmt 1 view .LVU1949
 6116              		.loc 1 2306 22 is_stmt 0 view .LVU1950
 6117 0092 2022     		movs	r2, #32
 6118 0094 84F84220 		strb	r2, [r4, #66]
 6119              		.loc 1 2307 7 is_stmt 1 view .LVU1951
 6120              		.loc 1 2307 28 is_stmt 0 view .LVU1952
 6121 0098 2363     		str	r3, [r4, #48]
 6122              		.loc 1 2315 7 is_stmt 1 view .LVU1953
 6123 009a 2046     		mov	r0, r4
 6124              	.LVL547:
 6125              		.loc 1 2315 7 is_stmt 0 view .LVU1954
ARM GAS  C:\Users\HP\AppData\Local\Temp\cc3vbRST.s 			page 107


 6126 009c 084B     		ldr	r3, .L339+8
 6127 009e 9847     		blx	r3
 6128              	.LVL548:
 6129 00a0 08E0     		b	.L337
 6130              	.LVL549:
 6131              	.L334:
 6132              		.loc 1 2322 5 is_stmt 1 view .LVU1955
 6133              		.loc 1 2322 24 is_stmt 0 view .LVU1956
 6134 00a2 0023     		movs	r3, #0
 6135 00a4 E385     		strh	r3, [r4, #46]	@ movhi
 6136              		.loc 1 2325 5 is_stmt 1 view .LVU1957
 6137              		.loc 1 2325 20 is_stmt 0 view .LVU1958
 6138 00a6 2022     		movs	r2, #32
 6139 00a8 84F84220 		strb	r2, [r4, #66]
 6140              		.loc 1 2326 5 is_stmt 1 view .LVU1959
 6141              		.loc 1 2326 26 is_stmt 0 view .LVU1960
 6142 00ac 2363     		str	r3, [r4, #48]
 6143              		.loc 1 2334 5 is_stmt 1 view .LVU1961
 6144 00ae 2046     		mov	r0, r4
 6145              	.LVL550:
 6146              		.loc 1 2334 5 is_stmt 0 view .LVU1962
 6147 00b0 034B     		ldr	r3, .L339+8
 6148 00b2 9847     		blx	r3
 6149              	.LVL551:
 6150              	.L337:
 6151              		.loc 1 2338 3 is_stmt 1 view .LVU1963
 6152              		.loc 1 2339 1 is_stmt 0 view .LVU1964
 6153 00b4 0020     		movs	r0, #0
 6154 00b6 10BD     		pop	{r4, pc}
 6155              	.LVL552:
 6156              	.L340:
 6157              		.loc 1 2339 1 view .LVU1965
 6158              		.align	2
 6159              	.L339:
 6160 00b8 00000000 		.word	UART_DMARxOnlyAbortCallback
 6161 00bc 00000000 		.word	HAL_DMA_Abort_IT
 6162 00c0 00000000 		.word	HAL_UART_AbortReceiveCpltCallback
 6163              		.cfi_endproc
 6164              	.LFE90:
 6166              		.section	.text.UART_DMARxOnlyAbortCallback,"ax",%progbits
 6167              		.align	1
 6168              		.syntax unified
 6169              		.thumb
 6170              		.thumb_func
 6171              		.fpu softvfp
 6173              	UART_DMARxOnlyAbortCallback:
 6174              	.LVL553:
 6175              	.LFB122:
 6176              		.loc 1 3489 1 is_stmt 1 view -0
 6177              		.cfi_startproc
 6178              		@ args = 0, pretend = 0, frame = 0
 6179              		@ frame_needed = 0, uses_anonymous_args = 0
 6180              		.loc 1 3489 1 is_stmt 0 view .LVU1967
 6181 0000 08B5     		push	{r3, lr}
 6182              	.LCFI42:
 6183              		.cfi_def_cfa_offset 8
 6184              		.cfi_offset 3, -8
ARM GAS  C:\Users\HP\AppData\Local\Temp\cc3vbRST.s 			page 108


 6185              		.cfi_offset 14, -4
 6186              		.loc 1 3490 3 is_stmt 1 view .LVU1968
 6187              		.loc 1 3490 23 is_stmt 0 view .LVU1969
 6188 0002 406A     		ldr	r0, [r0, #36]
 6189              	.LVL554:
 6190              		.loc 1 3492 3 is_stmt 1 view .LVU1970
 6191              		.loc 1 3492 22 is_stmt 0 view .LVU1971
 6192 0004 0023     		movs	r3, #0
 6193 0006 C385     		strh	r3, [r0, #46]	@ movhi
 6194              		.loc 1 3495 3 is_stmt 1 view .LVU1972
 6195              		.loc 1 3495 18 is_stmt 0 view .LVU1973
 6196 0008 2022     		movs	r2, #32
 6197 000a 80F84220 		strb	r2, [r0, #66]
 6198              		.loc 1 3496 3 is_stmt 1 view .LVU1974
 6199              		.loc 1 3496 24 is_stmt 0 view .LVU1975
 6200 000e 0363     		str	r3, [r0, #48]
 6201              		.loc 1 3504 3 is_stmt 1 view .LVU1976
 6202 0010 014B     		ldr	r3, .L343
 6203 0012 9847     		blx	r3
 6204              	.LVL555:
 6205              		.loc 1 3506 1 is_stmt 0 view .LVU1977
 6206 0014 08BD     		pop	{r3, pc}
 6207              	.L344:
 6208 0016 00BF     		.align	2
 6209              	.L343:
 6210 0018 00000000 		.word	HAL_UART_AbortReceiveCpltCallback
 6211              		.cfi_endproc
 6212              	.LFE122:
 6214              		.section	.text.HAL_UARTEx_RxEventCallback,"ax",%progbits
 6215              		.align	1
 6216              		.weak	HAL_UARTEx_RxEventCallback
 6217              		.syntax unified
 6218              		.thumb
 6219              		.thumb_func
 6220              		.fpu softvfp
 6222              	HAL_UARTEx_RxEventCallback:
 6223              	.LVL556:
 6224              	.LFB100:
 6225              		.loc 1 2711 1 is_stmt 1 view -0
 6226              		.cfi_startproc
 6227              		@ args = 0, pretend = 0, frame = 0
 6228              		@ frame_needed = 0, uses_anonymous_args = 0
 6229              		@ link register save eliminated.
 6230              		.loc 1 2713 3 view .LVU1979
 6231              		.loc 1 2714 3 view .LVU1980
 6232              		.loc 1 2719 1 is_stmt 0 view .LVU1981
 6233 0000 7047     		bx	lr
 6234              		.cfi_endproc
 6235              	.LFE100:
 6237              		.section	.text.UART_Receive_IT,"ax",%progbits
 6238              		.align	1
 6239              		.syntax unified
 6240              		.thumb
 6241              		.thumb_func
 6242              		.fpu softvfp
 6244              	UART_Receive_IT:
 6245              	.LVL557:
ARM GAS  C:\Users\HP\AppData\Local\Temp\cc3vbRST.s 			page 109


 6246              	.LFB125:
 6247              		.loc 1 3580 1 is_stmt 1 view -0
 6248              		.cfi_startproc
 6249              		@ args = 0, pretend = 0, frame = 8
 6250              		@ frame_needed = 0, uses_anonymous_args = 0
 6251              		.loc 1 3581 3 view .LVU1983
 6252              		.loc 1 3582 3 view .LVU1984
 6253              		.loc 1 3585 3 view .LVU1985
 6254              		.loc 1 3585 12 is_stmt 0 view .LVU1986
 6255 0000 90F84230 		ldrb	r3, [r0, #66]	@ zero_extendqisi2
 6256 0004 DBB2     		uxtb	r3, r3
 6257              		.loc 1 3585 6 view .LVU1987
 6258 0006 222B     		cmp	r3, #34
 6259 0008 69D1     		bne	.L357
 6260              		.loc 1 3587 5 is_stmt 1 view .LVU1988
 6261              		.loc 1 3587 21 is_stmt 0 view .LVU1989
 6262 000a 8368     		ldr	r3, [r0, #8]
 6263              		.loc 1 3587 8 view .LVU1990
 6264 000c B3F5805F 		cmp	r3, #4096
 6265 0010 4FD0     		beq	.L363
 6266              	.L348:
 6267              		.loc 1 3596 7 is_stmt 1 view .LVU1991
 6268              		.loc 1 3596 18 is_stmt 0 view .LVU1992
 6269 0012 826A     		ldr	r2, [r0, #40]
 6270              	.LVL558:
 6271              		.loc 1 3597 7 is_stmt 1 view .LVU1993
 6272              		.loc 1 3599 7 view .LVU1994
 6273              		.loc 1 3599 10 is_stmt 0 view .LVU1995
 6274 0014 B3F5805F 		cmp	r3, #4096
 6275 0018 04D0     		beq	.L350
 6276              		.loc 1 3599 58 discriminator 1 view .LVU1996
 6277 001a 002B     		cmp	r3, #0
 6278 001c 56D1     		bne	.L351
 6279              		.loc 1 3599 124 discriminator 2 view .LVU1997
 6280 001e 0369     		ldr	r3, [r0, #16]
 6281              		.loc 1 3599 109 discriminator 2 view .LVU1998
 6282 0020 002B     		cmp	r3, #0
 6283 0022 53D1     		bne	.L351
 6284              	.L350:
 6285              		.loc 1 3601 9 is_stmt 1 view .LVU1999
 6286              		.loc 1 3601 38 is_stmt 0 view .LVU2000
 6287 0024 0368     		ldr	r3, [r0]
 6288              		.loc 1 3601 48 view .LVU2001
 6289 0026 5B68     		ldr	r3, [r3, #4]
 6290              		.loc 1 3601 21 view .LVU2002
 6291 0028 1370     		strb	r3, [r2]
 6292              	.L352:
 6293              		.loc 1 3607 7 is_stmt 1 view .LVU2003
 6294              		.loc 1 3607 25 is_stmt 0 view .LVU2004
 6295 002a 836A     		ldr	r3, [r0, #40]
 6296 002c 0133     		adds	r3, r3, #1
 6297 002e 8362     		str	r3, [r0, #40]
 6298              	.LVL559:
 6299              	.L349:
 6300              		.loc 1 3610 5 is_stmt 1 view .LVU2005
 6301              		.loc 1 3610 16 is_stmt 0 view .LVU2006
 6302 0030 C38D     		ldrh	r3, [r0, #46]
ARM GAS  C:\Users\HP\AppData\Local\Temp\cc3vbRST.s 			page 110


 6303 0032 9BB2     		uxth	r3, r3
 6304              		.loc 1 3610 9 view .LVU2007
 6305 0034 013B     		subs	r3, r3, #1
 6306 0036 9BB2     		uxth	r3, r3
 6307              		.loc 1 3610 8 view .LVU2008
 6308 0038 C385     		strh	r3, [r0, #46]	@ movhi
 6309 003a 002B     		cmp	r3, #0
 6310 003c 51D1     		bne	.L358
 6311              		.loc 1 3580 1 view .LVU2009
 6312 003e 00B5     		push	{lr}
 6313              	.LCFI43:
 6314              		.cfi_def_cfa_offset 4
 6315              		.cfi_offset 14, -4
 6316 0040 83B0     		sub	sp, sp, #12
 6317              	.LCFI44:
 6318              		.cfi_def_cfa_offset 16
 6319              		.loc 1 3613 7 is_stmt 1 view .LVU2010
 6320 0042 0268     		ldr	r2, [r0]
 6321 0044 D368     		ldr	r3, [r2, #12]
 6322 0046 23F02003 		bic	r3, r3, #32
 6323 004a D360     		str	r3, [r2, #12]
 6324              		.loc 1 3616 7 view .LVU2011
 6325 004c 0268     		ldr	r2, [r0]
 6326 004e D368     		ldr	r3, [r2, #12]
 6327 0050 23F48073 		bic	r3, r3, #256
 6328 0054 D360     		str	r3, [r2, #12]
 6329              		.loc 1 3619 7 view .LVU2012
 6330 0056 0268     		ldr	r2, [r0]
 6331 0058 5369     		ldr	r3, [r2, #20]
 6332 005a 23F00103 		bic	r3, r3, #1
 6333 005e 5361     		str	r3, [r2, #20]
 6334              		.loc 1 3622 7 view .LVU2013
 6335              		.loc 1 3622 22 is_stmt 0 view .LVU2014
 6336 0060 2023     		movs	r3, #32
 6337 0062 80F84230 		strb	r3, [r0, #66]
 6338              		.loc 1 3625 7 is_stmt 1 view .LVU2015
 6339              		.loc 1 3625 26 is_stmt 0 view .LVU2016
 6340 0066 0023     		movs	r3, #0
 6341 0068 4363     		str	r3, [r0, #52]
 6342              		.loc 1 3629 7 is_stmt 1 view .LVU2017
 6343              		.loc 1 3629 16 is_stmt 0 view .LVU2018
 6344 006a 036B     		ldr	r3, [r0, #48]
 6345              		.loc 1 3629 10 view .LVU2019
 6346 006c 012B     		cmp	r3, #1
 6347 006e 33D1     		bne	.L353
 6348              		.loc 1 3632 9 is_stmt 1 view .LVU2020
 6349              		.loc 1 3632 30 is_stmt 0 view .LVU2021
 6350 0070 0023     		movs	r3, #0
 6351 0072 0363     		str	r3, [r0, #48]
 6352              	.L354:
 6353              		.loc 1 3635 9 is_stmt 1 discriminator 1 view .LVU2022
 6354              	.LBB528:
 6355              		.loc 1 3635 9 discriminator 1 view .LVU2023
 6356              		.loc 1 3635 9 discriminator 1 view .LVU2024
 6357              		.loc 1 3635 9 discriminator 1 view .LVU2025
 6358 0074 0268     		ldr	r2, [r0]
 6359              	.LVL560:
ARM GAS  C:\Users\HP\AppData\Local\Temp\cc3vbRST.s 			page 111


 6360              	.LBB529:
 6361              	.LBI529:
 6362              		.loc 2 1068 31 discriminator 1 view .LVU2026
 6363              	.LBB530:
 6364              		.loc 2 1070 5 discriminator 1 view .LVU2027
 6365              		.loc 2 1072 4 discriminator 1 view .LVU2028
 6366 0076 02F10C03 		add	r3, r2, #12
 6367              	.LVL561:
 6368              		.loc 2 1072 4 is_stmt 0 discriminator 1 view .LVU2029
 6369              		.syntax unified
 6370              	@ 1072 "Drivers/CMSIS/Include/cmsis_gcc.h" 1
 6371 007a 53E8003F 		ldrex r3, [r3]
 6372              	@ 0 "" 2
 6373              	.LVL562:
 6374              		.loc 2 1073 4 is_stmt 1 discriminator 1 view .LVU2030
 6375              		.loc 2 1073 4 is_stmt 0 discriminator 1 view .LVU2031
 6376              		.thumb
 6377              		.syntax unified
 6378              	.LBE530:
 6379              	.LBE529:
 6380              		.loc 1 3635 9 discriminator 1 view .LVU2032
 6381 007e 23F01003 		bic	r3, r3, #16
 6382              	.LVL563:
 6383              		.loc 1 3635 9 is_stmt 1 discriminator 1 view .LVU2033
 6384              	.LBB531:
 6385              	.LBI531:
 6386              		.loc 2 1119 31 discriminator 1 view .LVU2034
 6387              	.LBB532:
 6388              		.loc 2 1121 4 discriminator 1 view .LVU2035
 6389              		.loc 2 1123 4 discriminator 1 view .LVU2036
 6390 0082 0C32     		adds	r2, r2, #12
 6391              	.LVL564:
 6392              		.loc 2 1123 4 is_stmt 0 discriminator 1 view .LVU2037
 6393              		.syntax unified
 6394              	@ 1123 "Drivers/CMSIS/Include/cmsis_gcc.h" 1
 6395 0084 42E80031 		strex r1, r3, [r2]
 6396              	@ 0 "" 2
 6397              	.LVL565:
 6398              		.loc 2 1124 4 is_stmt 1 discriminator 1 view .LVU2038
 6399              		.loc 2 1124 4 is_stmt 0 discriminator 1 view .LVU2039
 6400              		.thumb
 6401              		.syntax unified
 6402              	.LBE532:
 6403              	.LBE531:
 6404              		.loc 1 3635 9 discriminator 1 view .LVU2040
 6405 0088 0029     		cmp	r1, #0
 6406 008a F3D1     		bne	.L354
 6407              	.LBE528:
 6408              		.loc 1 3635 9 is_stmt 1 discriminator 2 view .LVU2041
 6409              		.loc 1 3638 9 discriminator 2 view .LVU2042
 6410              		.loc 1 3638 13 is_stmt 0 discriminator 2 view .LVU2043
 6411 008c 0368     		ldr	r3, [r0]
 6412              	.LVL566:
 6413              		.loc 1 3638 13 discriminator 2 view .LVU2044
 6414 008e 1A68     		ldr	r2, [r3]
 6415              		.loc 1 3638 12 discriminator 2 view .LVU2045
 6416 0090 12F0100F 		tst	r2, #16
ARM GAS  C:\Users\HP\AppData\Local\Temp\cc3vbRST.s 			page 112


 6417 0094 06D0     		beq	.L355
 6418              		.loc 1 3641 11 is_stmt 1 view .LVU2046
 6419              	.LBB533:
 6420              		.loc 1 3641 11 view .LVU2047
 6421 0096 0022     		movs	r2, #0
 6422 0098 0192     		str	r2, [sp, #4]
 6423              		.loc 1 3641 11 view .LVU2048
 6424 009a 1A68     		ldr	r2, [r3]
 6425 009c 0192     		str	r2, [sp, #4]
 6426              		.loc 1 3641 11 view .LVU2049
 6427 009e 5B68     		ldr	r3, [r3, #4]
 6428 00a0 0193     		str	r3, [sp, #4]
 6429              		.loc 1 3641 11 view .LVU2050
 6430 00a2 019B     		ldr	r3, [sp, #4]
 6431              	.L355:
 6432              	.LBE533:
 6433              		.loc 1 3641 11 discriminator 1 view .LVU2051
 6434              		.loc 1 3649 9 discriminator 1 view .LVU2052
 6435 00a4 818D     		ldrh	r1, [r0, #44]
 6436 00a6 104B     		ldr	r3, .L364
 6437 00a8 9847     		blx	r3
 6438              	.LVL567:
 6439              	.L356:
 6440              		.loc 1 3664 7 view .LVU2053
 6441              		.loc 1 3664 14 is_stmt 0 view .LVU2054
 6442 00aa 0020     		movs	r0, #0
 6443              		.loc 1 3672 1 view .LVU2055
 6444 00ac 03B0     		add	sp, sp, #12
 6445              	.LCFI45:
 6446              		.cfi_def_cfa_offset 4
 6447              		@ sp needed
 6448 00ae 5DF804FB 		ldr	pc, [sp], #4
 6449              	.LVL568:
 6450              	.L363:
 6451              	.LCFI46:
 6452              		.cfi_def_cfa_offset 0
 6453              		.cfi_restore 14
 6454              		.loc 1 3587 71 discriminator 1 view .LVU2056
 6455 00b2 0269     		ldr	r2, [r0, #16]
 6456              		.loc 1 3587 56 discriminator 1 view .LVU2057
 6457 00b4 002A     		cmp	r2, #0
 6458 00b6 ACD1     		bne	.L348
 6459              		.loc 1 3589 7 is_stmt 1 view .LVU2058
 6460              	.LVL569:
 6461              		.loc 1 3590 7 view .LVU2059
 6462              		.loc 1 3590 19 is_stmt 0 view .LVU2060
 6463 00b8 826A     		ldr	r2, [r0, #40]
 6464              	.LVL570:
 6465              		.loc 1 3591 7 is_stmt 1 view .LVU2061
 6466              		.loc 1 3591 38 is_stmt 0 view .LVU2062
 6467 00ba 0368     		ldr	r3, [r0]
 6468              		.loc 1 3591 48 view .LVU2063
 6469 00bc 5B68     		ldr	r3, [r3, #4]
 6470              		.loc 1 3591 22 view .LVU2064
 6471 00be C3F30803 		ubfx	r3, r3, #0, #9
 6472              		.loc 1 3591 20 view .LVU2065
 6473 00c2 1380     		strh	r3, [r2]	@ movhi
ARM GAS  C:\Users\HP\AppData\Local\Temp\cc3vbRST.s 			page 113


 6474              		.loc 1 3592 7 is_stmt 1 view .LVU2066
 6475              		.loc 1 3592 25 is_stmt 0 view .LVU2067
 6476 00c4 836A     		ldr	r3, [r0, #40]
 6477 00c6 0233     		adds	r3, r3, #2
 6478 00c8 8362     		str	r3, [r0, #40]
 6479 00ca B1E7     		b	.L349
 6480              	.LVL571:
 6481              	.L351:
 6482              		.loc 1 3605 9 is_stmt 1 view .LVU2068
 6483              		.loc 1 3605 38 is_stmt 0 view .LVU2069
 6484 00cc 0368     		ldr	r3, [r0]
 6485              		.loc 1 3605 48 view .LVU2070
 6486 00ce 5B68     		ldr	r3, [r3, #4]
 6487              		.loc 1 3605 23 view .LVU2071
 6488 00d0 03F07F03 		and	r3, r3, #127
 6489              		.loc 1 3605 21 view .LVU2072
 6490 00d4 1370     		strb	r3, [r2]
 6491 00d6 A8E7     		b	.L352
 6492              	.LVL572:
 6493              	.L353:
 6494              	.LCFI47:
 6495              		.cfi_def_cfa_offset 16
 6496              		.cfi_offset 14, -4
 6497              		.loc 1 3660 9 is_stmt 1 view .LVU2073
 6498 00d8 044B     		ldr	r3, .L364+4
 6499 00da 9847     		blx	r3
 6500              	.LVL573:
 6501              		.loc 1 3660 9 is_stmt 0 view .LVU2074
 6502 00dc E5E7     		b	.L356
 6503              	.LVL574:
 6504              	.L357:
 6505              	.LCFI48:
 6506              		.cfi_def_cfa_offset 0
 6507              		.cfi_restore 14
 6508              		.loc 1 3670 12 view .LVU2075
 6509 00de 0220     		movs	r0, #2
 6510              	.LVL575:
 6511              		.loc 1 3670 12 view .LVU2076
 6512 00e0 7047     		bx	lr
 6513              	.LVL576:
 6514              	.L358:
 6515              		.loc 1 3666 12 view .LVU2077
 6516 00e2 0020     		movs	r0, #0
 6517              	.LVL577:
 6518              		.loc 1 3672 1 view .LVU2078
 6519 00e4 7047     		bx	lr
 6520              	.L365:
 6521 00e6 00BF     		.align	2
 6522              	.L364:
 6523 00e8 00000000 		.word	HAL_UARTEx_RxEventCallback
 6524 00ec 00000000 		.word	HAL_UART_RxCpltCallback
 6525              		.cfi_endproc
 6526              	.LFE125:
 6528              		.section	.text.HAL_UART_IRQHandler,"ax",%progbits
 6529              		.align	1
 6530              		.global	HAL_UART_IRQHandler
 6531              		.syntax unified
ARM GAS  C:\Users\HP\AppData\Local\Temp\cc3vbRST.s 			page 114


 6532              		.thumb
 6533              		.thumb_func
 6534              		.fpu softvfp
 6536              	HAL_UART_IRQHandler:
 6537              	.LVL578:
 6538              	.LFB91:
 6539              		.loc 1 2348 1 is_stmt 1 view -0
 6540              		.cfi_startproc
 6541              		@ args = 0, pretend = 0, frame = 8
 6542              		@ frame_needed = 0, uses_anonymous_args = 0
 6543              		.loc 1 2348 1 is_stmt 0 view .LVU2080
 6544 0000 30B5     		push	{r4, r5, lr}
 6545              	.LCFI49:
 6546              		.cfi_def_cfa_offset 12
 6547              		.cfi_offset 4, -12
 6548              		.cfi_offset 5, -8
 6549              		.cfi_offset 14, -4
 6550 0002 83B0     		sub	sp, sp, #12
 6551              	.LCFI50:
 6552              		.cfi_def_cfa_offset 24
 6553 0004 0446     		mov	r4, r0
 6554              		.loc 1 2349 3 is_stmt 1 view .LVU2081
 6555              		.loc 1 2349 25 is_stmt 0 view .LVU2082
 6556 0006 0268     		ldr	r2, [r0]
 6557              		.loc 1 2349 12 view .LVU2083
 6558 0008 1368     		ldr	r3, [r2]
 6559              	.LVL579:
 6560              		.loc 1 2350 3 is_stmt 1 view .LVU2084
 6561              		.loc 1 2350 12 is_stmt 0 view .LVU2085
 6562 000a D068     		ldr	r0, [r2, #12]
 6563              	.LVL580:
 6564              		.loc 1 2351 3 is_stmt 1 view .LVU2086
 6565              		.loc 1 2351 12 is_stmt 0 view .LVU2087
 6566 000c 5169     		ldr	r1, [r2, #20]
 6567              	.LVL581:
 6568              		.loc 1 2352 3 is_stmt 1 view .LVU2088
 6569              		.loc 1 2353 3 view .LVU2089
 6570              		.loc 1 2356 3 view .LVU2090
 6571              		.loc 1 2357 3 view .LVU2091
 6572              		.loc 1 2357 6 is_stmt 0 view .LVU2092
 6573 000e 13F00F05 		ands	r5, r3, #15
 6574              	.LVL582:
 6575              		.loc 1 2357 6 view .LVU2093
 6576 0012 05D1     		bne	.L367
 6577              		.loc 1 2360 5 is_stmt 1 view .LVU2094
 6578              		.loc 1 2360 8 is_stmt 0 view .LVU2095
 6579 0014 13F0200F 		tst	r3, #32
 6580 0018 02D0     		beq	.L367
 6581              		.loc 1 2360 47 discriminator 1 view .LVU2096
 6582 001a 10F0200F 		tst	r0, #32
 6583 001e 19D1     		bne	.L397
 6584              	.L367:
 6585              		.loc 1 2368 3 is_stmt 1 view .LVU2097
 6586              		.loc 1 2368 6 is_stmt 0 view .LVU2098
 6587 0020 2DB1     		cbz	r5, .L369
 6588              		.loc 1 2368 29 discriminator 1 view .LVU2099
 6589 0022 11F00101 		ands	r1, r1, #1
ARM GAS  C:\Users\HP\AppData\Local\Temp\cc3vbRST.s 			page 115


 6590              	.LVL583:
 6591              		.loc 1 2368 29 discriminator 1 view .LVU2100
 6592 0026 19D1     		bne	.L370
 6593              		.loc 1 2369 33 view .LVU2101
 6594 0028 10F4907F 		tst	r0, #288
 6595 002c 16D1     		bne	.L370
 6596              	.L369:
 6597              		.loc 1 2476 3 is_stmt 1 view .LVU2102
 6598              		.loc 1 2476 13 is_stmt 0 view .LVU2103
 6599 002e 216B     		ldr	r1, [r4, #48]
 6600              		.loc 1 2476 6 view .LVU2104
 6601 0030 0129     		cmp	r1, #1
 6602 0032 7ED0     		beq	.L398
 6603              	.L383:
 6604              		.loc 1 2569 3 is_stmt 1 view .LVU2105
 6605              		.loc 1 2569 6 is_stmt 0 view .LVU2106
 6606 0034 13F0800F 		tst	r3, #128
 6607 0038 03D0     		beq	.L395
 6608              		.loc 1 2569 44 discriminator 1 view .LVU2107
 6609 003a 10F0800F 		tst	r0, #128
 6610 003e 40F01981 		bne	.L399
 6611              	.L395:
 6612              		.loc 1 2576 3 is_stmt 1 view .LVU2108
 6613              		.loc 1 2576 6 is_stmt 0 view .LVU2109
 6614 0042 13F0400F 		tst	r3, #64
 6615 0046 03D0     		beq	.L366
 6616              		.loc 1 2576 43 discriminator 1 view .LVU2110
 6617 0048 10F0400F 		tst	r0, #64
 6618 004c 40F01681 		bne	.L400
 6619              	.LVL584:
 6620              	.L366:
 6621              		.loc 1 2581 1 view .LVU2111
 6622 0050 03B0     		add	sp, sp, #12
 6623              	.LCFI51:
 6624              		.cfi_remember_state
 6625              		.cfi_def_cfa_offset 12
 6626              		@ sp needed
 6627 0052 30BD     		pop	{r4, r5, pc}
 6628              	.LVL585:
 6629              	.L397:
 6630              	.LCFI52:
 6631              		.cfi_restore_state
 6632              		.loc 1 2362 7 is_stmt 1 view .LVU2112
 6633 0054 2046     		mov	r0, r4
 6634              	.LVL586:
 6635              		.loc 1 2362 7 is_stmt 0 view .LVU2113
 6636 0056 8B4B     		ldr	r3, .L402
 6637              	.LVL587:
 6638              		.loc 1 2362 7 view .LVU2114
 6639 0058 9847     		blx	r3
 6640              	.LVL588:
 6641              		.loc 1 2363 7 is_stmt 1 view .LVU2115
 6642 005a F9E7     		b	.L366
 6643              	.LVL589:
 6644              	.L370:
 6645              		.loc 1 2372 5 view .LVU2116
 6646              		.loc 1 2372 8 is_stmt 0 view .LVU2117
ARM GAS  C:\Users\HP\AppData\Local\Temp\cc3vbRST.s 			page 116


 6647 005c 13F0010F 		tst	r3, #1
 6648 0060 06D0     		beq	.L371
 6649              		.loc 1 2372 45 discriminator 1 view .LVU2118
 6650 0062 10F4807F 		tst	r0, #256
 6651 0066 03D0     		beq	.L371
 6652              		.loc 1 2374 7 is_stmt 1 view .LVU2119
 6653              		.loc 1 2374 24 is_stmt 0 view .LVU2120
 6654 0068 626C     		ldr	r2, [r4, #68]
 6655 006a 42F00102 		orr	r2, r2, #1
 6656 006e 6264     		str	r2, [r4, #68]
 6657              	.L371:
 6658              		.loc 1 2378 5 is_stmt 1 view .LVU2121
 6659              		.loc 1 2378 8 is_stmt 0 view .LVU2122
 6660 0070 13F0040F 		tst	r3, #4
 6661 0074 04D0     		beq	.L372
 6662              		.loc 1 2378 45 discriminator 1 view .LVU2123
 6663 0076 19B1     		cbz	r1, .L372
 6664              		.loc 1 2380 7 is_stmt 1 view .LVU2124
 6665              		.loc 1 2380 24 is_stmt 0 view .LVU2125
 6666 0078 626C     		ldr	r2, [r4, #68]
 6667 007a 42F00202 		orr	r2, r2, #2
 6668 007e 6264     		str	r2, [r4, #68]
 6669              	.L372:
 6670              		.loc 1 2384 5 is_stmt 1 view .LVU2126
 6671              		.loc 1 2384 8 is_stmt 0 view .LVU2127
 6672 0080 13F0020F 		tst	r3, #2
 6673 0084 04D0     		beq	.L373
 6674              		.loc 1 2384 45 discriminator 1 view .LVU2128
 6675 0086 19B1     		cbz	r1, .L373
 6676              		.loc 1 2386 7 is_stmt 1 view .LVU2129
 6677              		.loc 1 2386 24 is_stmt 0 view .LVU2130
 6678 0088 626C     		ldr	r2, [r4, #68]
 6679 008a 42F00402 		orr	r2, r2, #4
 6680 008e 6264     		str	r2, [r4, #68]
 6681              	.L373:
 6682              		.loc 1 2390 5 is_stmt 1 view .LVU2131
 6683              		.loc 1 2390 8 is_stmt 0 view .LVU2132
 6684 0090 13F0080F 		tst	r3, #8
 6685 0094 07D0     		beq	.L374
 6686              		.loc 1 2390 46 discriminator 1 view .LVU2133
 6687 0096 10F0200F 		tst	r0, #32
 6688 009a 00D1     		bne	.L375
 6689              		.loc 1 2391 50 view .LVU2134
 6690 009c 19B1     		cbz	r1, .L374
 6691              	.L375:
 6692              		.loc 1 2393 7 is_stmt 1 view .LVU2135
 6693              		.loc 1 2393 24 is_stmt 0 view .LVU2136
 6694 009e 626C     		ldr	r2, [r4, #68]
 6695 00a0 42F00802 		orr	r2, r2, #8
 6696 00a4 6264     		str	r2, [r4, #68]
 6697              	.L374:
 6698              		.loc 1 2397 5 is_stmt 1 view .LVU2137
 6699              		.loc 1 2397 14 is_stmt 0 view .LVU2138
 6700 00a6 626C     		ldr	r2, [r4, #68]
 6701              		.loc 1 2397 8 view .LVU2139
 6702 00a8 002A     		cmp	r2, #0
 6703 00aa D1D0     		beq	.L366
ARM GAS  C:\Users\HP\AppData\Local\Temp\cc3vbRST.s 			page 117


 6704              		.loc 1 2400 7 is_stmt 1 view .LVU2140
 6705              		.loc 1 2400 10 is_stmt 0 view .LVU2141
 6706 00ac 13F0200F 		tst	r3, #32
 6707 00b0 02D0     		beq	.L377
 6708              		.loc 1 2400 49 discriminator 1 view .LVU2142
 6709 00b2 10F0200F 		tst	r0, #32
 6710 00b6 2AD1     		bne	.L401
 6711              	.LVL590:
 6712              	.L377:
 6713              		.loc 1 2407 7 is_stmt 1 view .LVU2143
 6714              		.loc 1 2407 20 is_stmt 0 view .LVU2144
 6715 00b8 2368     		ldr	r3, [r4]
 6716 00ba 5B69     		ldr	r3, [r3, #20]
 6717 00bc 03F04003 		and	r3, r3, #64
 6718              	.LVL591:
 6719              		.loc 1 2408 7 is_stmt 1 view .LVU2145
 6720              		.loc 1 2408 18 is_stmt 0 view .LVU2146
 6721 00c0 626C     		ldr	r2, [r4, #68]
 6722              		.loc 1 2408 10 view .LVU2147
 6723 00c2 12F0080F 		tst	r2, #8
 6724 00c6 01D1     		bne	.L378
 6725              		.loc 1 2408 62 discriminator 1 view .LVU2148
 6726 00c8 002B     		cmp	r3, #0
 6727 00ca 2CD0     		beq	.L379
 6728              	.L378:
 6729              		.loc 1 2413 9 is_stmt 1 view .LVU2149
 6730 00cc 2046     		mov	r0, r4
 6731 00ce 6E4B     		ldr	r3, .L402+4
 6732              	.LVL592:
 6733              		.loc 1 2413 9 is_stmt 0 view .LVU2150
 6734 00d0 9847     		blx	r3
 6735              	.LVL593:
 6736              		.loc 1 2416 9 is_stmt 1 view .LVU2151
 6737              		.loc 1 2416 13 is_stmt 0 view .LVU2152
 6738 00d2 2368     		ldr	r3, [r4]
 6739 00d4 5B69     		ldr	r3, [r3, #20]
 6740              		.loc 1 2416 12 view .LVU2153
 6741 00d6 13F0400F 		tst	r3, #64
 6742 00da 20D0     		beq	.L380
 6743              	.L381:
 6744              		.loc 1 2418 11 is_stmt 1 discriminator 1 view .LVU2154
 6745              	.LBB534:
 6746              		.loc 1 2418 11 discriminator 1 view .LVU2155
 6747              		.loc 1 2418 11 discriminator 1 view .LVU2156
 6748              		.loc 1 2418 11 discriminator 1 view .LVU2157
 6749 00dc 2268     		ldr	r2, [r4]
 6750              	.LVL594:
 6751              	.LBB535:
 6752              	.LBI535:
 6753              		.loc 2 1068 31 discriminator 1 view .LVU2158
 6754              	.LBB536:
 6755              		.loc 2 1070 5 discriminator 1 view .LVU2159
 6756              		.loc 2 1072 4 discriminator 1 view .LVU2160
 6757 00de 02F11403 		add	r3, r2, #20
 6758              	.LVL595:
 6759              		.loc 2 1072 4 is_stmt 0 discriminator 1 view .LVU2161
 6760              		.syntax unified
ARM GAS  C:\Users\HP\AppData\Local\Temp\cc3vbRST.s 			page 118


 6761              	@ 1072 "Drivers/CMSIS/Include/cmsis_gcc.h" 1
 6762 00e2 53E8003F 		ldrex r3, [r3]
 6763              	@ 0 "" 2
 6764              	.LVL596:
 6765              		.loc 2 1073 4 is_stmt 1 discriminator 1 view .LVU2162
 6766              		.loc 2 1073 4 is_stmt 0 discriminator 1 view .LVU2163
 6767              		.thumb
 6768              		.syntax unified
 6769              	.LBE536:
 6770              	.LBE535:
 6771              		.loc 1 2418 11 discriminator 1 view .LVU2164
 6772 00e6 23F04003 		bic	r3, r3, #64
 6773              	.LVL597:
 6774              		.loc 1 2418 11 is_stmt 1 discriminator 1 view .LVU2165
 6775              	.LBB537:
 6776              	.LBI537:
 6777              		.loc 2 1119 31 discriminator 1 view .LVU2166
 6778              	.LBB538:
 6779              		.loc 2 1121 4 discriminator 1 view .LVU2167
 6780              		.loc 2 1123 4 discriminator 1 view .LVU2168
 6781 00ea 1432     		adds	r2, r2, #20
 6782              	.LVL598:
 6783              		.loc 2 1123 4 is_stmt 0 discriminator 1 view .LVU2169
 6784              		.syntax unified
 6785              	@ 1123 "Drivers/CMSIS/Include/cmsis_gcc.h" 1
 6786 00ec 42E80031 		strex r1, r3, [r2]
 6787              	@ 0 "" 2
 6788              	.LVL599:
 6789              		.loc 2 1124 4 is_stmt 1 discriminator 1 view .LVU2170
 6790              		.loc 2 1124 4 is_stmt 0 discriminator 1 view .LVU2171
 6791              		.thumb
 6792              		.syntax unified
 6793              	.LBE538:
 6794              	.LBE537:
 6795              		.loc 1 2418 11 discriminator 1 view .LVU2172
 6796 00f0 0029     		cmp	r1, #0
 6797 00f2 F3D1     		bne	.L381
 6798              	.LBE534:
 6799              		.loc 1 2418 11 is_stmt 1 discriminator 2 view .LVU2173
 6800              		.loc 1 2421 11 discriminator 2 view .LVU2174
 6801              		.loc 1 2421 20 is_stmt 0 discriminator 2 view .LVU2175
 6802 00f4 E36B     		ldr	r3, [r4, #60]
 6803              	.LVL600:
 6804              		.loc 1 2421 14 discriminator 2 view .LVU2176
 6805 00f6 73B1     		cbz	r3, .L382
 6806              		.loc 1 2425 13 is_stmt 1 view .LVU2177
 6807              		.loc 1 2425 46 is_stmt 0 view .LVU2178
 6808 00f8 644A     		ldr	r2, .L402+8
 6809 00fa 5A63     		str	r2, [r3, #52]
 6810              		.loc 1 2426 13 is_stmt 1 view .LVU2179
 6811              		.loc 1 2426 17 is_stmt 0 view .LVU2180
 6812 00fc E06B     		ldr	r0, [r4, #60]
 6813 00fe 644B     		ldr	r3, .L402+12
 6814 0100 9847     		blx	r3
 6815              	.LVL601:
 6816              		.loc 1 2426 16 view .LVU2181
 6817 0102 0028     		cmp	r0, #0
ARM GAS  C:\Users\HP\AppData\Local\Temp\cc3vbRST.s 			page 119


 6818 0104 A4D0     		beq	.L366
 6819              		.loc 1 2429 15 is_stmt 1 view .LVU2182
 6820              		.loc 1 2429 20 is_stmt 0 view .LVU2183
 6821 0106 E06B     		ldr	r0, [r4, #60]
 6822              		.loc 1 2429 28 view .LVU2184
 6823 0108 436B     		ldr	r3, [r0, #52]
 6824              		.loc 1 2429 15 view .LVU2185
 6825 010a 9847     		blx	r3
 6826              	.LVL602:
 6827 010c A0E7     		b	.L366
 6828              	.LVL603:
 6829              	.L401:
 6830              		.loc 1 2402 9 is_stmt 1 view .LVU2186
 6831 010e 2046     		mov	r0, r4
 6832              	.LVL604:
 6833              		.loc 1 2402 9 is_stmt 0 view .LVU2187
 6834 0110 5C4B     		ldr	r3, .L402
 6835              	.LVL605:
 6836              		.loc 1 2402 9 view .LVU2188
 6837 0112 9847     		blx	r3
 6838              	.LVL606:
 6839 0114 D0E7     		b	.L377
 6840              	.LVL607:
 6841              	.L382:
 6842              		.loc 1 2440 13 is_stmt 1 view .LVU2189
 6843 0116 2046     		mov	r0, r4
 6844 0118 5E4B     		ldr	r3, .L402+16
 6845 011a 9847     		blx	r3
 6846              	.LVL608:
 6847 011c 98E7     		b	.L366
 6848              	.L380:
 6849              		.loc 1 2452 11 view .LVU2190
 6850 011e 2046     		mov	r0, r4
 6851 0120 5C4B     		ldr	r3, .L402+16
 6852 0122 9847     		blx	r3
 6853              	.LVL609:
 6854 0124 94E7     		b	.L366
 6855              	.LVL610:
 6856              	.L379:
 6857              		.loc 1 2465 9 view .LVU2191
 6858 0126 2046     		mov	r0, r4
 6859 0128 5A4B     		ldr	r3, .L402+16
 6860              	.LVL611:
 6861              		.loc 1 2465 9 is_stmt 0 view .LVU2192
 6862 012a 9847     		blx	r3
 6863              	.LVL612:
 6864              		.loc 1 2468 9 is_stmt 1 view .LVU2193
 6865              		.loc 1 2468 26 is_stmt 0 view .LVU2194
 6866 012c 0023     		movs	r3, #0
 6867 012e 6364     		str	r3, [r4, #68]
 6868              		.loc 1 2471 5 is_stmt 1 view .LVU2195
 6869 0130 8EE7     		b	.L366
 6870              	.LVL613:
 6871              	.L398:
 6872              		.loc 1 2477 7 is_stmt 0 view .LVU2196
 6873 0132 13F0100F 		tst	r3, #16
 6874 0136 3FF47DAF 		beq	.L383
ARM GAS  C:\Users\HP\AppData\Local\Temp\cc3vbRST.s 			page 120


 6875              		.loc 1 2478 7 view .LVU2197
 6876 013a 10F0100F 		tst	r0, #16
 6877 013e 3FF479AF 		beq	.L383
 6878              		.loc 1 2480 5 is_stmt 1 view .LVU2198
 6879              	.LBB539:
 6880              		.loc 1 2480 5 view .LVU2199
 6881 0142 0023     		movs	r3, #0
 6882              	.LVL614:
 6883              		.loc 1 2480 5 is_stmt 0 view .LVU2200
 6884 0144 0193     		str	r3, [sp, #4]
 6885              		.loc 1 2480 5 is_stmt 1 view .LVU2201
 6886 0146 1368     		ldr	r3, [r2]
 6887 0148 0193     		str	r3, [sp, #4]
 6888              		.loc 1 2480 5 view .LVU2202
 6889 014a 5368     		ldr	r3, [r2, #4]
 6890 014c 0193     		str	r3, [sp, #4]
 6891              		.loc 1 2480 5 view .LVU2203
 6892 014e 019B     		ldr	r3, [sp, #4]
 6893              	.LBE539:
 6894              		.loc 1 2480 5 view .LVU2204
 6895              		.loc 1 2483 5 view .LVU2205
 6896              		.loc 1 2483 9 is_stmt 0 view .LVU2206
 6897 0150 5369     		ldr	r3, [r2, #20]
 6898              		.loc 1 2483 8 view .LVU2207
 6899 0152 13F0400F 		tst	r3, #64
 6900 0156 51D0     		beq	.L384
 6901              	.LBB540:
 6902              		.loc 1 2489 7 is_stmt 1 view .LVU2208
 6903              		.loc 1 2489 50 is_stmt 0 view .LVU2209
 6904 0158 E26B     		ldr	r2, [r4, #60]
 6905 015a 1368     		ldr	r3, [r2]
 6906 015c 5B68     		ldr	r3, [r3, #4]
 6907              		.loc 1 2489 16 view .LVU2210
 6908 015e 9BB2     		uxth	r3, r3
 6909              	.LVL615:
 6910              		.loc 1 2490 7 is_stmt 1 view .LVU2211
 6911              		.loc 1 2490 10 is_stmt 0 view .LVU2212
 6912 0160 002B     		cmp	r3, #0
 6913 0162 3FF475AF 		beq	.L366
 6914              		.loc 1 2491 43 view .LVU2213
 6915 0166 A18D     		ldrh	r1, [r4, #44]
 6916              		.loc 1 2491 11 view .LVU2214
 6917 0168 9942     		cmp	r1, r3
 6918 016a 7FF671AF 		bls	.L366
 6919              		.loc 1 2494 9 is_stmt 1 view .LVU2215
 6920              		.loc 1 2494 28 is_stmt 0 view .LVU2216
 6921 016e E385     		strh	r3, [r4, #46]	@ movhi
 6922              		.loc 1 2497 9 is_stmt 1 view .LVU2217
 6923              		.loc 1 2497 32 is_stmt 0 view .LVU2218
 6924 0170 9369     		ldr	r3, [r2, #24]
 6925              	.LVL616:
 6926              		.loc 1 2497 12 view .LVU2219
 6927 0172 202B     		cmp	r3, #32
 6928 0174 37D0     		beq	.L386
 6929              	.L387:
 6930              		.loc 1 2500 11 is_stmt 1 discriminator 1 view .LVU2220
 6931              	.LBB541:
ARM GAS  C:\Users\HP\AppData\Local\Temp\cc3vbRST.s 			page 121


 6932              		.loc 1 2500 11 discriminator 1 view .LVU2221
 6933              		.loc 1 2500 11 discriminator 1 view .LVU2222
 6934              		.loc 1 2500 11 discriminator 1 view .LVU2223
 6935 0176 2268     		ldr	r2, [r4]
 6936              	.LVL617:
 6937              	.LBB542:
 6938              	.LBI542:
 6939              		.loc 2 1068 31 discriminator 1 view .LVU2224
 6940              	.LBB543:
 6941              		.loc 2 1070 5 discriminator 1 view .LVU2225
 6942              		.loc 2 1072 4 discriminator 1 view .LVU2226
 6943 0178 02F10C03 		add	r3, r2, #12
 6944              	.LVL618:
 6945              		.loc 2 1072 4 is_stmt 0 discriminator 1 view .LVU2227
 6946              		.syntax unified
 6947              	@ 1072 "Drivers/CMSIS/Include/cmsis_gcc.h" 1
 6948 017c 53E8003F 		ldrex r3, [r3]
 6949              	@ 0 "" 2
 6950              	.LVL619:
 6951              		.loc 2 1073 4 is_stmt 1 discriminator 1 view .LVU2228
 6952              		.loc 2 1073 4 is_stmt 0 discriminator 1 view .LVU2229
 6953              		.thumb
 6954              		.syntax unified
 6955              	.LBE543:
 6956              	.LBE542:
 6957              		.loc 1 2500 11 discriminator 1 view .LVU2230
 6958 0180 23F48073 		bic	r3, r3, #256
 6959              	.LVL620:
 6960              		.loc 1 2500 11 is_stmt 1 discriminator 1 view .LVU2231
 6961              	.LBB544:
 6962              	.LBI544:
 6963              		.loc 2 1119 31 discriminator 1 view .LVU2232
 6964              	.LBB545:
 6965              		.loc 2 1121 4 discriminator 1 view .LVU2233
 6966              		.loc 2 1123 4 discriminator 1 view .LVU2234
 6967 0184 0C32     		adds	r2, r2, #12
 6968              	.LVL621:
 6969              		.loc 2 1123 4 is_stmt 0 discriminator 1 view .LVU2235
 6970              		.syntax unified
 6971              	@ 1123 "Drivers/CMSIS/Include/cmsis_gcc.h" 1
 6972 0186 42E80031 		strex r1, r3, [r2]
 6973              	@ 0 "" 2
 6974              	.LVL622:
 6975              		.loc 2 1124 4 is_stmt 1 discriminator 1 view .LVU2236
 6976              		.loc 2 1124 4 is_stmt 0 discriminator 1 view .LVU2237
 6977              		.thumb
 6978              		.syntax unified
 6979              	.LBE545:
 6980              	.LBE544:
 6981              		.loc 1 2500 11 discriminator 1 view .LVU2238
 6982 018a 0029     		cmp	r1, #0
 6983 018c F3D1     		bne	.L387
 6984              	.LVL623:
 6985              	.L388:
 6986              		.loc 1 2500 11 discriminator 1 view .LVU2239
 6987              	.LBE541:
 6988              		.loc 1 2500 11 is_stmt 1 discriminator 1 view .LVU2240
ARM GAS  C:\Users\HP\AppData\Local\Temp\cc3vbRST.s 			page 122


 6989              		.loc 1 2501 11 discriminator 1 view .LVU2241
 6990              	.LBB546:
 6991              		.loc 1 2501 11 discriminator 1 view .LVU2242
 6992              		.loc 1 2501 11 discriminator 1 view .LVU2243
 6993              		.loc 1 2501 11 discriminator 1 view .LVU2244
 6994 018e 2268     		ldr	r2, [r4]
 6995              	.LVL624:
 6996              	.LBB547:
 6997              	.LBI547:
 6998              		.loc 2 1068 31 discriminator 1 view .LVU2245
 6999              	.LBB548:
 7000              		.loc 2 1070 5 discriminator 1 view .LVU2246
 7001              		.loc 2 1072 4 discriminator 1 view .LVU2247
 7002 0190 02F11403 		add	r3, r2, #20
 7003              	.LVL625:
 7004              		.loc 2 1072 4 is_stmt 0 discriminator 1 view .LVU2248
 7005              		.syntax unified
 7006              	@ 1072 "Drivers/CMSIS/Include/cmsis_gcc.h" 1
 7007 0194 53E8003F 		ldrex r3, [r3]
 7008              	@ 0 "" 2
 7009              	.LVL626:
 7010              		.loc 2 1073 4 is_stmt 1 discriminator 1 view .LVU2249
 7011              		.loc 2 1073 4 is_stmt 0 discriminator 1 view .LVU2250
 7012              		.thumb
 7013              		.syntax unified
 7014              	.LBE548:
 7015              	.LBE547:
 7016              		.loc 1 2501 11 discriminator 1 view .LVU2251
 7017 0198 23F00103 		bic	r3, r3, #1
 7018              	.LVL627:
 7019              		.loc 1 2501 11 is_stmt 1 discriminator 1 view .LVU2252
 7020              	.LBB549:
 7021              	.LBI549:
 7022              		.loc 2 1119 31 discriminator 1 view .LVU2253
 7023              	.LBB550:
 7024              		.loc 2 1121 4 discriminator 1 view .LVU2254
 7025              		.loc 2 1123 4 discriminator 1 view .LVU2255
 7026 019c 1432     		adds	r2, r2, #20
 7027              	.LVL628:
 7028              		.loc 2 1123 4 is_stmt 0 discriminator 1 view .LVU2256
 7029              		.syntax unified
 7030              	@ 1123 "Drivers/CMSIS/Include/cmsis_gcc.h" 1
 7031 019e 42E80031 		strex r1, r3, [r2]
 7032              	@ 0 "" 2
 7033              	.LVL629:
 7034              		.loc 2 1124 4 is_stmt 1 discriminator 1 view .LVU2257
 7035              		.loc 2 1124 4 is_stmt 0 discriminator 1 view .LVU2258
 7036              		.thumb
 7037              		.syntax unified
 7038              	.LBE550:
 7039              	.LBE549:
 7040              		.loc 1 2501 11 discriminator 1 view .LVU2259
 7041 01a2 0029     		cmp	r1, #0
 7042 01a4 F3D1     		bne	.L388
 7043              	.LVL630:
 7044              	.L389:
 7045              		.loc 1 2501 11 discriminator 1 view .LVU2260
ARM GAS  C:\Users\HP\AppData\Local\Temp\cc3vbRST.s 			page 123


 7046              	.LBE546:
 7047              		.loc 1 2501 11 is_stmt 1 discriminator 1 view .LVU2261
 7048              		.loc 1 2505 11 discriminator 1 view .LVU2262
 7049              	.LBB551:
 7050              		.loc 1 2505 11 discriminator 1 view .LVU2263
 7051              		.loc 1 2505 11 discriminator 1 view .LVU2264
 7052              		.loc 1 2505 11 discriminator 1 view .LVU2265
 7053 01a6 2268     		ldr	r2, [r4]
 7054              	.LVL631:
 7055              	.LBB552:
 7056              	.LBI552:
 7057              		.loc 2 1068 31 discriminator 1 view .LVU2266
 7058              	.LBB553:
 7059              		.loc 2 1070 5 discriminator 1 view .LVU2267
 7060              		.loc 2 1072 4 discriminator 1 view .LVU2268
 7061 01a8 02F11403 		add	r3, r2, #20
 7062              	.LVL632:
 7063              		.loc 2 1072 4 is_stmt 0 discriminator 1 view .LVU2269
 7064              		.syntax unified
 7065              	@ 1072 "Drivers/CMSIS/Include/cmsis_gcc.h" 1
 7066 01ac 53E8003F 		ldrex r3, [r3]
 7067              	@ 0 "" 2
 7068              	.LVL633:
 7069              		.loc 2 1073 4 is_stmt 1 discriminator 1 view .LVU2270
 7070              		.loc 2 1073 4 is_stmt 0 discriminator 1 view .LVU2271
 7071              		.thumb
 7072              		.syntax unified
 7073              	.LBE553:
 7074              	.LBE552:
 7075              		.loc 1 2505 11 discriminator 1 view .LVU2272
 7076 01b0 23F04003 		bic	r3, r3, #64
 7077              	.LVL634:
 7078              		.loc 1 2505 11 is_stmt 1 discriminator 1 view .LVU2273
 7079              	.LBB554:
 7080              	.LBI554:
 7081              		.loc 2 1119 31 discriminator 1 view .LVU2274
 7082              	.LBB555:
 7083              		.loc 2 1121 4 discriminator 1 view .LVU2275
 7084              		.loc 2 1123 4 discriminator 1 view .LVU2276
 7085 01b4 1432     		adds	r2, r2, #20
 7086              	.LVL635:
 7087              		.loc 2 1123 4 is_stmt 0 discriminator 1 view .LVU2277
 7088              		.syntax unified
 7089              	@ 1123 "Drivers/CMSIS/Include/cmsis_gcc.h" 1
 7090 01b6 42E80031 		strex r1, r3, [r2]
 7091              	@ 0 "" 2
 7092              	.LVL636:
 7093              		.loc 2 1124 4 is_stmt 1 discriminator 1 view .LVU2278
 7094              		.loc 2 1124 4 is_stmt 0 discriminator 1 view .LVU2279
 7095              		.thumb
 7096              		.syntax unified
 7097              	.LBE555:
 7098              	.LBE554:
 7099              		.loc 1 2505 11 discriminator 1 view .LVU2280
 7100 01ba 0029     		cmp	r1, #0
 7101 01bc F3D1     		bne	.L389
 7102              	.LBE551:
ARM GAS  C:\Users\HP\AppData\Local\Temp\cc3vbRST.s 			page 124


 7103              		.loc 1 2505 11 is_stmt 1 discriminator 2 view .LVU2281
 7104              		.loc 1 2508 11 discriminator 2 view .LVU2282
 7105              		.loc 1 2508 26 is_stmt 0 discriminator 2 view .LVU2283
 7106 01be 2023     		movs	r3, #32
 7107              	.LVL637:
 7108              		.loc 1 2508 26 discriminator 2 view .LVU2284
 7109 01c0 84F84230 		strb	r3, [r4, #66]
 7110              	.LVL638:
 7111              		.loc 1 2509 11 is_stmt 1 discriminator 2 view .LVU2285
 7112              		.loc 1 2509 32 is_stmt 0 discriminator 2 view .LVU2286
 7113 01c4 0023     		movs	r3, #0
 7114 01c6 2363     		str	r3, [r4, #48]
 7115              	.L390:
 7116              		.loc 1 2511 11 is_stmt 1 discriminator 1 view .LVU2287
 7117              	.LBB556:
 7118              		.loc 1 2511 11 discriminator 1 view .LVU2288
 7119              		.loc 1 2511 11 discriminator 1 view .LVU2289
 7120              		.loc 1 2511 11 discriminator 1 view .LVU2290
 7121 01c8 2268     		ldr	r2, [r4]
 7122              	.LVL639:
 7123              	.LBB557:
 7124              	.LBI557:
 7125              		.loc 2 1068 31 discriminator 1 view .LVU2291
 7126              	.LBB558:
 7127              		.loc 2 1070 5 discriminator 1 view .LVU2292
 7128              		.loc 2 1072 4 discriminator 1 view .LVU2293
 7129 01ca 02F10C03 		add	r3, r2, #12
 7130              	.LVL640:
 7131              		.loc 2 1072 4 is_stmt 0 discriminator 1 view .LVU2294
 7132              		.syntax unified
 7133              	@ 1072 "Drivers/CMSIS/Include/cmsis_gcc.h" 1
 7134 01ce 53E8003F 		ldrex r3, [r3]
 7135              	@ 0 "" 2
 7136              	.LVL641:
 7137              		.loc 2 1073 4 is_stmt 1 discriminator 1 view .LVU2295
 7138              		.loc 2 1073 4 is_stmt 0 discriminator 1 view .LVU2296
 7139              		.thumb
 7140              		.syntax unified
 7141              	.LBE558:
 7142              	.LBE557:
 7143              		.loc 1 2511 11 discriminator 1 view .LVU2297
 7144 01d2 23F01003 		bic	r3, r3, #16
 7145              	.LVL642:
 7146              		.loc 1 2511 11 is_stmt 1 discriminator 1 view .LVU2298
 7147              	.LBB559:
 7148              	.LBI559:
 7149              		.loc 2 1119 31 discriminator 1 view .LVU2299
 7150              	.LBB560:
 7151              		.loc 2 1121 4 discriminator 1 view .LVU2300
 7152              		.loc 2 1123 4 discriminator 1 view .LVU2301
 7153 01d6 0C32     		adds	r2, r2, #12
 7154              	.LVL643:
 7155              		.loc 2 1123 4 is_stmt 0 discriminator 1 view .LVU2302
 7156              		.syntax unified
 7157              	@ 1123 "Drivers/CMSIS/Include/cmsis_gcc.h" 1
 7158 01d8 42E80031 		strex r1, r3, [r2]
 7159              	@ 0 "" 2
ARM GAS  C:\Users\HP\AppData\Local\Temp\cc3vbRST.s 			page 125


 7160              	.LVL644:
 7161              		.loc 2 1124 4 is_stmt 1 discriminator 1 view .LVU2303
 7162              		.loc 2 1124 4 is_stmt 0 discriminator 1 view .LVU2304
 7163              		.thumb
 7164              		.syntax unified
 7165              	.LBE560:
 7166              	.LBE559:
 7167              		.loc 1 2511 11 discriminator 1 view .LVU2305
 7168 01dc 0029     		cmp	r1, #0
 7169 01de F3D1     		bne	.L390
 7170              	.LBE556:
 7171              		.loc 1 2511 11 is_stmt 1 discriminator 2 view .LVU2306
 7172              		.loc 1 2514 11 discriminator 2 view .LVU2307
 7173              		.loc 1 2514 17 is_stmt 0 discriminator 2 view .LVU2308
 7174 01e0 E06B     		ldr	r0, [r4, #60]
 7175              	.LVL645:
 7176              		.loc 1 2514 17 discriminator 2 view .LVU2309
 7177 01e2 2D4B     		ldr	r3, .L402+20
 7178              	.LVL646:
 7179              		.loc 1 2514 17 discriminator 2 view .LVU2310
 7180 01e4 9847     		blx	r3
 7181              	.LVL647:
 7182              	.L386:
 7183              		.loc 1 2519 9 is_stmt 1 view .LVU2311
 7184              		.loc 1 2519 28 is_stmt 0 view .LVU2312
 7185 01e6 0223     		movs	r3, #2
 7186 01e8 6363     		str	r3, [r4, #52]
 7187              		.loc 1 2526 9 is_stmt 1 view .LVU2313
 7188              		.loc 1 2526 49 is_stmt 0 view .LVU2314
 7189 01ea A18D     		ldrh	r1, [r4, #44]
 7190              		.loc 1 2526 69 view .LVU2315
 7191 01ec E38D     		ldrh	r3, [r4, #46]
 7192 01ee 9BB2     		uxth	r3, r3
 7193              		.loc 1 2526 9 view .LVU2316
 7194 01f0 C91A     		subs	r1, r1, r3
 7195 01f2 89B2     		uxth	r1, r1
 7196 01f4 2046     		mov	r0, r4
 7197 01f6 294B     		ldr	r3, .L402+24
 7198 01f8 9847     		blx	r3
 7199              	.LVL648:
 7200              		.loc 1 2529 7 is_stmt 1 view .LVU2317
 7201 01fa 29E7     		b	.L366
 7202              	.LVL649:
 7203              	.L384:
 7204              		.loc 1 2529 7 is_stmt 0 view .LVU2318
 7205              	.LBE540:
 7206              	.LBB561:
 7207              		.loc 1 2536 7 is_stmt 1 view .LVU2319
 7208              		.loc 1 2536 34 is_stmt 0 view .LVU2320
 7209 01fc A18D     		ldrh	r1, [r4, #44]
 7210              		.loc 1 2536 54 view .LVU2321
 7211 01fe E38D     		ldrh	r3, [r4, #46]
 7212 0200 9BB2     		uxth	r3, r3
 7213              		.loc 1 2536 16 view .LVU2322
 7214 0202 C91A     		subs	r1, r1, r3
 7215 0204 89B2     		uxth	r1, r1
 7216              	.LVL650:
ARM GAS  C:\Users\HP\AppData\Local\Temp\cc3vbRST.s 			page 126


 7217              		.loc 1 2537 7 is_stmt 1 view .LVU2323
 7218              		.loc 1 2537 17 is_stmt 0 view .LVU2324
 7219 0206 E38D     		ldrh	r3, [r4, #46]
 7220 0208 9BB2     		uxth	r3, r3
 7221              		.loc 1 2537 10 view .LVU2325
 7222 020a 002B     		cmp	r3, #0
 7223 020c 3FF420AF 		beq	.L366
 7224              		.loc 1 2538 11 view .LVU2326
 7225 0210 0029     		cmp	r1, #0
 7226 0212 3FF41DAF 		beq	.L366
 7227              	.LVL651:
 7228              	.L392:
 7229              		.loc 1 2541 9 is_stmt 1 discriminator 1 view .LVU2327
 7230              	.LBB562:
 7231              		.loc 1 2541 9 discriminator 1 view .LVU2328
 7232              		.loc 1 2541 9 discriminator 1 view .LVU2329
 7233              		.loc 1 2541 9 discriminator 1 view .LVU2330
 7234 0216 2268     		ldr	r2, [r4]
 7235              	.LVL652:
 7236              	.LBB563:
 7237              	.LBI563:
 7238              		.loc 2 1068 31 discriminator 1 view .LVU2331
 7239              	.LBB564:
 7240              		.loc 2 1070 5 discriminator 1 view .LVU2332
 7241              		.loc 2 1072 4 discriminator 1 view .LVU2333
 7242 0218 02F10C03 		add	r3, r2, #12
 7243              	.LVL653:
 7244              		.loc 2 1072 4 is_stmt 0 discriminator 1 view .LVU2334
 7245              		.syntax unified
 7246              	@ 1072 "Drivers/CMSIS/Include/cmsis_gcc.h" 1
 7247 021c 53E8003F 		ldrex r3, [r3]
 7248              	@ 0 "" 2
 7249              	.LVL654:
 7250              		.loc 2 1073 4 is_stmt 1 discriminator 1 view .LVU2335
 7251              		.loc 2 1073 4 is_stmt 0 discriminator 1 view .LVU2336
 7252              		.thumb
 7253              		.syntax unified
 7254              	.LBE564:
 7255              	.LBE563:
 7256              		.loc 1 2541 9 discriminator 1 view .LVU2337
 7257 0220 23F49073 		bic	r3, r3, #288
 7258              	.LVL655:
 7259              		.loc 1 2541 9 is_stmt 1 discriminator 1 view .LVU2338
 7260              	.LBB565:
 7261              	.LBI565:
 7262              		.loc 2 1119 31 discriminator 1 view .LVU2339
 7263              	.LBB566:
 7264              		.loc 2 1121 4 discriminator 1 view .LVU2340
 7265              		.loc 2 1123 4 discriminator 1 view .LVU2341
 7266 0224 0C32     		adds	r2, r2, #12
 7267              	.LVL656:
 7268              		.loc 2 1123 4 is_stmt 0 discriminator 1 view .LVU2342
 7269              		.syntax unified
 7270              	@ 1123 "Drivers/CMSIS/Include/cmsis_gcc.h" 1
 7271 0226 42E80030 		strex r0, r3, [r2]
 7272              	@ 0 "" 2
 7273              	.LVL657:
ARM GAS  C:\Users\HP\AppData\Local\Temp\cc3vbRST.s 			page 127


 7274              		.loc 2 1124 4 is_stmt 1 discriminator 1 view .LVU2343
 7275              		.loc 2 1124 4 is_stmt 0 discriminator 1 view .LVU2344
 7276              		.thumb
 7277              		.syntax unified
 7278              	.LBE566:
 7279              	.LBE565:
 7280              		.loc 1 2541 9 discriminator 1 view .LVU2345
 7281 022a 0028     		cmp	r0, #0
 7282 022c F3D1     		bne	.L392
 7283              	.LVL658:
 7284              	.L393:
 7285              		.loc 1 2541 9 discriminator 1 view .LVU2346
 7286              	.LBE562:
 7287              		.loc 1 2541 9 is_stmt 1 discriminator 1 view .LVU2347
 7288              		.loc 1 2544 9 discriminator 1 view .LVU2348
 7289              	.LBB567:
 7290              		.loc 1 2544 9 discriminator 1 view .LVU2349
 7291              		.loc 1 2544 9 discriminator 1 view .LVU2350
 7292              		.loc 1 2544 9 discriminator 1 view .LVU2351
 7293 022e 2268     		ldr	r2, [r4]
 7294              	.LVL659:
 7295              	.LBB568:
 7296              	.LBI568:
 7297              		.loc 2 1068 31 discriminator 1 view .LVU2352
 7298              	.LBB569:
 7299              		.loc 2 1070 5 discriminator 1 view .LVU2353
 7300              		.loc 2 1072 4 discriminator 1 view .LVU2354
 7301 0230 02F11403 		add	r3, r2, #20
 7302              	.LVL660:
 7303              		.loc 2 1072 4 is_stmt 0 discriminator 1 view .LVU2355
 7304              		.syntax unified
 7305              	@ 1072 "Drivers/CMSIS/Include/cmsis_gcc.h" 1
 7306 0234 53E8003F 		ldrex r3, [r3]
 7307              	@ 0 "" 2
 7308              	.LVL661:
 7309              		.loc 2 1073 4 is_stmt 1 discriminator 1 view .LVU2356
 7310              		.loc 2 1073 4 is_stmt 0 discriminator 1 view .LVU2357
 7311              		.thumb
 7312              		.syntax unified
 7313              	.LBE569:
 7314              	.LBE568:
 7315              		.loc 1 2544 9 discriminator 1 view .LVU2358
 7316 0238 23F00103 		bic	r3, r3, #1
 7317              	.LVL662:
 7318              		.loc 1 2544 9 is_stmt 1 discriminator 1 view .LVU2359
 7319              	.LBB570:
 7320              	.LBI570:
 7321              		.loc 2 1119 31 discriminator 1 view .LVU2360
 7322              	.LBB571:
 7323              		.loc 2 1121 4 discriminator 1 view .LVU2361
 7324              		.loc 2 1123 4 discriminator 1 view .LVU2362
 7325 023c 1432     		adds	r2, r2, #20
 7326              	.LVL663:
 7327              		.loc 2 1123 4 is_stmt 0 discriminator 1 view .LVU2363
 7328              		.syntax unified
 7329              	@ 1123 "Drivers/CMSIS/Include/cmsis_gcc.h" 1
 7330 023e 42E80030 		strex r0, r3, [r2]
ARM GAS  C:\Users\HP\AppData\Local\Temp\cc3vbRST.s 			page 128


 7331              	@ 0 "" 2
 7332              	.LVL664:
 7333              		.loc 2 1124 4 is_stmt 1 discriminator 1 view .LVU2364
 7334              		.loc 2 1124 4 is_stmt 0 discriminator 1 view .LVU2365
 7335              		.thumb
 7336              		.syntax unified
 7337              	.LBE571:
 7338              	.LBE570:
 7339              		.loc 1 2544 9 discriminator 1 view .LVU2366
 7340 0242 0028     		cmp	r0, #0
 7341 0244 F3D1     		bne	.L393
 7342              	.LBE567:
 7343              		.loc 1 2544 9 is_stmt 1 discriminator 2 view .LVU2367
 7344              		.loc 1 2547 9 discriminator 2 view .LVU2368
 7345              		.loc 1 2547 24 is_stmt 0 discriminator 2 view .LVU2369
 7346 0246 2023     		movs	r3, #32
 7347              	.LVL665:
 7348              		.loc 1 2547 24 discriminator 2 view .LVU2370
 7349 0248 84F84230 		strb	r3, [r4, #66]
 7350              		.loc 1 2548 9 is_stmt 1 discriminator 2 view .LVU2371
 7351              		.loc 1 2548 30 is_stmt 0 discriminator 2 view .LVU2372
 7352 024c 0023     		movs	r3, #0
 7353 024e 2363     		str	r3, [r4, #48]
 7354              	.L394:
 7355              		.loc 1 2550 9 is_stmt 1 discriminator 1 view .LVU2373
 7356              	.LBB572:
 7357              		.loc 1 2550 9 discriminator 1 view .LVU2374
 7358              		.loc 1 2550 9 discriminator 1 view .LVU2375
 7359              		.loc 1 2550 9 discriminator 1 view .LVU2376
 7360 0250 2268     		ldr	r2, [r4]
 7361              	.LVL666:
 7362              	.LBB573:
 7363              	.LBI573:
 7364              		.loc 2 1068 31 discriminator 1 view .LVU2377
 7365              	.LBB574:
 7366              		.loc 2 1070 5 discriminator 1 view .LVU2378
 7367              		.loc 2 1072 4 discriminator 1 view .LVU2379
 7368 0252 02F10C03 		add	r3, r2, #12
 7369              	.LVL667:
 7370              		.loc 2 1072 4 is_stmt 0 discriminator 1 view .LVU2380
 7371              		.syntax unified
 7372              	@ 1072 "Drivers/CMSIS/Include/cmsis_gcc.h" 1
 7373 0256 53E8003F 		ldrex r3, [r3]
 7374              	@ 0 "" 2
 7375              	.LVL668:
 7376              		.loc 2 1073 4 is_stmt 1 discriminator 1 view .LVU2381
 7377              		.loc 2 1073 4 is_stmt 0 discriminator 1 view .LVU2382
 7378              		.thumb
 7379              		.syntax unified
 7380              	.LBE574:
 7381              	.LBE573:
 7382              		.loc 1 2550 9 discriminator 1 view .LVU2383
 7383 025a 23F01003 		bic	r3, r3, #16
 7384              	.LVL669:
 7385              		.loc 1 2550 9 is_stmt 1 discriminator 1 view .LVU2384
 7386              	.LBB575:
 7387              	.LBI575:
ARM GAS  C:\Users\HP\AppData\Local\Temp\cc3vbRST.s 			page 129


 7388              		.loc 2 1119 31 discriminator 1 view .LVU2385
 7389              	.LBB576:
 7390              		.loc 2 1121 4 discriminator 1 view .LVU2386
 7391              		.loc 2 1123 4 discriminator 1 view .LVU2387
 7392 025e 0C32     		adds	r2, r2, #12
 7393              	.LVL670:
 7394              		.loc 2 1123 4 is_stmt 0 discriminator 1 view .LVU2388
 7395              		.syntax unified
 7396              	@ 1123 "Drivers/CMSIS/Include/cmsis_gcc.h" 1
 7397 0260 42E80030 		strex r0, r3, [r2]
 7398              	@ 0 "" 2
 7399              	.LVL671:
 7400              		.loc 2 1124 4 is_stmt 1 discriminator 1 view .LVU2389
 7401              		.loc 2 1124 4 is_stmt 0 discriminator 1 view .LVU2390
 7402              		.thumb
 7403              		.syntax unified
 7404              	.LBE576:
 7405              	.LBE575:
 7406              		.loc 1 2550 9 discriminator 1 view .LVU2391
 7407 0264 0028     		cmp	r0, #0
 7408 0266 F3D1     		bne	.L394
 7409              	.LBE572:
 7410              		.loc 1 2550 9 is_stmt 1 discriminator 2 view .LVU2392
 7411              		.loc 1 2554 9 discriminator 2 view .LVU2393
 7412              		.loc 1 2554 28 is_stmt 0 discriminator 2 view .LVU2394
 7413 0268 0223     		movs	r3, #2
 7414              	.LVL672:
 7415              		.loc 1 2554 28 discriminator 2 view .LVU2395
 7416 026a 6363     		str	r3, [r4, #52]
 7417              		.loc 1 2561 9 is_stmt 1 discriminator 2 view .LVU2396
 7418 026c 2046     		mov	r0, r4
 7419 026e 0B4B     		ldr	r3, .L402+24
 7420 0270 9847     		blx	r3
 7421              	.LVL673:
 7422              		.loc 1 2564 7 discriminator 2 view .LVU2397
 7423 0272 EDE6     		b	.L366
 7424              	.LVL674:
 7425              	.L399:
 7426              		.loc 1 2564 7 is_stmt 0 discriminator 2 view .LVU2398
 7427              	.LBE561:
 7428              		.loc 1 2571 5 is_stmt 1 view .LVU2399
 7429 0274 2046     		mov	r0, r4
 7430              	.LVL675:
 7431              		.loc 1 2571 5 is_stmt 0 view .LVU2400
 7432 0276 0A4B     		ldr	r3, .L402+28
 7433              	.LVL676:
 7434              		.loc 1 2571 5 view .LVU2401
 7435 0278 9847     		blx	r3
 7436              	.LVL677:
 7437              		.loc 1 2572 5 is_stmt 1 view .LVU2402
 7438 027a E9E6     		b	.L366
 7439              	.LVL678:
 7440              	.L400:
 7441              		.loc 1 2578 5 view .LVU2403
 7442 027c 2046     		mov	r0, r4
 7443              	.LVL679:
 7444              		.loc 1 2578 5 is_stmt 0 view .LVU2404
ARM GAS  C:\Users\HP\AppData\Local\Temp\cc3vbRST.s 			page 130


 7445 027e 094B     		ldr	r3, .L402+32
 7446              	.LVL680:
 7447              		.loc 1 2578 5 view .LVU2405
 7448 0280 9847     		blx	r3
 7449              	.LVL681:
 7450              		.loc 1 2579 5 is_stmt 1 view .LVU2406
 7451 0282 E5E6     		b	.L366
 7452              	.L403:
 7453              		.align	2
 7454              	.L402:
 7455 0284 00000000 		.word	UART_Receive_IT
 7456 0288 00000000 		.word	UART_EndRxTransfer
 7457 028c 00000000 		.word	UART_DMAAbortOnError
 7458 0290 00000000 		.word	HAL_DMA_Abort_IT
 7459 0294 00000000 		.word	HAL_UART_ErrorCallback
 7460 0298 00000000 		.word	HAL_DMA_Abort
 7461 029c 00000000 		.word	HAL_UARTEx_RxEventCallback
 7462 02a0 00000000 		.word	UART_Transmit_IT
 7463 02a4 00000000 		.word	UART_EndTransmit_IT
 7464              		.cfi_endproc
 7465              	.LFE91:
 7467              		.section	.text.UART_DMARxHalfCplt,"ax",%progbits
 7468              		.align	1
 7469              		.syntax unified
 7470              		.thumb
 7471              		.thumb_func
 7472              		.fpu softvfp
 7474              	UART_DMARxHalfCplt:
 7475              	.LVL682:
 7476              	.LFB111:
 7477              		.loc 1 3102 1 view -0
 7478              		.cfi_startproc
 7479              		@ args = 0, pretend = 0, frame = 0
 7480              		@ frame_needed = 0, uses_anonymous_args = 0
 7481              		.loc 1 3102 1 is_stmt 0 view .LVU2408
 7482 0000 08B5     		push	{r3, lr}
 7483              	.LCFI53:
 7484              		.cfi_def_cfa_offset 8
 7485              		.cfi_offset 3, -8
 7486              		.cfi_offset 14, -4
 7487              		.loc 1 3103 3 is_stmt 1 view .LVU2409
 7488              		.loc 1 3103 23 is_stmt 0 view .LVU2410
 7489 0002 406A     		ldr	r0, [r0, #36]
 7490              	.LVL683:
 7491              		.loc 1 3107 3 is_stmt 1 view .LVU2411
 7492              		.loc 1 3107 22 is_stmt 0 view .LVU2412
 7493 0004 0123     		movs	r3, #1
 7494 0006 4363     		str	r3, [r0, #52]
 7495              		.loc 1 3111 3 is_stmt 1 view .LVU2413
 7496              		.loc 1 3111 12 is_stmt 0 view .LVU2414
 7497 0008 036B     		ldr	r3, [r0, #48]
 7498              		.loc 1 3111 6 view .LVU2415
 7499 000a 012B     		cmp	r3, #1
 7500 000c 02D0     		beq	.L408
 7501              		.loc 1 3129 5 is_stmt 1 view .LVU2416
 7502 000e 044B     		ldr	r3, .L409
 7503 0010 9847     		blx	r3
ARM GAS  C:\Users\HP\AppData\Local\Temp\cc3vbRST.s 			page 131


 7504              	.LVL684:
 7505              	.L404:
 7506              		.loc 1 3132 1 is_stmt 0 view .LVU2417
 7507 0012 08BD     		pop	{r3, pc}
 7508              	.LVL685:
 7509              	.L408:
 7510              		.loc 1 3118 5 is_stmt 1 view .LVU2418
 7511              		.loc 1 3118 44 is_stmt 0 view .LVU2419
 7512 0014 818D     		ldrh	r1, [r0, #44]
 7513              		.loc 1 3118 5 view .LVU2420
 7514 0016 4908     		lsrs	r1, r1, #1
 7515 0018 024B     		ldr	r3, .L409+4
 7516 001a 9847     		blx	r3
 7517              	.LVL686:
 7518              		.loc 1 3118 5 view .LVU2421
 7519 001c F9E7     		b	.L404
 7520              	.L410:
 7521 001e 00BF     		.align	2
 7522              	.L409:
 7523 0020 00000000 		.word	HAL_UART_RxHalfCpltCallback
 7524 0024 00000000 		.word	HAL_UARTEx_RxEventCallback
 7525              		.cfi_endproc
 7526              	.LFE111:
 7528              		.section	.text.UART_DMAReceiveCplt,"ax",%progbits
 7529              		.align	1
 7530              		.syntax unified
 7531              		.thumb
 7532              		.thumb_func
 7533              		.fpu softvfp
 7535              	UART_DMAReceiveCplt:
 7536              	.LVL687:
 7537              	.LFB110:
 7538              		.loc 1 3040 1 is_stmt 1 view -0
 7539              		.cfi_startproc
 7540              		@ args = 0, pretend = 0, frame = 0
 7541              		@ frame_needed = 0, uses_anonymous_args = 0
 7542              		.loc 1 3040 1 is_stmt 0 view .LVU2423
 7543 0000 08B5     		push	{r3, lr}
 7544              	.LCFI54:
 7545              		.cfi_def_cfa_offset 8
 7546              		.cfi_offset 3, -8
 7547              		.cfi_offset 14, -4
 7548 0002 0346     		mov	r3, r0
 7549              		.loc 1 3041 3 is_stmt 1 view .LVU2424
 7550              		.loc 1 3041 23 is_stmt 0 view .LVU2425
 7551 0004 406A     		ldr	r0, [r0, #36]
 7552              	.LVL688:
 7553              		.loc 1 3044 3 is_stmt 1 view .LVU2426
 7554              		.loc 1 3044 12 is_stmt 0 view .LVU2427
 7555 0006 1B68     		ldr	r3, [r3]
 7556              	.LVL689:
 7557              		.loc 1 3044 22 view .LVU2428
 7558 0008 1B68     		ldr	r3, [r3]
 7559              		.loc 1 3044 6 view .LVU2429
 7560 000a 13F0200F 		tst	r3, #32
 7561 000e 2BD1     		bne	.L412
 7562              		.loc 1 3046 5 is_stmt 1 view .LVU2430
ARM GAS  C:\Users\HP\AppData\Local\Temp\cc3vbRST.s 			page 132


 7563              		.loc 1 3046 24 is_stmt 0 view .LVU2431
 7564 0010 0023     		movs	r3, #0
 7565 0012 C385     		strh	r3, [r0, #46]	@ movhi
 7566              	.L413:
 7567              		.loc 1 3049 5 is_stmt 1 discriminator 1 view .LVU2432
 7568              	.LBB577:
 7569              		.loc 1 3049 5 discriminator 1 view .LVU2433
 7570              		.loc 1 3049 5 discriminator 1 view .LVU2434
 7571              		.loc 1 3049 5 discriminator 1 view .LVU2435
 7572 0014 0268     		ldr	r2, [r0]
 7573              	.LVL690:
 7574              	.LBB578:
 7575              	.LBI578:
 7576              		.loc 2 1068 31 discriminator 1 view .LVU2436
 7577              	.LBB579:
 7578              		.loc 2 1070 5 discriminator 1 view .LVU2437
 7579              		.loc 2 1072 4 discriminator 1 view .LVU2438
 7580 0016 02F10C03 		add	r3, r2, #12
 7581              	.LVL691:
 7582              		.loc 2 1072 4 is_stmt 0 discriminator 1 view .LVU2439
 7583              		.syntax unified
 7584              	@ 1072 "Drivers/CMSIS/Include/cmsis_gcc.h" 1
 7585 001a 53E8003F 		ldrex r3, [r3]
 7586              	@ 0 "" 2
 7587              	.LVL692:
 7588              		.loc 2 1073 4 is_stmt 1 discriminator 1 view .LVU2440
 7589              		.loc 2 1073 4 is_stmt 0 discriminator 1 view .LVU2441
 7590              		.thumb
 7591              		.syntax unified
 7592              	.LBE579:
 7593              	.LBE578:
 7594              		.loc 1 3049 5 discriminator 1 view .LVU2442
 7595 001e 23F48073 		bic	r3, r3, #256
 7596              	.LVL693:
 7597              		.loc 1 3049 5 is_stmt 1 discriminator 1 view .LVU2443
 7598              	.LBB580:
 7599              	.LBI580:
 7600              		.loc 2 1119 31 discriminator 1 view .LVU2444
 7601              	.LBB581:
 7602              		.loc 2 1121 4 discriminator 1 view .LVU2445
 7603              		.loc 2 1123 4 discriminator 1 view .LVU2446
 7604 0022 0C32     		adds	r2, r2, #12
 7605              	.LVL694:
 7606              		.loc 2 1123 4 is_stmt 0 discriminator 1 view .LVU2447
 7607              		.syntax unified
 7608              	@ 1123 "Drivers/CMSIS/Include/cmsis_gcc.h" 1
 7609 0024 42E80031 		strex r1, r3, [r2]
 7610              	@ 0 "" 2
 7611              	.LVL695:
 7612              		.loc 2 1124 4 is_stmt 1 discriminator 1 view .LVU2448
 7613              		.loc 2 1124 4 is_stmt 0 discriminator 1 view .LVU2449
 7614              		.thumb
 7615              		.syntax unified
 7616              	.LBE581:
 7617              	.LBE580:
 7618              		.loc 1 3049 5 discriminator 1 view .LVU2450
 7619 0028 0029     		cmp	r1, #0
ARM GAS  C:\Users\HP\AppData\Local\Temp\cc3vbRST.s 			page 133


 7620 002a F3D1     		bne	.L413
 7621              	.LVL696:
 7622              	.L414:
 7623              		.loc 1 3049 5 discriminator 1 view .LVU2451
 7624              	.LBE577:
 7625              		.loc 1 3049 5 is_stmt 1 discriminator 1 view .LVU2452
 7626              		.loc 1 3050 5 discriminator 1 view .LVU2453
 7627              	.LBB582:
 7628              		.loc 1 3050 5 discriminator 1 view .LVU2454
 7629              		.loc 1 3050 5 discriminator 1 view .LVU2455
 7630              		.loc 1 3050 5 discriminator 1 view .LVU2456
 7631 002c 0268     		ldr	r2, [r0]
 7632              	.LVL697:
 7633              	.LBB583:
 7634              	.LBI583:
 7635              		.loc 2 1068 31 discriminator 1 view .LVU2457
 7636              	.LBB584:
 7637              		.loc 2 1070 5 discriminator 1 view .LVU2458
 7638              		.loc 2 1072 4 discriminator 1 view .LVU2459
 7639 002e 02F11403 		add	r3, r2, #20
 7640              	.LVL698:
 7641              		.loc 2 1072 4 is_stmt 0 discriminator 1 view .LVU2460
 7642              		.syntax unified
 7643              	@ 1072 "Drivers/CMSIS/Include/cmsis_gcc.h" 1
 7644 0032 53E8003F 		ldrex r3, [r3]
 7645              	@ 0 "" 2
 7646              	.LVL699:
 7647              		.loc 2 1073 4 is_stmt 1 discriminator 1 view .LVU2461
 7648              		.loc 2 1073 4 is_stmt 0 discriminator 1 view .LVU2462
 7649              		.thumb
 7650              		.syntax unified
 7651              	.LBE584:
 7652              	.LBE583:
 7653              		.loc 1 3050 5 discriminator 1 view .LVU2463
 7654 0036 23F00103 		bic	r3, r3, #1
 7655              	.LVL700:
 7656              		.loc 1 3050 5 is_stmt 1 discriminator 1 view .LVU2464
 7657              	.LBB585:
 7658              	.LBI585:
 7659              		.loc 2 1119 31 discriminator 1 view .LVU2465
 7660              	.LBB586:
 7661              		.loc 2 1121 4 discriminator 1 view .LVU2466
 7662              		.loc 2 1123 4 discriminator 1 view .LVU2467
 7663 003a 1432     		adds	r2, r2, #20
 7664              	.LVL701:
 7665              		.loc 2 1123 4 is_stmt 0 discriminator 1 view .LVU2468
 7666              		.syntax unified
 7667              	@ 1123 "Drivers/CMSIS/Include/cmsis_gcc.h" 1
 7668 003c 42E80031 		strex r1, r3, [r2]
 7669              	@ 0 "" 2
 7670              	.LVL702:
 7671              		.loc 2 1124 4 is_stmt 1 discriminator 1 view .LVU2469
 7672              		.loc 2 1124 4 is_stmt 0 discriminator 1 view .LVU2470
 7673              		.thumb
 7674              		.syntax unified
 7675              	.LBE586:
 7676              	.LBE585:
ARM GAS  C:\Users\HP\AppData\Local\Temp\cc3vbRST.s 			page 134


 7677              		.loc 1 3050 5 discriminator 1 view .LVU2471
 7678 0040 0029     		cmp	r1, #0
 7679 0042 F3D1     		bne	.L414
 7680              	.LVL703:
 7681              	.L415:
 7682              		.loc 1 3050 5 discriminator 1 view .LVU2472
 7683              	.LBE582:
 7684              		.loc 1 3050 5 is_stmt 1 discriminator 1 view .LVU2473
 7685              		.loc 1 3054 5 discriminator 1 view .LVU2474
 7686              	.LBB587:
 7687              		.loc 1 3054 5 discriminator 1 view .LVU2475
 7688              		.loc 1 3054 5 discriminator 1 view .LVU2476
 7689              		.loc 1 3054 5 discriminator 1 view .LVU2477
 7690 0044 0268     		ldr	r2, [r0]
 7691              	.LVL704:
 7692              	.LBB588:
 7693              	.LBI588:
 7694              		.loc 2 1068 31 discriminator 1 view .LVU2478
 7695              	.LBB589:
 7696              		.loc 2 1070 5 discriminator 1 view .LVU2479
 7697              		.loc 2 1072 4 discriminator 1 view .LVU2480
 7698 0046 02F11403 		add	r3, r2, #20
 7699              	.LVL705:
 7700              		.loc 2 1072 4 is_stmt 0 discriminator 1 view .LVU2481
 7701              		.syntax unified
 7702              	@ 1072 "Drivers/CMSIS/Include/cmsis_gcc.h" 1
 7703 004a 53E8003F 		ldrex r3, [r3]
 7704              	@ 0 "" 2
 7705              	.LVL706:
 7706              		.loc 2 1073 4 is_stmt 1 discriminator 1 view .LVU2482
 7707              		.loc 2 1073 4 is_stmt 0 discriminator 1 view .LVU2483
 7708              		.thumb
 7709              		.syntax unified
 7710              	.LBE589:
 7711              	.LBE588:
 7712              		.loc 1 3054 5 discriminator 1 view .LVU2484
 7713 004e 23F04003 		bic	r3, r3, #64
 7714              	.LVL707:
 7715              		.loc 1 3054 5 is_stmt 1 discriminator 1 view .LVU2485
 7716              	.LBB590:
 7717              	.LBI590:
 7718              		.loc 2 1119 31 discriminator 1 view .LVU2486
 7719              	.LBB591:
 7720              		.loc 2 1121 4 discriminator 1 view .LVU2487
 7721              		.loc 2 1123 4 discriminator 1 view .LVU2488
 7722 0052 1432     		adds	r2, r2, #20
 7723              	.LVL708:
 7724              		.loc 2 1123 4 is_stmt 0 discriminator 1 view .LVU2489
 7725              		.syntax unified
 7726              	@ 1123 "Drivers/CMSIS/Include/cmsis_gcc.h" 1
 7727 0054 42E80031 		strex r1, r3, [r2]
 7728              	@ 0 "" 2
 7729              	.LVL709:
 7730              		.loc 2 1124 4 is_stmt 1 discriminator 1 view .LVU2490
 7731              		.loc 2 1124 4 is_stmt 0 discriminator 1 view .LVU2491
 7732              		.thumb
 7733              		.syntax unified
ARM GAS  C:\Users\HP\AppData\Local\Temp\cc3vbRST.s 			page 135


 7734              	.LBE591:
 7735              	.LBE590:
 7736              		.loc 1 3054 5 discriminator 1 view .LVU2492
 7737 0058 0029     		cmp	r1, #0
 7738 005a F3D1     		bne	.L415
 7739              	.LBE587:
 7740              		.loc 1 3054 5 is_stmt 1 discriminator 2 view .LVU2493
 7741              		.loc 1 3057 5 discriminator 2 view .LVU2494
 7742              		.loc 1 3057 20 is_stmt 0 discriminator 2 view .LVU2495
 7743 005c 2023     		movs	r3, #32
 7744              	.LVL710:
 7745              		.loc 1 3057 20 discriminator 2 view .LVU2496
 7746 005e 80F84230 		strb	r3, [r0, #66]
 7747              		.loc 1 3060 5 is_stmt 1 discriminator 2 view .LVU2497
 7748              		.loc 1 3060 14 is_stmt 0 discriminator 2 view .LVU2498
 7749 0062 036B     		ldr	r3, [r0, #48]
 7750              		.loc 1 3060 8 discriminator 2 view .LVU2499
 7751 0064 012B     		cmp	r3, #1
 7752 0066 07D0     		beq	.L416
 7753              	.L412:
 7754              		.loc 1 3062 7 is_stmt 1 discriminator 2 view .LVU2500
 7755              		.loc 1 3068 3 discriminator 2 view .LVU2501
 7756              		.loc 1 3068 22 is_stmt 0 discriminator 2 view .LVU2502
 7757 0068 0023     		movs	r3, #0
 7758 006a 4363     		str	r3, [r0, #52]
 7759              		.loc 1 3072 3 is_stmt 1 discriminator 2 view .LVU2503
 7760              		.loc 1 3072 12 is_stmt 0 discriminator 2 view .LVU2504
 7761 006c 036B     		ldr	r3, [r0, #48]
 7762              		.loc 1 3072 6 discriminator 2 view .LVU2505
 7763 006e 012B     		cmp	r3, #1
 7764 0070 0FD0     		beq	.L420
 7765              		.loc 1 3090 5 is_stmt 1 view .LVU2506
 7766 0072 0A4B     		ldr	r3, .L421
 7767 0074 9847     		blx	r3
 7768              	.LVL711:
 7769              	.L411:
 7770              		.loc 1 3093 1 is_stmt 0 view .LVU2507
 7771 0076 08BD     		pop	{r3, pc}
 7772              	.LVL712:
 7773              	.L416:
 7774              		.loc 1 3062 7 is_stmt 1 discriminator 1 view .LVU2508
 7775              	.LBB592:
 7776              		.loc 1 3062 7 discriminator 1 view .LVU2509
 7777              		.loc 1 3062 7 discriminator 1 view .LVU2510
 7778              		.loc 1 3062 7 discriminator 1 view .LVU2511
 7779 0078 0268     		ldr	r2, [r0]
 7780              	.LVL713:
 7781              	.LBB593:
 7782              	.LBI593:
 7783              		.loc 2 1068 31 discriminator 1 view .LVU2512
 7784              	.LBB594:
 7785              		.loc 2 1070 5 discriminator 1 view .LVU2513
 7786              		.loc 2 1072 4 discriminator 1 view .LVU2514
 7787 007a 02F10C03 		add	r3, r2, #12
 7788              	.LVL714:
 7789              		.loc 2 1072 4 is_stmt 0 discriminator 1 view .LVU2515
 7790              		.syntax unified
ARM GAS  C:\Users\HP\AppData\Local\Temp\cc3vbRST.s 			page 136


 7791              	@ 1072 "Drivers/CMSIS/Include/cmsis_gcc.h" 1
 7792 007e 53E8003F 		ldrex r3, [r3]
 7793              	@ 0 "" 2
 7794              	.LVL715:
 7795              		.loc 2 1073 4 is_stmt 1 discriminator 1 view .LVU2516
 7796              		.loc 2 1073 4 is_stmt 0 discriminator 1 view .LVU2517
 7797              		.thumb
 7798              		.syntax unified
 7799              	.LBE594:
 7800              	.LBE593:
 7801              		.loc 1 3062 7 discriminator 1 view .LVU2518
 7802 0082 23F01003 		bic	r3, r3, #16
 7803              	.LVL716:
 7804              		.loc 1 3062 7 is_stmt 1 discriminator 1 view .LVU2519
 7805              	.LBB595:
 7806              	.LBI595:
 7807              		.loc 2 1119 31 discriminator 1 view .LVU2520
 7808              	.LBB596:
 7809              		.loc 2 1121 4 discriminator 1 view .LVU2521
 7810              		.loc 2 1123 4 discriminator 1 view .LVU2522
 7811 0086 0C32     		adds	r2, r2, #12
 7812              	.LVL717:
 7813              		.loc 2 1123 4 is_stmt 0 discriminator 1 view .LVU2523
 7814              		.syntax unified
 7815              	@ 1123 "Drivers/CMSIS/Include/cmsis_gcc.h" 1
 7816 0088 42E80031 		strex r1, r3, [r2]
 7817              	@ 0 "" 2
 7818              	.LVL718:
 7819              		.loc 2 1124 4 is_stmt 1 discriminator 1 view .LVU2524
 7820              		.loc 2 1124 4 is_stmt 0 discriminator 1 view .LVU2525
 7821              		.thumb
 7822              		.syntax unified
 7823              	.LBE596:
 7824              	.LBE595:
 7825              		.loc 1 3062 7 discriminator 1 view .LVU2526
 7826 008c 0029     		cmp	r1, #0
 7827 008e F3D1     		bne	.L416
 7828 0090 EAE7     		b	.L412
 7829              	.LVL719:
 7830              	.L420:
 7831              		.loc 1 3062 7 discriminator 1 view .LVU2527
 7832              	.LBE592:
 7833              		.loc 1 3079 5 is_stmt 1 view .LVU2528
 7834 0092 818D     		ldrh	r1, [r0, #44]
 7835 0094 024B     		ldr	r3, .L421+4
 7836 0096 9847     		blx	r3
 7837              	.LVL720:
 7838              		.loc 1 3079 5 is_stmt 0 view .LVU2529
 7839 0098 EDE7     		b	.L411
 7840              	.L422:
 7841 009a 00BF     		.align	2
 7842              	.L421:
 7843 009c 00000000 		.word	HAL_UART_RxCpltCallback
 7844 00a0 00000000 		.word	HAL_UARTEx_RxEventCallback
 7845              		.cfi_endproc
 7846              	.LFE110:
 7848              		.section	.text.HAL_LIN_SendBreak,"ax",%progbits
ARM GAS  C:\Users\HP\AppData\Local\Temp\cc3vbRST.s 			page 137


 7849              		.align	1
 7850              		.global	HAL_LIN_SendBreak
 7851              		.syntax unified
 7852              		.thumb
 7853              		.thumb_func
 7854              		.fpu softvfp
 7856              	HAL_LIN_SendBreak:
 7857              	.LVL721:
 7858              	.LFB101:
 7859              		.loc 1 2751 1 is_stmt 1 view -0
 7860              		.cfi_startproc
 7861              		@ args = 0, pretend = 0, frame = 0
 7862              		@ frame_needed = 0, uses_anonymous_args = 0
 7863              		@ link register save eliminated.
 7864              		.loc 1 2753 3 view .LVU2531
 7865              		.loc 1 2756 3 view .LVU2532
 7866              		.loc 1 2756 3 view .LVU2533
 7867 0000 90F84030 		ldrb	r3, [r0, #64]	@ zero_extendqisi2
 7868 0004 012B     		cmp	r3, #1
 7869 0006 19D0     		beq	.L426
 7870              		.loc 1 2756 3 discriminator 2 view .LVU2534
 7871 0008 0123     		movs	r3, #1
 7872 000a 80F84030 		strb	r3, [r0, #64]
 7873              		.loc 1 2756 3 discriminator 2 view .LVU2535
 7874              		.loc 1 2758 3 discriminator 2 view .LVU2536
 7875              		.loc 1 2758 17 is_stmt 0 discriminator 2 view .LVU2537
 7876 000e 2423     		movs	r3, #36
 7877 0010 80F84130 		strb	r3, [r0, #65]
 7878              	.L425:
 7879              		.loc 1 2761 3 is_stmt 1 discriminator 1 view .LVU2538
 7880              	.LBB597:
 7881              		.loc 1 2761 3 discriminator 1 view .LVU2539
 7882              		.loc 1 2761 3 discriminator 1 view .LVU2540
 7883              		.loc 1 2761 3 discriminator 1 view .LVU2541
 7884 0014 0268     		ldr	r2, [r0]
 7885              	.LVL722:
 7886              	.LBB598:
 7887              	.LBI598:
 7888              		.loc 2 1068 31 discriminator 1 view .LVU2542
 7889              	.LBB599:
 7890              		.loc 2 1070 5 discriminator 1 view .LVU2543
 7891              		.loc 2 1072 4 discriminator 1 view .LVU2544
 7892 0016 02F10C03 		add	r3, r2, #12
 7893              	.LVL723:
 7894              		.loc 2 1072 4 is_stmt 0 discriminator 1 view .LVU2545
 7895              		.syntax unified
 7896              	@ 1072 "Drivers/CMSIS/Include/cmsis_gcc.h" 1
 7897 001a 53E8003F 		ldrex r3, [r3]
 7898              	@ 0 "" 2
 7899              	.LVL724:
 7900              		.loc 2 1073 4 is_stmt 1 discriminator 1 view .LVU2546
 7901              		.loc 2 1073 4 is_stmt 0 discriminator 1 view .LVU2547
 7902              		.thumb
 7903              		.syntax unified
 7904              	.LBE599:
 7905              	.LBE598:
 7906              		.loc 1 2761 3 discriminator 1 view .LVU2548
ARM GAS  C:\Users\HP\AppData\Local\Temp\cc3vbRST.s 			page 138


 7907 001e 43F00103 		orr	r3, r3, #1
 7908              	.LVL725:
 7909              		.loc 1 2761 3 is_stmt 1 discriminator 1 view .LVU2549
 7910              	.LBB600:
 7911              	.LBI600:
 7912              		.loc 2 1119 31 discriminator 1 view .LVU2550
 7913              	.LBB601:
 7914              		.loc 2 1121 4 discriminator 1 view .LVU2551
 7915              		.loc 2 1123 4 discriminator 1 view .LVU2552
 7916 0022 0C32     		adds	r2, r2, #12
 7917              	.LVL726:
 7918              		.loc 2 1123 4 is_stmt 0 discriminator 1 view .LVU2553
 7919              		.syntax unified
 7920              	@ 1123 "Drivers/CMSIS/Include/cmsis_gcc.h" 1
 7921 0024 42E80031 		strex r1, r3, [r2]
 7922              	@ 0 "" 2
 7923              	.LVL727:
 7924              		.loc 2 1124 4 is_stmt 1 discriminator 1 view .LVU2554
 7925              		.loc 2 1124 4 is_stmt 0 discriminator 1 view .LVU2555
 7926              		.thumb
 7927              		.syntax unified
 7928              	.LBE601:
 7929              	.LBE600:
 7930              		.loc 1 2761 3 discriminator 1 view .LVU2556
 7931 0028 0029     		cmp	r1, #0
 7932 002a F3D1     		bne	.L425
 7933              	.LBE597:
 7934              		.loc 1 2761 3 is_stmt 1 discriminator 2 view .LVU2557
 7935              		.loc 1 2763 3 discriminator 2 view .LVU2558
 7936              		.loc 1 2763 17 is_stmt 0 discriminator 2 view .LVU2559
 7937 002c 2023     		movs	r3, #32
 7938              	.LVL728:
 7939              		.loc 1 2763 17 discriminator 2 view .LVU2560
 7940 002e 80F84130 		strb	r3, [r0, #65]
 7941              		.loc 1 2766 3 is_stmt 1 discriminator 2 view .LVU2561
 7942              		.loc 1 2766 3 discriminator 2 view .LVU2562
 7943 0032 0023     		movs	r3, #0
 7944 0034 80F84030 		strb	r3, [r0, #64]
 7945              		.loc 1 2766 3 discriminator 2 view .LVU2563
 7946              		.loc 1 2768 3 discriminator 2 view .LVU2564
 7947              		.loc 1 2768 10 is_stmt 0 discriminator 2 view .LVU2565
 7948 0038 1846     		mov	r0, r3
 7949              	.LVL729:
 7950              		.loc 1 2768 10 discriminator 2 view .LVU2566
 7951 003a 7047     		bx	lr
 7952              	.LVL730:
 7953              	.L426:
 7954              		.loc 1 2756 3 view .LVU2567
 7955 003c 0220     		movs	r0, #2
 7956              	.LVL731:
 7957              		.loc 1 2769 1 view .LVU2568
 7958 003e 7047     		bx	lr
 7959              		.cfi_endproc
 7960              	.LFE101:
 7962              		.section	.text.HAL_MultiProcessor_EnterMuteMode,"ax",%progbits
 7963              		.align	1
 7964              		.global	HAL_MultiProcessor_EnterMuteMode
ARM GAS  C:\Users\HP\AppData\Local\Temp\cc3vbRST.s 			page 139


 7965              		.syntax unified
 7966              		.thumb
 7967              		.thumb_func
 7968              		.fpu softvfp
 7970              	HAL_MultiProcessor_EnterMuteMode:
 7971              	.LVL732:
 7972              	.LFB102:
 7973              		.loc 1 2778 1 is_stmt 1 view -0
 7974              		.cfi_startproc
 7975              		@ args = 0, pretend = 0, frame = 0
 7976              		@ frame_needed = 0, uses_anonymous_args = 0
 7977              		@ link register save eliminated.
 7978              		.loc 1 2780 3 view .LVU2570
 7979              		.loc 1 2783 3 view .LVU2571
 7980              		.loc 1 2783 3 view .LVU2572
 7981 0000 90F84030 		ldrb	r3, [r0, #64]	@ zero_extendqisi2
 7982 0004 012B     		cmp	r3, #1
 7983 0006 1AD0     		beq	.L430
 7984              		.loc 1 2783 3 discriminator 2 view .LVU2573
 7985 0008 0123     		movs	r3, #1
 7986 000a 80F84030 		strb	r3, [r0, #64]
 7987              		.loc 1 2783 3 discriminator 2 view .LVU2574
 7988              		.loc 1 2785 3 discriminator 2 view .LVU2575
 7989              		.loc 1 2785 17 is_stmt 0 discriminator 2 view .LVU2576
 7990 000e 2423     		movs	r3, #36
 7991 0010 80F84130 		strb	r3, [r0, #65]
 7992              	.L429:
 7993              		.loc 1 2788 3 is_stmt 1 discriminator 1 view .LVU2577
 7994              	.LBB602:
 7995              		.loc 1 2788 3 discriminator 1 view .LVU2578
 7996              		.loc 1 2788 3 discriminator 1 view .LVU2579
 7997              		.loc 1 2788 3 discriminator 1 view .LVU2580
 7998 0014 0268     		ldr	r2, [r0]
 7999              	.LVL733:
 8000              	.LBB603:
 8001              	.LBI603:
 8002              		.loc 2 1068 31 discriminator 1 view .LVU2581
 8003              	.LBB604:
 8004              		.loc 2 1070 5 discriminator 1 view .LVU2582
 8005              		.loc 2 1072 4 discriminator 1 view .LVU2583
 8006 0016 02F10C03 		add	r3, r2, #12
 8007              	.LVL734:
 8008              		.loc 2 1072 4 is_stmt 0 discriminator 1 view .LVU2584
 8009              		.syntax unified
 8010              	@ 1072 "Drivers/CMSIS/Include/cmsis_gcc.h" 1
 8011 001a 53E8003F 		ldrex r3, [r3]
 8012              	@ 0 "" 2
 8013              	.LVL735:
 8014              		.loc 2 1073 4 is_stmt 1 discriminator 1 view .LVU2585
 8015              		.loc 2 1073 4 is_stmt 0 discriminator 1 view .LVU2586
 8016              		.thumb
 8017              		.syntax unified
 8018              	.LBE604:
 8019              	.LBE603:
 8020              		.loc 1 2788 3 discriminator 1 view .LVU2587
 8021 001e 43F00203 		orr	r3, r3, #2
 8022              	.LVL736:
ARM GAS  C:\Users\HP\AppData\Local\Temp\cc3vbRST.s 			page 140


 8023              		.loc 1 2788 3 is_stmt 1 discriminator 1 view .LVU2588
 8024              	.LBB605:
 8025              	.LBI605:
 8026              		.loc 2 1119 31 discriminator 1 view .LVU2589
 8027              	.LBB606:
 8028              		.loc 2 1121 4 discriminator 1 view .LVU2590
 8029              		.loc 2 1123 4 discriminator 1 view .LVU2591
 8030 0022 0C32     		adds	r2, r2, #12
 8031              	.LVL737:
 8032              		.loc 2 1123 4 is_stmt 0 discriminator 1 view .LVU2592
 8033              		.syntax unified
 8034              	@ 1123 "Drivers/CMSIS/Include/cmsis_gcc.h" 1
 8035 0024 42E80031 		strex r1, r3, [r2]
 8036              	@ 0 "" 2
 8037              	.LVL738:
 8038              		.loc 2 1124 4 is_stmt 1 discriminator 1 view .LVU2593
 8039              		.loc 2 1124 4 is_stmt 0 discriminator 1 view .LVU2594
 8040              		.thumb
 8041              		.syntax unified
 8042              	.LBE606:
 8043              	.LBE605:
 8044              		.loc 1 2788 3 discriminator 1 view .LVU2595
 8045 0028 0029     		cmp	r1, #0
 8046 002a F3D1     		bne	.L429
 8047              	.LBE602:
 8048              		.loc 1 2788 3 is_stmt 1 discriminator 2 view .LVU2596
 8049              		.loc 1 2790 3 discriminator 2 view .LVU2597
 8050              		.loc 1 2790 17 is_stmt 0 discriminator 2 view .LVU2598
 8051 002c 2023     		movs	r3, #32
 8052              	.LVL739:
 8053              		.loc 1 2790 17 discriminator 2 view .LVU2599
 8054 002e 80F84130 		strb	r3, [r0, #65]
 8055              		.loc 1 2791 3 is_stmt 1 discriminator 2 view .LVU2600
 8056              		.loc 1 2791 22 is_stmt 0 discriminator 2 view .LVU2601
 8057 0032 0023     		movs	r3, #0
 8058 0034 4363     		str	r3, [r0, #52]
 8059              		.loc 1 2794 3 is_stmt 1 discriminator 2 view .LVU2602
 8060              		.loc 1 2794 3 discriminator 2 view .LVU2603
 8061 0036 80F84030 		strb	r3, [r0, #64]
 8062              		.loc 1 2794 3 discriminator 2 view .LVU2604
 8063              		.loc 1 2796 3 discriminator 2 view .LVU2605
 8064              		.loc 1 2796 10 is_stmt 0 discriminator 2 view .LVU2606
 8065 003a 1846     		mov	r0, r3
 8066              	.LVL740:
 8067              		.loc 1 2796 10 discriminator 2 view .LVU2607
 8068 003c 7047     		bx	lr
 8069              	.LVL741:
 8070              	.L430:
 8071              		.loc 1 2783 3 view .LVU2608
 8072 003e 0220     		movs	r0, #2
 8073              	.LVL742:
 8074              		.loc 1 2797 1 view .LVU2609
 8075 0040 7047     		bx	lr
 8076              		.cfi_endproc
 8077              	.LFE102:
 8079              		.section	.text.HAL_MultiProcessor_ExitMuteMode,"ax",%progbits
 8080              		.align	1
ARM GAS  C:\Users\HP\AppData\Local\Temp\cc3vbRST.s 			page 141


 8081              		.global	HAL_MultiProcessor_ExitMuteMode
 8082              		.syntax unified
 8083              		.thumb
 8084              		.thumb_func
 8085              		.fpu softvfp
 8087              	HAL_MultiProcessor_ExitMuteMode:
 8088              	.LVL743:
 8089              	.LFB103:
 8090              		.loc 1 2806 1 is_stmt 1 view -0
 8091              		.cfi_startproc
 8092              		@ args = 0, pretend = 0, frame = 0
 8093              		@ frame_needed = 0, uses_anonymous_args = 0
 8094              		@ link register save eliminated.
 8095              		.loc 1 2808 3 view .LVU2611
 8096              		.loc 1 2811 3 view .LVU2612
 8097              		.loc 1 2811 3 view .LVU2613
 8098 0000 90F84030 		ldrb	r3, [r0, #64]	@ zero_extendqisi2
 8099 0004 012B     		cmp	r3, #1
 8100 0006 1AD0     		beq	.L434
 8101              		.loc 1 2811 3 discriminator 2 view .LVU2614
 8102 0008 0123     		movs	r3, #1
 8103 000a 80F84030 		strb	r3, [r0, #64]
 8104              		.loc 1 2811 3 discriminator 2 view .LVU2615
 8105              		.loc 1 2813 3 discriminator 2 view .LVU2616
 8106              		.loc 1 2813 17 is_stmt 0 discriminator 2 view .LVU2617
 8107 000e 2423     		movs	r3, #36
 8108 0010 80F84130 		strb	r3, [r0, #65]
 8109              	.L433:
 8110              		.loc 1 2816 3 is_stmt 1 discriminator 1 view .LVU2618
 8111              	.LBB607:
 8112              		.loc 1 2816 3 discriminator 1 view .LVU2619
 8113              		.loc 1 2816 3 discriminator 1 view .LVU2620
 8114              		.loc 1 2816 3 discriminator 1 view .LVU2621
 8115 0014 0268     		ldr	r2, [r0]
 8116              	.LVL744:
 8117              	.LBB608:
 8118              	.LBI608:
 8119              		.loc 2 1068 31 discriminator 1 view .LVU2622
 8120              	.LBB609:
 8121              		.loc 2 1070 5 discriminator 1 view .LVU2623
 8122              		.loc 2 1072 4 discriminator 1 view .LVU2624
 8123 0016 02F10C03 		add	r3, r2, #12
 8124              	.LVL745:
 8125              		.loc 2 1072 4 is_stmt 0 discriminator 1 view .LVU2625
 8126              		.syntax unified
 8127              	@ 1072 "Drivers/CMSIS/Include/cmsis_gcc.h" 1
 8128 001a 53E8003F 		ldrex r3, [r3]
 8129              	@ 0 "" 2
 8130              	.LVL746:
 8131              		.loc 2 1073 4 is_stmt 1 discriminator 1 view .LVU2626
 8132              		.loc 2 1073 4 is_stmt 0 discriminator 1 view .LVU2627
 8133              		.thumb
 8134              		.syntax unified
 8135              	.LBE609:
 8136              	.LBE608:
 8137              		.loc 1 2816 3 discriminator 1 view .LVU2628
 8138 001e 23F00203 		bic	r3, r3, #2
ARM GAS  C:\Users\HP\AppData\Local\Temp\cc3vbRST.s 			page 142


 8139              	.LVL747:
 8140              		.loc 1 2816 3 is_stmt 1 discriminator 1 view .LVU2629
 8141              	.LBB610:
 8142              	.LBI610:
 8143              		.loc 2 1119 31 discriminator 1 view .LVU2630
 8144              	.LBB611:
 8145              		.loc 2 1121 4 discriminator 1 view .LVU2631
 8146              		.loc 2 1123 4 discriminator 1 view .LVU2632
 8147 0022 0C32     		adds	r2, r2, #12
 8148              	.LVL748:
 8149              		.loc 2 1123 4 is_stmt 0 discriminator 1 view .LVU2633
 8150              		.syntax unified
 8151              	@ 1123 "Drivers/CMSIS/Include/cmsis_gcc.h" 1
 8152 0024 42E80031 		strex r1, r3, [r2]
 8153              	@ 0 "" 2
 8154              	.LVL749:
 8155              		.loc 2 1124 4 is_stmt 1 discriminator 1 view .LVU2634
 8156              		.loc 2 1124 4 is_stmt 0 discriminator 1 view .LVU2635
 8157              		.thumb
 8158              		.syntax unified
 8159              	.LBE611:
 8160              	.LBE610:
 8161              		.loc 1 2816 3 discriminator 1 view .LVU2636
 8162 0028 0029     		cmp	r1, #0
 8163 002a F3D1     		bne	.L433
 8164              	.LBE607:
 8165              		.loc 1 2816 3 is_stmt 1 discriminator 2 view .LVU2637
 8166              		.loc 1 2818 3 discriminator 2 view .LVU2638
 8167              		.loc 1 2818 17 is_stmt 0 discriminator 2 view .LVU2639
 8168 002c 2023     		movs	r3, #32
 8169              	.LVL750:
 8170              		.loc 1 2818 17 discriminator 2 view .LVU2640
 8171 002e 80F84130 		strb	r3, [r0, #65]
 8172              		.loc 1 2819 3 is_stmt 1 discriminator 2 view .LVU2641
 8173              		.loc 1 2819 22 is_stmt 0 discriminator 2 view .LVU2642
 8174 0032 0023     		movs	r3, #0
 8175 0034 4363     		str	r3, [r0, #52]
 8176              		.loc 1 2822 3 is_stmt 1 discriminator 2 view .LVU2643
 8177              		.loc 1 2822 3 discriminator 2 view .LVU2644
 8178 0036 80F84030 		strb	r3, [r0, #64]
 8179              		.loc 1 2822 3 discriminator 2 view .LVU2645
 8180              		.loc 1 2824 3 discriminator 2 view .LVU2646
 8181              		.loc 1 2824 10 is_stmt 0 discriminator 2 view .LVU2647
 8182 003a 1846     		mov	r0, r3
 8183              	.LVL751:
 8184              		.loc 1 2824 10 discriminator 2 view .LVU2648
 8185 003c 7047     		bx	lr
 8186              	.LVL752:
 8187              	.L434:
 8188              		.loc 1 2811 3 view .LVU2649
 8189 003e 0220     		movs	r0, #2
 8190              	.LVL753:
 8191              		.loc 1 2825 1 view .LVU2650
 8192 0040 7047     		bx	lr
 8193              		.cfi_endproc
 8194              	.LFE103:
 8196              		.section	.text.HAL_HalfDuplex_EnableTransmitter,"ax",%progbits
ARM GAS  C:\Users\HP\AppData\Local\Temp\cc3vbRST.s 			page 143


 8197              		.align	1
 8198              		.global	HAL_HalfDuplex_EnableTransmitter
 8199              		.syntax unified
 8200              		.thumb
 8201              		.thumb_func
 8202              		.fpu softvfp
 8204              	HAL_HalfDuplex_EnableTransmitter:
 8205              	.LVL754:
 8206              	.LFB104:
 8207              		.loc 1 2834 1 is_stmt 1 view -0
 8208              		.cfi_startproc
 8209              		@ args = 0, pretend = 0, frame = 0
 8210              		@ frame_needed = 0, uses_anonymous_args = 0
 8211              		@ link register save eliminated.
 8212              		.loc 1 2835 3 view .LVU2652
 8213              		.loc 1 2838 3 view .LVU2653
 8214              		.loc 1 2838 3 view .LVU2654
 8215 0000 90F84030 		ldrb	r3, [r0, #64]	@ zero_extendqisi2
 8216 0004 012B     		cmp	r3, #1
 8217 0006 14D0     		beq	.L437
 8218              		.loc 1 2838 3 discriminator 2 view .LVU2655
 8219 0008 0123     		movs	r3, #1
 8220 000a 80F84030 		strb	r3, [r0, #64]
 8221              		.loc 1 2838 3 discriminator 2 view .LVU2656
 8222              		.loc 1 2840 3 discriminator 2 view .LVU2657
 8223              		.loc 1 2840 17 is_stmt 0 discriminator 2 view .LVU2658
 8224 000e 2423     		movs	r3, #36
 8225 0010 80F84130 		strb	r3, [r0, #65]
 8226              		.loc 1 2843 3 is_stmt 1 discriminator 2 view .LVU2659
 8227              		.loc 1 2843 17 is_stmt 0 discriminator 2 view .LVU2660
 8228 0014 0268     		ldr	r2, [r0]
 8229              		.loc 1 2843 10 discriminator 2 view .LVU2661
 8230 0016 D368     		ldr	r3, [r2, #12]
 8231              	.LVL755:
 8232              		.loc 1 2846 3 is_stmt 1 discriminator 2 view .LVU2662
 8233              		.loc 1 2846 10 is_stmt 0 discriminator 2 view .LVU2663
 8234 0018 23F00C03 		bic	r3, r3, #12
 8235              	.LVL756:
 8236              		.loc 1 2849 3 is_stmt 1 discriminator 2 view .LVU2664
 8237              		.loc 1 2849 10 is_stmt 0 discriminator 2 view .LVU2665
 8238 001c 43F00803 		orr	r3, r3, #8
 8239              	.LVL757:
 8240              		.loc 1 2852 3 is_stmt 1 discriminator 2 view .LVU2666
 8241 0020 D360     		str	r3, [r2, #12]
 8242              		.loc 1 2854 3 discriminator 2 view .LVU2667
 8243              		.loc 1 2854 17 is_stmt 0 discriminator 2 view .LVU2668
 8244 0022 2023     		movs	r3, #32
 8245              	.LVL758:
 8246              		.loc 1 2854 17 discriminator 2 view .LVU2669
 8247 0024 80F84130 		strb	r3, [r0, #65]
 8248              	.LVL759:
 8249              		.loc 1 2857 3 is_stmt 1 discriminator 2 view .LVU2670
 8250              		.loc 1 2857 3 discriminator 2 view .LVU2671
 8251 0028 0023     		movs	r3, #0
 8252 002a 80F84030 		strb	r3, [r0, #64]
 8253              		.loc 1 2857 3 discriminator 2 view .LVU2672
 8254              		.loc 1 2859 3 discriminator 2 view .LVU2673
ARM GAS  C:\Users\HP\AppData\Local\Temp\cc3vbRST.s 			page 144


 8255              		.loc 1 2859 10 is_stmt 0 discriminator 2 view .LVU2674
 8256 002e 1846     		mov	r0, r3
 8257              	.LVL760:
 8258              		.loc 1 2859 10 discriminator 2 view .LVU2675
 8259 0030 7047     		bx	lr
 8260              	.LVL761:
 8261              	.L437:
 8262              		.loc 1 2838 3 view .LVU2676
 8263 0032 0220     		movs	r0, #2
 8264              	.LVL762:
 8265              		.loc 1 2860 1 view .LVU2677
 8266 0034 7047     		bx	lr
 8267              		.cfi_endproc
 8268              	.LFE104:
 8270              		.section	.text.HAL_HalfDuplex_EnableReceiver,"ax",%progbits
 8271              		.align	1
 8272              		.global	HAL_HalfDuplex_EnableReceiver
 8273              		.syntax unified
 8274              		.thumb
 8275              		.thumb_func
 8276              		.fpu softvfp
 8278              	HAL_HalfDuplex_EnableReceiver:
 8279              	.LVL763:
 8280              	.LFB105:
 8281              		.loc 1 2869 1 is_stmt 1 view -0
 8282              		.cfi_startproc
 8283              		@ args = 0, pretend = 0, frame = 0
 8284              		@ frame_needed = 0, uses_anonymous_args = 0
 8285              		@ link register save eliminated.
 8286              		.loc 1 2870 3 view .LVU2679
 8287              		.loc 1 2873 3 view .LVU2680
 8288              		.loc 1 2873 3 view .LVU2681
 8289 0000 90F84030 		ldrb	r3, [r0, #64]	@ zero_extendqisi2
 8290 0004 012B     		cmp	r3, #1
 8291 0006 14D0     		beq	.L440
 8292              		.loc 1 2873 3 discriminator 2 view .LVU2682
 8293 0008 0123     		movs	r3, #1
 8294 000a 80F84030 		strb	r3, [r0, #64]
 8295              		.loc 1 2873 3 discriminator 2 view .LVU2683
 8296              		.loc 1 2875 3 discriminator 2 view .LVU2684
 8297              		.loc 1 2875 17 is_stmt 0 discriminator 2 view .LVU2685
 8298 000e 2423     		movs	r3, #36
 8299 0010 80F84130 		strb	r3, [r0, #65]
 8300              		.loc 1 2878 3 is_stmt 1 discriminator 2 view .LVU2686
 8301              		.loc 1 2878 17 is_stmt 0 discriminator 2 view .LVU2687
 8302 0014 0268     		ldr	r2, [r0]
 8303              		.loc 1 2878 10 discriminator 2 view .LVU2688
 8304 0016 D368     		ldr	r3, [r2, #12]
 8305              	.LVL764:
 8306              		.loc 1 2881 3 is_stmt 1 discriminator 2 view .LVU2689
 8307              		.loc 1 2881 10 is_stmt 0 discriminator 2 view .LVU2690
 8308 0018 23F00C03 		bic	r3, r3, #12
 8309              	.LVL765:
 8310              		.loc 1 2884 3 is_stmt 1 discriminator 2 view .LVU2691
 8311              		.loc 1 2884 10 is_stmt 0 discriminator 2 view .LVU2692
 8312 001c 43F00403 		orr	r3, r3, #4
 8313              	.LVL766:
ARM GAS  C:\Users\HP\AppData\Local\Temp\cc3vbRST.s 			page 145


 8314              		.loc 1 2887 3 is_stmt 1 discriminator 2 view .LVU2693
 8315 0020 D360     		str	r3, [r2, #12]
 8316              		.loc 1 2889 3 discriminator 2 view .LVU2694
 8317              		.loc 1 2889 17 is_stmt 0 discriminator 2 view .LVU2695
 8318 0022 2023     		movs	r3, #32
 8319              	.LVL767:
 8320              		.loc 1 2889 17 discriminator 2 view .LVU2696
 8321 0024 80F84130 		strb	r3, [r0, #65]
 8322              	.LVL768:
 8323              		.loc 1 2892 3 is_stmt 1 discriminator 2 view .LVU2697
 8324              		.loc 1 2892 3 discriminator 2 view .LVU2698
 8325 0028 0023     		movs	r3, #0
 8326 002a 80F84030 		strb	r3, [r0, #64]
 8327              		.loc 1 2892 3 discriminator 2 view .LVU2699
 8328              		.loc 1 2894 3 discriminator 2 view .LVU2700
 8329              		.loc 1 2894 10 is_stmt 0 discriminator 2 view .LVU2701
 8330 002e 1846     		mov	r0, r3
 8331              	.LVL769:
 8332              		.loc 1 2894 10 discriminator 2 view .LVU2702
 8333 0030 7047     		bx	lr
 8334              	.LVL770:
 8335              	.L440:
 8336              		.loc 1 2873 3 view .LVU2703
 8337 0032 0220     		movs	r0, #2
 8338              	.LVL771:
 8339              		.loc 1 2895 1 view .LVU2704
 8340 0034 7047     		bx	lr
 8341              		.cfi_endproc
 8342              	.LFE105:
 8344              		.section	.text.HAL_UART_GetState,"ax",%progbits
 8345              		.align	1
 8346              		.global	HAL_UART_GetState
 8347              		.syntax unified
 8348              		.thumb
 8349              		.thumb_func
 8350              		.fpu softvfp
 8352              	HAL_UART_GetState:
 8353              	.LVL772:
 8354              	.LFB106:
 8355              		.loc 1 2926 1 is_stmt 1 view -0
 8356              		.cfi_startproc
 8357              		@ args = 0, pretend = 0, frame = 0
 8358              		@ frame_needed = 0, uses_anonymous_args = 0
 8359              		@ link register save eliminated.
 8360              		.loc 1 2927 3 view .LVU2706
 8361              		.loc 1 2928 3 view .LVU2707
 8362              		.loc 1 2928 16 is_stmt 0 view .LVU2708
 8363 0000 90F84130 		ldrb	r3, [r0, #65]	@ zero_extendqisi2
 8364              	.LVL773:
 8365              		.loc 1 2929 3 is_stmt 1 view .LVU2709
 8366              		.loc 1 2929 16 is_stmt 0 view .LVU2710
 8367 0004 90F84200 		ldrb	r0, [r0, #66]	@ zero_extendqisi2
 8368              	.LVL774:
 8369              		.loc 1 2931 3 is_stmt 1 view .LVU2711
 8370              		.loc 1 2932 1 is_stmt 0 view .LVU2712
 8371 0008 1843     		orrs	r0, r0, r3
 8372              	.LVL775:
ARM GAS  C:\Users\HP\AppData\Local\Temp\cc3vbRST.s 			page 146


 8373              		.loc 1 2932 1 view .LVU2713
 8374 000a 7047     		bx	lr
 8375              		.cfi_endproc
 8376              	.LFE106:
 8378              		.section	.text.HAL_UART_GetError,"ax",%progbits
 8379              		.align	1
 8380              		.global	HAL_UART_GetError
 8381              		.syntax unified
 8382              		.thumb
 8383              		.thumb_func
 8384              		.fpu softvfp
 8386              	HAL_UART_GetError:
 8387              	.LVL776:
 8388              	.LFB107:
 8389              		.loc 1 2941 1 is_stmt 1 view -0
 8390              		.cfi_startproc
 8391              		@ args = 0, pretend = 0, frame = 0
 8392              		@ frame_needed = 0, uses_anonymous_args = 0
 8393              		@ link register save eliminated.
 8394              		.loc 1 2942 3 view .LVU2715
 8395              		.loc 1 2942 15 is_stmt 0 view .LVU2716
 8396 0000 406C     		ldr	r0, [r0, #68]
 8397              	.LVL777:
 8398              		.loc 1 2943 1 view .LVU2717
 8399 0002 7047     		bx	lr
 8400              		.cfi_endproc
 8401              	.LFE107:
 8403              		.section	.text.UART_Start_Receive_IT,"ax",%progbits
 8404              		.align	1
 8405              		.global	UART_Start_Receive_IT
 8406              		.syntax unified
 8407              		.thumb
 8408              		.thumb_func
 8409              		.fpu softvfp
 8411              	UART_Start_Receive_IT:
 8412              	.LVL778:
 8413              	.LFB114:
 8414              		.loc 1 3222 1 is_stmt 1 view -0
 8415              		.cfi_startproc
 8416              		@ args = 0, pretend = 0, frame = 0
 8417              		@ frame_needed = 0, uses_anonymous_args = 0
 8418              		@ link register save eliminated.
 8419              		.loc 1 3223 3 view .LVU2719
 8420              		.loc 1 3223 21 is_stmt 0 view .LVU2720
 8421 0000 8162     		str	r1, [r0, #40]
 8422              		.loc 1 3224 3 is_stmt 1 view .LVU2721
 8423              		.loc 1 3224 21 is_stmt 0 view .LVU2722
 8424 0002 8285     		strh	r2, [r0, #44]	@ movhi
 8425              		.loc 1 3225 3 is_stmt 1 view .LVU2723
 8426              		.loc 1 3225 22 is_stmt 0 view .LVU2724
 8427 0004 C285     		strh	r2, [r0, #46]	@ movhi
 8428              		.loc 1 3227 3 is_stmt 1 view .LVU2725
 8429              		.loc 1 3227 20 is_stmt 0 view .LVU2726
 8430 0006 0023     		movs	r3, #0
 8431 0008 4364     		str	r3, [r0, #68]
 8432              		.loc 1 3228 3 is_stmt 1 view .LVU2727
 8433              		.loc 1 3228 18 is_stmt 0 view .LVU2728
ARM GAS  C:\Users\HP\AppData\Local\Temp\cc3vbRST.s 			page 147


 8434 000a 2223     		movs	r3, #34
 8435 000c 80F84230 		strb	r3, [r0, #66]
 8436              		.loc 1 3230 3 is_stmt 1 view .LVU2729
 8437              		.loc 1 3230 18 is_stmt 0 view .LVU2730
 8438 0010 0369     		ldr	r3, [r0, #16]
 8439              		.loc 1 3230 6 view .LVU2731
 8440 0012 23B1     		cbz	r3, .L444
 8441              		.loc 1 3233 5 is_stmt 1 view .LVU2732
 8442 0014 0268     		ldr	r2, [r0]
 8443              	.LVL779:
 8444              		.loc 1 3233 5 is_stmt 0 view .LVU2733
 8445 0016 D368     		ldr	r3, [r2, #12]
 8446 0018 43F48073 		orr	r3, r3, #256
 8447 001c D360     		str	r3, [r2, #12]
 8448              	.LVL780:
 8449              	.L444:
 8450              		.loc 1 3237 3 is_stmt 1 view .LVU2734
 8451 001e 0268     		ldr	r2, [r0]
 8452 0020 5369     		ldr	r3, [r2, #20]
 8453 0022 43F00103 		orr	r3, r3, #1
 8454 0026 5361     		str	r3, [r2, #20]
 8455              		.loc 1 3240 3 view .LVU2735
 8456 0028 0268     		ldr	r2, [r0]
 8457 002a D368     		ldr	r3, [r2, #12]
 8458 002c 43F02003 		orr	r3, r3, #32
 8459 0030 D360     		str	r3, [r2, #12]
 8460              		.loc 1 3242 3 view .LVU2736
 8461              		.loc 1 3243 1 is_stmt 0 view .LVU2737
 8462 0032 0020     		movs	r0, #0
 8463              	.LVL781:
 8464              		.loc 1 3243 1 view .LVU2738
 8465 0034 7047     		bx	lr
 8466              		.cfi_endproc
 8467              	.LFE114:
 8469              		.section	.text.HAL_UART_Receive_IT,"ax",%progbits
 8470              		.align	1
 8471              		.global	HAL_UART_Receive_IT
 8472              		.syntax unified
 8473              		.thumb
 8474              		.thumb_func
 8475              		.fpu softvfp
 8477              	HAL_UART_Receive_IT:
 8478              	.LVL782:
 8479              	.LFB75:
 8480              		.loc 1 1345 1 is_stmt 1 view -0
 8481              		.cfi_startproc
 8482              		@ args = 0, pretend = 0, frame = 0
 8483              		@ frame_needed = 0, uses_anonymous_args = 0
 8484              		.loc 1 1345 1 is_stmt 0 view .LVU2740
 8485 0000 08B5     		push	{r3, lr}
 8486              	.LCFI55:
 8487              		.cfi_def_cfa_offset 8
 8488              		.cfi_offset 3, -8
 8489              		.cfi_offset 14, -4
 8490              		.loc 1 1347 3 is_stmt 1 view .LVU2741
 8491              		.loc 1 1347 12 is_stmt 0 view .LVU2742
 8492 0002 90F84230 		ldrb	r3, [r0, #66]	@ zero_extendqisi2
ARM GAS  C:\Users\HP\AppData\Local\Temp\cc3vbRST.s 			page 148


 8493 0006 DBB2     		uxtb	r3, r3
 8494              		.loc 1 1347 6 view .LVU2743
 8495 0008 202B     		cmp	r3, #32
 8496 000a 08D1     		bne	.L447
 8497              		.loc 1 1349 5 is_stmt 1 view .LVU2744
 8498              		.loc 1 1349 8 is_stmt 0 view .LVU2745
 8499 000c 49B1     		cbz	r1, .L448
 8500              		.loc 1 1349 25 discriminator 1 view .LVU2746
 8501 000e 0AB9     		cbnz	r2, .L451
 8502              		.loc 1 1351 14 view .LVU2747
 8503 0010 0120     		movs	r0, #1
 8504              	.LVL783:
 8505              	.L446:
 8506              		.loc 1 1363 1 view .LVU2748
 8507 0012 08BD     		pop	{r3, pc}
 8508              	.LVL784:
 8509              	.L451:
 8510              		.loc 1 1355 5 is_stmt 1 view .LVU2749
 8511              		.loc 1 1355 26 is_stmt 0 view .LVU2750
 8512 0014 0023     		movs	r3, #0
 8513 0016 0363     		str	r3, [r0, #48]
 8514              		.loc 1 1357 5 is_stmt 1 view .LVU2751
 8515              		.loc 1 1357 13 is_stmt 0 view .LVU2752
 8516 0018 034B     		ldr	r3, .L452
 8517 001a 9847     		blx	r3
 8518              	.LVL785:
 8519              		.loc 1 1357 13 view .LVU2753
 8520 001c F9E7     		b	.L446
 8521              	.LVL786:
 8522              	.L447:
 8523              		.loc 1 1361 12 view .LVU2754
 8524 001e 0220     		movs	r0, #2
 8525              	.LVL787:
 8526              		.loc 1 1361 12 view .LVU2755
 8527 0020 F7E7     		b	.L446
 8528              	.LVL788:
 8529              	.L448:
 8530              		.loc 1 1351 14 view .LVU2756
 8531 0022 0120     		movs	r0, #1
 8532              	.LVL789:
 8533              		.loc 1 1351 14 view .LVU2757
 8534 0024 F5E7     		b	.L446
 8535              	.L453:
 8536 0026 00BF     		.align	2
 8537              	.L452:
 8538 0028 00000000 		.word	UART_Start_Receive_IT
 8539              		.cfi_endproc
 8540              	.LFE75:
 8542              		.section	.text.HAL_UARTEx_ReceiveToIdle_IT,"ax",%progbits
 8543              		.align	1
 8544              		.global	HAL_UARTEx_ReceiveToIdle_IT
 8545              		.syntax unified
 8546              		.thumb
 8547              		.thumb_func
 8548              		.fpu softvfp
 8550              	HAL_UARTEx_ReceiveToIdle_IT:
 8551              	.LVL790:
ARM GAS  C:\Users\HP\AppData\Local\Temp\cc3vbRST.s 			page 149


 8552              	.LFB82:
 8553              		.loc 1 1711 1 is_stmt 1 view -0
 8554              		.cfi_startproc
 8555              		@ args = 0, pretend = 0, frame = 8
 8556              		@ frame_needed = 0, uses_anonymous_args = 0
 8557              		.loc 1 1712 3 view .LVU2759
 8558              		.loc 1 1715 3 view .LVU2760
 8559              		.loc 1 1715 12 is_stmt 0 view .LVU2761
 8560 0000 90F84230 		ldrb	r3, [r0, #66]	@ zero_extendqisi2
 8561 0004 DBB2     		uxtb	r3, r3
 8562              		.loc 1 1715 6 view .LVU2762
 8563 0006 202B     		cmp	r3, #32
 8564 0008 29D1     		bne	.L458
 8565              		.loc 1 1711 1 view .LVU2763
 8566 000a 10B5     		push	{r4, lr}
 8567              	.LCFI56:
 8568              		.cfi_def_cfa_offset 8
 8569              		.cfi_offset 4, -8
 8570              		.cfi_offset 14, -4
 8571 000c 82B0     		sub	sp, sp, #8
 8572              	.LCFI57:
 8573              		.cfi_def_cfa_offset 16
 8574 000e 0446     		mov	r4, r0
 8575              		.loc 1 1717 5 is_stmt 1 view .LVU2764
 8576              		.loc 1 1717 8 is_stmt 0 view .LVU2765
 8577 0010 39B3     		cbz	r1, .L459
 8578              		.loc 1 1717 25 discriminator 1 view .LVU2766
 8579 0012 12B9     		cbnz	r2, .L466
 8580              		.loc 1 1719 14 view .LVU2767
 8581 0014 0120     		movs	r0, #1
 8582              	.LVL791:
 8583              	.L455:
 8584              		.loc 1 1752 1 view .LVU2768
 8585 0016 02B0     		add	sp, sp, #8
 8586              	.LCFI58:
 8587              		.cfi_remember_state
 8588              		.cfi_def_cfa_offset 8
 8589              		@ sp needed
 8590 0018 10BD     		pop	{r4, pc}
 8591              	.LVL792:
 8592              	.L466:
 8593              	.LCFI59:
 8594              		.cfi_restore_state
 8595              		.loc 1 1723 5 is_stmt 1 view .LVU2769
 8596              		.loc 1 1723 26 is_stmt 0 view .LVU2770
 8597 001a 0123     		movs	r3, #1
 8598 001c 0363     		str	r3, [r0, #48]
 8599              		.loc 1 1724 5 is_stmt 1 view .LVU2771
 8600              		.loc 1 1724 24 is_stmt 0 view .LVU2772
 8601 001e 0023     		movs	r3, #0
 8602 0020 4363     		str	r3, [r0, #52]
 8603              		.loc 1 1726 5 is_stmt 1 view .LVU2773
 8604              		.loc 1 1726 15 is_stmt 0 view .LVU2774
 8605 0022 114B     		ldr	r3, .L468
 8606 0024 9847     		blx	r3
 8607              	.LVL793:
 8608              		.loc 1 1729 5 is_stmt 1 view .LVU2775
ARM GAS  C:\Users\HP\AppData\Local\Temp\cc3vbRST.s 			page 150


 8609              		.loc 1 1729 8 is_stmt 0 view .LVU2776
 8610 0026 0028     		cmp	r0, #0
 8611 0028 F5D1     		bne	.L455
 8612              		.loc 1 1731 7 is_stmt 1 view .LVU2777
 8613              		.loc 1 1731 16 is_stmt 0 view .LVU2778
 8614 002a 236B     		ldr	r3, [r4, #48]
 8615              		.loc 1 1731 10 view .LVU2779
 8616 002c 012B     		cmp	r3, #1
 8617 002e 01D0     		beq	.L467
 8618              		.loc 1 1742 16 view .LVU2780
 8619 0030 0120     		movs	r0, #1
 8620              	.LVL794:
 8621              		.loc 1 1746 5 is_stmt 1 view .LVU2781
 8622              		.loc 1 1746 12 is_stmt 0 view .LVU2782
 8623 0032 F0E7     		b	.L455
 8624              	.LVL795:
 8625              	.L467:
 8626              		.loc 1 1733 9 is_stmt 1 view .LVU2783
 8627              	.LBB612:
 8628              		.loc 1 1733 9 view .LVU2784
 8629 0034 0023     		movs	r3, #0
 8630 0036 0193     		str	r3, [sp, #4]
 8631              		.loc 1 1733 9 view .LVU2785
 8632 0038 2368     		ldr	r3, [r4]
 8633 003a 1A68     		ldr	r2, [r3]
 8634 003c 0192     		str	r2, [sp, #4]
 8635              		.loc 1 1733 9 view .LVU2786
 8636 003e 5B68     		ldr	r3, [r3, #4]
 8637 0040 0193     		str	r3, [sp, #4]
 8638              		.loc 1 1733 9 view .LVU2787
 8639 0042 019B     		ldr	r3, [sp, #4]
 8640              	.L457:
 8641              	.LBE612:
 8642              		.loc 1 1733 9 discriminator 1 view .LVU2788
 8643              		.loc 1 1734 9 discriminator 1 view .LVU2789
 8644              	.LBB613:
 8645              		.loc 1 1734 9 discriminator 1 view .LVU2790
 8646              		.loc 1 1734 9 discriminator 1 view .LVU2791
 8647              		.loc 1 1734 9 discriminator 1 view .LVU2792
 8648 0044 2268     		ldr	r2, [r4]
 8649              	.LVL796:
 8650              	.LBB614:
 8651              	.LBI614:
 8652              		.loc 2 1068 31 discriminator 1 view .LVU2793
 8653              	.LBB615:
 8654              		.loc 2 1070 5 discriminator 1 view .LVU2794
 8655              		.loc 2 1072 4 discriminator 1 view .LVU2795
 8656 0046 02F10C03 		add	r3, r2, #12
 8657              	.LVL797:
 8658              		.loc 2 1072 4 is_stmt 0 discriminator 1 view .LVU2796
 8659              		.syntax unified
 8660              	@ 1072 "Drivers/CMSIS/Include/cmsis_gcc.h" 1
 8661 004a 53E8003F 		ldrex r3, [r3]
 8662              	@ 0 "" 2
 8663              	.LVL798:
 8664              		.loc 2 1073 4 is_stmt 1 discriminator 1 view .LVU2797
 8665              		.loc 2 1073 4 is_stmt 0 discriminator 1 view .LVU2798
ARM GAS  C:\Users\HP\AppData\Local\Temp\cc3vbRST.s 			page 151


 8666              		.thumb
 8667              		.syntax unified
 8668              	.LBE615:
 8669              	.LBE614:
 8670              		.loc 1 1734 9 discriminator 1 view .LVU2799
 8671 004e 43F01003 		orr	r3, r3, #16
 8672              	.LVL799:
 8673              		.loc 1 1734 9 is_stmt 1 discriminator 1 view .LVU2800
 8674              	.LBB616:
 8675              	.LBI616:
 8676              		.loc 2 1119 31 discriminator 1 view .LVU2801
 8677              	.LBB617:
 8678              		.loc 2 1121 4 discriminator 1 view .LVU2802
 8679              		.loc 2 1123 4 discriminator 1 view .LVU2803
 8680 0052 0C32     		adds	r2, r2, #12
 8681              	.LVL800:
 8682              		.loc 2 1123 4 is_stmt 0 discriminator 1 view .LVU2804
 8683              		.syntax unified
 8684              	@ 1123 "Drivers/CMSIS/Include/cmsis_gcc.h" 1
 8685 0054 42E80031 		strex r1, r3, [r2]
 8686              	@ 0 "" 2
 8687              	.LVL801:
 8688              		.loc 2 1124 4 is_stmt 1 discriminator 1 view .LVU2805
 8689              		.loc 2 1124 4 is_stmt 0 discriminator 1 view .LVU2806
 8690              		.thumb
 8691              		.syntax unified
 8692              	.LBE617:
 8693              	.LBE616:
 8694              		.loc 1 1734 9 discriminator 1 view .LVU2807
 8695 0058 0029     		cmp	r1, #0
 8696 005a F3D1     		bne	.L457
 8697 005c DBE7     		b	.L455
 8698              	.LVL802:
 8699              	.L458:
 8700              	.LCFI60:
 8701              		.cfi_def_cfa_offset 0
 8702              		.cfi_restore 4
 8703              		.cfi_restore 14
 8704              		.loc 1 1734 9 discriminator 1 view .LVU2808
 8705              	.LBE613:
 8706              		.loc 1 1750 12 view .LVU2809
 8707 005e 0220     		movs	r0, #2
 8708              	.LVL803:
 8709              		.loc 1 1752 1 view .LVU2810
 8710 0060 7047     		bx	lr
 8711              	.LVL804:
 8712              	.L459:
 8713              	.LCFI61:
 8714              		.cfi_def_cfa_offset 16
 8715              		.cfi_offset 4, -8
 8716              		.cfi_offset 14, -4
 8717              		.loc 1 1719 14 view .LVU2811
 8718 0062 0120     		movs	r0, #1
 8719              	.LVL805:
 8720              		.loc 1 1719 14 view .LVU2812
 8721 0064 D7E7     		b	.L455
 8722              	.L469:
ARM GAS  C:\Users\HP\AppData\Local\Temp\cc3vbRST.s 			page 152


 8723 0066 00BF     		.align	2
 8724              	.L468:
 8725 0068 00000000 		.word	UART_Start_Receive_IT
 8726              		.cfi_endproc
 8727              	.LFE82:
 8729              		.section	.text.UART_Start_Receive_DMA,"ax",%progbits
 8730              		.align	1
 8731              		.global	UART_Start_Receive_DMA
 8732              		.syntax unified
 8733              		.thumb
 8734              		.thumb_func
 8735              		.fpu softvfp
 8737              	UART_Start_Receive_DMA:
 8738              	.LVL806:
 8739              	.LFB115:
 8740              		.loc 1 3257 1 is_stmt 1 view -0
 8741              		.cfi_startproc
 8742              		@ args = 0, pretend = 0, frame = 8
 8743              		@ frame_needed = 0, uses_anonymous_args = 0
 8744              		.loc 1 3257 1 is_stmt 0 view .LVU2814
 8745 0000 70B5     		push	{r4, r5, r6, lr}
 8746              	.LCFI62:
 8747              		.cfi_def_cfa_offset 16
 8748              		.cfi_offset 4, -16
 8749              		.cfi_offset 5, -12
 8750              		.cfi_offset 6, -8
 8751              		.cfi_offset 14, -4
 8752 0002 82B0     		sub	sp, sp, #8
 8753              	.LCFI63:
 8754              		.cfi_def_cfa_offset 24
 8755 0004 0446     		mov	r4, r0
 8756 0006 1346     		mov	r3, r2
 8757              		.loc 1 3258 3 is_stmt 1 view .LVU2815
 8758              		.loc 1 3260 3 view .LVU2816
 8759              		.loc 1 3260 21 is_stmt 0 view .LVU2817
 8760 0008 8162     		str	r1, [r0, #40]
 8761              		.loc 1 3261 3 is_stmt 1 view .LVU2818
 8762              		.loc 1 3261 21 is_stmt 0 view .LVU2819
 8763 000a 8285     		strh	r2, [r0, #44]	@ movhi
 8764              		.loc 1 3263 3 is_stmt 1 view .LVU2820
 8765              		.loc 1 3263 20 is_stmt 0 view .LVU2821
 8766 000c 0025     		movs	r5, #0
 8767 000e 4564     		str	r5, [r0, #68]
 8768              		.loc 1 3264 3 is_stmt 1 view .LVU2822
 8769              		.loc 1 3264 18 is_stmt 0 view .LVU2823
 8770 0010 2222     		movs	r2, #34
 8771              	.LVL807:
 8772              		.loc 1 3264 18 view .LVU2824
 8773 0012 80F84220 		strb	r2, [r0, #66]
 8774              		.loc 1 3267 3 is_stmt 1 view .LVU2825
 8775              		.loc 1 3267 8 is_stmt 0 view .LVU2826
 8776 0016 C26B     		ldr	r2, [r0, #60]
 8777              		.loc 1 3267 35 view .LVU2827
 8778 0018 1F48     		ldr	r0, .L476
 8779              	.LVL808:
 8780              		.loc 1 3267 35 view .LVU2828
 8781 001a 9062     		str	r0, [r2, #40]
ARM GAS  C:\Users\HP\AppData\Local\Temp\cc3vbRST.s 			page 153


 8782              	.LVL809:
 8783              		.loc 1 3270 3 is_stmt 1 view .LVU2829
 8784              		.loc 1 3270 8 is_stmt 0 view .LVU2830
 8785 001c E26B     		ldr	r2, [r4, #60]
 8786              		.loc 1 3270 39 view .LVU2831
 8787 001e 1F48     		ldr	r0, .L476+4
 8788 0020 D062     		str	r0, [r2, #44]
 8789              		.loc 1 3273 3 is_stmt 1 view .LVU2832
 8790              		.loc 1 3273 8 is_stmt 0 view .LVU2833
 8791 0022 E26B     		ldr	r2, [r4, #60]
 8792              		.loc 1 3273 36 view .LVU2834
 8793 0024 1E48     		ldr	r0, .L476+8
 8794 0026 1063     		str	r0, [r2, #48]
 8795              		.loc 1 3276 3 is_stmt 1 view .LVU2835
 8796              		.loc 1 3276 8 is_stmt 0 view .LVU2836
 8797 0028 E26B     		ldr	r2, [r4, #60]
 8798              		.loc 1 3276 36 view .LVU2837
 8799 002a 5563     		str	r5, [r2, #52]
 8800              		.loc 1 3279 3 is_stmt 1 view .LVU2838
 8801              	.LVL810:
 8802              		.loc 1 3280 3 view .LVU2839
 8803              		.loc 1 3280 51 is_stmt 0 view .LVU2840
 8804 002c 2068     		ldr	r0, [r4]
 8805              		.loc 1 3280 3 view .LVU2841
 8806 002e 0A46     		mov	r2, r1
 8807 0030 011D     		adds	r1, r0, #4
 8808              	.LVL811:
 8809              		.loc 1 3280 3 view .LVU2842
 8810 0032 E06B     		ldr	r0, [r4, #60]
 8811 0034 1B4E     		ldr	r6, .L476+12
 8812 0036 B047     		blx	r6
 8813              	.LVL812:
 8814              		.loc 1 3283 3 is_stmt 1 view .LVU2843
 8815              	.LBB618:
 8816              		.loc 1 3283 3 view .LVU2844
 8817 0038 0195     		str	r5, [sp, #4]
 8818              		.loc 1 3283 3 view .LVU2845
 8819 003a 2368     		ldr	r3, [r4]
 8820 003c 1A68     		ldr	r2, [r3]
 8821 003e 0192     		str	r2, [sp, #4]
 8822              		.loc 1 3283 3 view .LVU2846
 8823 0040 5B68     		ldr	r3, [r3, #4]
 8824 0042 0193     		str	r3, [sp, #4]
 8825              		.loc 1 3283 3 view .LVU2847
 8826 0044 019B     		ldr	r3, [sp, #4]
 8827              	.LBE618:
 8828              		.loc 1 3283 3 view .LVU2848
 8829              		.loc 1 3285 3 view .LVU2849
 8830              		.loc 1 3285 18 is_stmt 0 view .LVU2850
 8831 0046 2369     		ldr	r3, [r4, #16]
 8832              		.loc 1 3285 6 view .LVU2851
 8833 0048 5BB1     		cbz	r3, .L473
 8834              	.L472:
 8835              		.loc 1 3288 5 is_stmt 1 discriminator 1 view .LVU2852
 8836              	.LBB619:
 8837              		.loc 1 3288 5 discriminator 1 view .LVU2853
 8838              		.loc 1 3288 5 discriminator 1 view .LVU2854
ARM GAS  C:\Users\HP\AppData\Local\Temp\cc3vbRST.s 			page 154


 8839              		.loc 1 3288 5 discriminator 1 view .LVU2855
 8840 004a 2268     		ldr	r2, [r4]
 8841              	.LVL813:
 8842              	.LBB620:
 8843              	.LBI620:
 8844              		.loc 2 1068 31 discriminator 1 view .LVU2856
 8845              	.LBB621:
 8846              		.loc 2 1070 5 discriminator 1 view .LVU2857
 8847              		.loc 2 1072 4 discriminator 1 view .LVU2858
 8848 004c 02F10C03 		add	r3, r2, #12
 8849              	.LVL814:
 8850              		.loc 2 1072 4 is_stmt 0 discriminator 1 view .LVU2859
 8851              		.syntax unified
 8852              	@ 1072 "Drivers/CMSIS/Include/cmsis_gcc.h" 1
 8853 0050 53E8003F 		ldrex r3, [r3]
 8854              	@ 0 "" 2
 8855              	.LVL815:
 8856              		.loc 2 1073 4 is_stmt 1 discriminator 1 view .LVU2860
 8857              		.loc 2 1073 4 is_stmt 0 discriminator 1 view .LVU2861
 8858              		.thumb
 8859              		.syntax unified
 8860              	.LBE621:
 8861              	.LBE620:
 8862              		.loc 1 3288 5 discriminator 1 view .LVU2862
 8863 0054 43F48073 		orr	r3, r3, #256
 8864              	.LVL816:
 8865              		.loc 1 3288 5 is_stmt 1 discriminator 1 view .LVU2863
 8866              	.LBB622:
 8867              	.LBI622:
 8868              		.loc 2 1119 31 discriminator 1 view .LVU2864
 8869              	.LBB623:
 8870              		.loc 2 1121 4 discriminator 1 view .LVU2865
 8871              		.loc 2 1123 4 discriminator 1 view .LVU2866
 8872 0058 0C32     		adds	r2, r2, #12
 8873              	.LVL817:
 8874              		.loc 2 1123 4 is_stmt 0 discriminator 1 view .LVU2867
 8875              		.syntax unified
 8876              	@ 1123 "Drivers/CMSIS/Include/cmsis_gcc.h" 1
 8877 005a 42E80031 		strex r1, r3, [r2]
 8878              	@ 0 "" 2
 8879              	.LVL818:
 8880              		.loc 2 1124 4 is_stmt 1 discriminator 1 view .LVU2868
 8881              		.loc 2 1124 4 is_stmt 0 discriminator 1 view .LVU2869
 8882              		.thumb
 8883              		.syntax unified
 8884              	.LBE623:
 8885              	.LBE622:
 8886              		.loc 1 3288 5 discriminator 1 view .LVU2870
 8887 005e 0029     		cmp	r1, #0
 8888 0060 F3D1     		bne	.L472
 8889              	.LVL819:
 8890              	.L473:
 8891              		.loc 1 3288 5 discriminator 1 view .LVU2871
 8892              	.LBE619:
 8893              		.loc 1 3288 5 is_stmt 1 discriminator 1 view .LVU2872
 8894              		.loc 1 3292 3 discriminator 1 view .LVU2873
 8895              	.LBB624:
ARM GAS  C:\Users\HP\AppData\Local\Temp\cc3vbRST.s 			page 155


 8896              		.loc 1 3292 3 discriminator 1 view .LVU2874
 8897              		.loc 1 3292 3 discriminator 1 view .LVU2875
 8898              		.loc 1 3292 3 discriminator 1 view .LVU2876
 8899 0062 2268     		ldr	r2, [r4]
 8900              	.LVL820:
 8901              	.LBB625:
 8902              	.LBI625:
 8903              		.loc 2 1068 31 discriminator 1 view .LVU2877
 8904              	.LBB626:
 8905              		.loc 2 1070 5 discriminator 1 view .LVU2878
 8906              		.loc 2 1072 4 discriminator 1 view .LVU2879
 8907 0064 02F11403 		add	r3, r2, #20
 8908              	.LVL821:
 8909              		.loc 2 1072 4 is_stmt 0 discriminator 1 view .LVU2880
 8910              		.syntax unified
 8911              	@ 1072 "Drivers/CMSIS/Include/cmsis_gcc.h" 1
 8912 0068 53E8003F 		ldrex r3, [r3]
 8913              	@ 0 "" 2
 8914              	.LVL822:
 8915              		.loc 2 1073 4 is_stmt 1 discriminator 1 view .LVU2881
 8916              		.loc 2 1073 4 is_stmt 0 discriminator 1 view .LVU2882
 8917              		.thumb
 8918              		.syntax unified
 8919              	.LBE626:
 8920              	.LBE625:
 8921              		.loc 1 3292 3 discriminator 1 view .LVU2883
 8922 006c 43F00103 		orr	r3, r3, #1
 8923              	.LVL823:
 8924              		.loc 1 3292 3 is_stmt 1 discriminator 1 view .LVU2884
 8925              	.LBB627:
 8926              	.LBI627:
 8927              		.loc 2 1119 31 discriminator 1 view .LVU2885
 8928              	.LBB628:
 8929              		.loc 2 1121 4 discriminator 1 view .LVU2886
 8930              		.loc 2 1123 4 discriminator 1 view .LVU2887
 8931 0070 1432     		adds	r2, r2, #20
 8932              	.LVL824:
 8933              		.loc 2 1123 4 is_stmt 0 discriminator 1 view .LVU2888
 8934              		.syntax unified
 8935              	@ 1123 "Drivers/CMSIS/Include/cmsis_gcc.h" 1
 8936 0072 42E80031 		strex r1, r3, [r2]
 8937              	@ 0 "" 2
 8938              	.LVL825:
 8939              		.loc 2 1124 4 is_stmt 1 discriminator 1 view .LVU2889
 8940              		.loc 2 1124 4 is_stmt 0 discriminator 1 view .LVU2890
 8941              		.thumb
 8942              		.syntax unified
 8943              	.LBE628:
 8944              	.LBE627:
 8945              		.loc 1 3292 3 discriminator 1 view .LVU2891
 8946 0076 0029     		cmp	r1, #0
 8947 0078 F3D1     		bne	.L473
 8948              	.LVL826:
 8949              	.L474:
 8950              		.loc 1 3292 3 discriminator 1 view .LVU2892
 8951              	.LBE624:
 8952              		.loc 1 3292 3 is_stmt 1 discriminator 1 view .LVU2893
ARM GAS  C:\Users\HP\AppData\Local\Temp\cc3vbRST.s 			page 156


 8953              		.loc 1 3296 3 discriminator 1 view .LVU2894
 8954              	.LBB629:
 8955              		.loc 1 3296 3 discriminator 1 view .LVU2895
 8956              		.loc 1 3296 3 discriminator 1 view .LVU2896
 8957              		.loc 1 3296 3 discriminator 1 view .LVU2897
 8958 007a 2268     		ldr	r2, [r4]
 8959              	.LVL827:
 8960              	.LBB630:
 8961              	.LBI630:
 8962              		.loc 2 1068 31 discriminator 1 view .LVU2898
 8963              	.LBB631:
 8964              		.loc 2 1070 5 discriminator 1 view .LVU2899
 8965              		.loc 2 1072 4 discriminator 1 view .LVU2900
 8966 007c 02F11403 		add	r3, r2, #20
 8967              	.LVL828:
 8968              		.loc 2 1072 4 is_stmt 0 discriminator 1 view .LVU2901
 8969              		.syntax unified
 8970              	@ 1072 "Drivers/CMSIS/Include/cmsis_gcc.h" 1
 8971 0080 53E8003F 		ldrex r3, [r3]
 8972              	@ 0 "" 2
 8973              	.LVL829:
 8974              		.loc 2 1073 4 is_stmt 1 discriminator 1 view .LVU2902
 8975              		.loc 2 1073 4 is_stmt 0 discriminator 1 view .LVU2903
 8976              		.thumb
 8977              		.syntax unified
 8978              	.LBE631:
 8979              	.LBE630:
 8980              		.loc 1 3296 3 discriminator 1 view .LVU2904
 8981 0084 43F04003 		orr	r3, r3, #64
 8982              	.LVL830:
 8983              		.loc 1 3296 3 is_stmt 1 discriminator 1 view .LVU2905
 8984              	.LBB632:
 8985              	.LBI632:
 8986              		.loc 2 1119 31 discriminator 1 view .LVU2906
 8987              	.LBB633:
 8988              		.loc 2 1121 4 discriminator 1 view .LVU2907
 8989              		.loc 2 1123 4 discriminator 1 view .LVU2908
 8990 0088 1432     		adds	r2, r2, #20
 8991              	.LVL831:
 8992              		.loc 2 1123 4 is_stmt 0 discriminator 1 view .LVU2909
 8993              		.syntax unified
 8994              	@ 1123 "Drivers/CMSIS/Include/cmsis_gcc.h" 1
 8995 008a 42E80031 		strex r1, r3, [r2]
 8996              	@ 0 "" 2
 8997              	.LVL832:
 8998              		.loc 2 1124 4 is_stmt 1 discriminator 1 view .LVU2910
 8999              		.loc 2 1124 4 is_stmt 0 discriminator 1 view .LVU2911
 9000              		.thumb
 9001              		.syntax unified
 9002              	.LBE633:
 9003              	.LBE632:
 9004              		.loc 1 3296 3 discriminator 1 view .LVU2912
 9005 008e 0029     		cmp	r1, #0
 9006 0090 F3D1     		bne	.L474
 9007              	.LBE629:
 9008              		.loc 1 3296 3 is_stmt 1 discriminator 2 view .LVU2913
 9009              		.loc 1 3298 3 discriminator 2 view .LVU2914
ARM GAS  C:\Users\HP\AppData\Local\Temp\cc3vbRST.s 			page 157


 9010              		.loc 1 3299 1 is_stmt 0 discriminator 2 view .LVU2915
 9011 0092 0020     		movs	r0, #0
 9012 0094 02B0     		add	sp, sp, #8
 9013              	.LCFI64:
 9014              		.cfi_def_cfa_offset 16
 9015              		@ sp needed
 9016 0096 70BD     		pop	{r4, r5, r6, pc}
 9017              	.LVL833:
 9018              	.L477:
 9019              		.loc 1 3299 1 discriminator 2 view .LVU2916
 9020              		.align	2
 9021              	.L476:
 9022 0098 00000000 		.word	UART_DMAReceiveCplt
 9023 009c 00000000 		.word	UART_DMARxHalfCplt
 9024 00a0 00000000 		.word	UART_DMAError
 9025 00a4 00000000 		.word	HAL_DMA_Start_IT
 9026              		.cfi_endproc
 9027              	.LFE115:
 9029              		.section	.text.HAL_UART_Receive_DMA,"ax",%progbits
 9030              		.align	1
 9031              		.global	HAL_UART_Receive_DMA
 9032              		.syntax unified
 9033              		.thumb
 9034              		.thumb_func
 9035              		.fpu softvfp
 9037              	HAL_UART_Receive_DMA:
 9038              	.LVL834:
 9039              	.LFB77:
 9040              		.loc 1 1439 1 is_stmt 1 view -0
 9041              		.cfi_startproc
 9042              		@ args = 0, pretend = 0, frame = 0
 9043              		@ frame_needed = 0, uses_anonymous_args = 0
 9044              		.loc 1 1439 1 is_stmt 0 view .LVU2918
 9045 0000 08B5     		push	{r3, lr}
 9046              	.LCFI65:
 9047              		.cfi_def_cfa_offset 8
 9048              		.cfi_offset 3, -8
 9049              		.cfi_offset 14, -4
 9050              		.loc 1 1441 3 is_stmt 1 view .LVU2919
 9051              		.loc 1 1441 12 is_stmt 0 view .LVU2920
 9052 0002 90F84230 		ldrb	r3, [r0, #66]	@ zero_extendqisi2
 9053 0006 DBB2     		uxtb	r3, r3
 9054              		.loc 1 1441 6 view .LVU2921
 9055 0008 202B     		cmp	r3, #32
 9056 000a 08D1     		bne	.L480
 9057              		.loc 1 1443 5 is_stmt 1 view .LVU2922
 9058              		.loc 1 1443 8 is_stmt 0 view .LVU2923
 9059 000c 49B1     		cbz	r1, .L481
 9060              		.loc 1 1443 25 discriminator 1 view .LVU2924
 9061 000e 0AB9     		cbnz	r2, .L484
 9062              		.loc 1 1445 14 view .LVU2925
 9063 0010 0120     		movs	r0, #1
 9064              	.LVL835:
 9065              	.L479:
 9066              		.loc 1 1457 1 view .LVU2926
 9067 0012 08BD     		pop	{r3, pc}
 9068              	.LVL836:
ARM GAS  C:\Users\HP\AppData\Local\Temp\cc3vbRST.s 			page 158


 9069              	.L484:
 9070              		.loc 1 1449 5 is_stmt 1 view .LVU2927
 9071              		.loc 1 1449 26 is_stmt 0 view .LVU2928
 9072 0014 0023     		movs	r3, #0
 9073 0016 0363     		str	r3, [r0, #48]
 9074              		.loc 1 1451 5 is_stmt 1 view .LVU2929
 9075              		.loc 1 1451 13 is_stmt 0 view .LVU2930
 9076 0018 034B     		ldr	r3, .L485
 9077 001a 9847     		blx	r3
 9078              	.LVL837:
 9079              		.loc 1 1451 13 view .LVU2931
 9080 001c F9E7     		b	.L479
 9081              	.LVL838:
 9082              	.L480:
 9083              		.loc 1 1455 12 view .LVU2932
 9084 001e 0220     		movs	r0, #2
 9085              	.LVL839:
 9086              		.loc 1 1455 12 view .LVU2933
 9087 0020 F7E7     		b	.L479
 9088              	.LVL840:
 9089              	.L481:
 9090              		.loc 1 1445 14 view .LVU2934
 9091 0022 0120     		movs	r0, #1
 9092              	.LVL841:
 9093              		.loc 1 1445 14 view .LVU2935
 9094 0024 F5E7     		b	.L479
 9095              	.L486:
 9096 0026 00BF     		.align	2
 9097              	.L485:
 9098 0028 00000000 		.word	UART_Start_Receive_DMA
 9099              		.cfi_endproc
 9100              	.LFE77:
 9102              		.section	.text.HAL_UARTEx_ReceiveToIdle_DMA,"ax",%progbits
 9103              		.align	1
 9104              		.global	HAL_UARTEx_ReceiveToIdle_DMA
 9105              		.syntax unified
 9106              		.thumb
 9107              		.thumb_func
 9108              		.fpu softvfp
 9110              	HAL_UARTEx_ReceiveToIdle_DMA:
 9111              	.LVL842:
 9112              	.LFB83:
 9113              		.loc 1 1771 1 is_stmt 1 view -0
 9114              		.cfi_startproc
 9115              		@ args = 0, pretend = 0, frame = 8
 9116              		@ frame_needed = 0, uses_anonymous_args = 0
 9117              		.loc 1 1772 3 view .LVU2937
 9118              		.loc 1 1775 3 view .LVU2938
 9119              		.loc 1 1775 12 is_stmt 0 view .LVU2939
 9120 0000 90F84230 		ldrb	r3, [r0, #66]	@ zero_extendqisi2
 9121 0004 DBB2     		uxtb	r3, r3
 9122              		.loc 1 1775 6 view .LVU2940
 9123 0006 202B     		cmp	r3, #32
 9124 0008 29D1     		bne	.L491
 9125              		.loc 1 1771 1 view .LVU2941
 9126 000a 10B5     		push	{r4, lr}
 9127              	.LCFI66:
ARM GAS  C:\Users\HP\AppData\Local\Temp\cc3vbRST.s 			page 159


 9128              		.cfi_def_cfa_offset 8
 9129              		.cfi_offset 4, -8
 9130              		.cfi_offset 14, -4
 9131 000c 82B0     		sub	sp, sp, #8
 9132              	.LCFI67:
 9133              		.cfi_def_cfa_offset 16
 9134 000e 0446     		mov	r4, r0
 9135              		.loc 1 1777 5 is_stmt 1 view .LVU2942
 9136              		.loc 1 1777 8 is_stmt 0 view .LVU2943
 9137 0010 39B3     		cbz	r1, .L492
 9138              		.loc 1 1777 25 discriminator 1 view .LVU2944
 9139 0012 12B9     		cbnz	r2, .L499
 9140              		.loc 1 1779 14 view .LVU2945
 9141 0014 0120     		movs	r0, #1
 9142              	.LVL843:
 9143              	.L488:
 9144              		.loc 1 1812 1 view .LVU2946
 9145 0016 02B0     		add	sp, sp, #8
 9146              	.LCFI68:
 9147              		.cfi_remember_state
 9148              		.cfi_def_cfa_offset 8
 9149              		@ sp needed
 9150 0018 10BD     		pop	{r4, pc}
 9151              	.LVL844:
 9152              	.L499:
 9153              	.LCFI69:
 9154              		.cfi_restore_state
 9155              		.loc 1 1783 5 is_stmt 1 view .LVU2947
 9156              		.loc 1 1783 26 is_stmt 0 view .LVU2948
 9157 001a 0123     		movs	r3, #1
 9158 001c 0363     		str	r3, [r0, #48]
 9159              		.loc 1 1784 5 is_stmt 1 view .LVU2949
 9160              		.loc 1 1784 24 is_stmt 0 view .LVU2950
 9161 001e 0023     		movs	r3, #0
 9162 0020 4363     		str	r3, [r0, #52]
 9163              		.loc 1 1786 5 is_stmt 1 view .LVU2951
 9164              		.loc 1 1786 15 is_stmt 0 view .LVU2952
 9165 0022 114B     		ldr	r3, .L501
 9166 0024 9847     		blx	r3
 9167              	.LVL845:
 9168              		.loc 1 1789 5 is_stmt 1 view .LVU2953
 9169              		.loc 1 1789 8 is_stmt 0 view .LVU2954
 9170 0026 0028     		cmp	r0, #0
 9171 0028 F5D1     		bne	.L488
 9172              		.loc 1 1791 7 is_stmt 1 view .LVU2955
 9173              		.loc 1 1791 16 is_stmt 0 view .LVU2956
 9174 002a 236B     		ldr	r3, [r4, #48]
 9175              		.loc 1 1791 10 view .LVU2957
 9176 002c 012B     		cmp	r3, #1
 9177 002e 01D0     		beq	.L500
 9178              		.loc 1 1802 16 view .LVU2958
 9179 0030 0120     		movs	r0, #1
 9180              	.LVL846:
 9181              		.loc 1 1806 5 is_stmt 1 view .LVU2959
 9182              		.loc 1 1806 12 is_stmt 0 view .LVU2960
 9183 0032 F0E7     		b	.L488
 9184              	.LVL847:
ARM GAS  C:\Users\HP\AppData\Local\Temp\cc3vbRST.s 			page 160


 9185              	.L500:
 9186              		.loc 1 1793 9 is_stmt 1 view .LVU2961
 9187              	.LBB634:
 9188              		.loc 1 1793 9 view .LVU2962
 9189 0034 0023     		movs	r3, #0
 9190 0036 0193     		str	r3, [sp, #4]
 9191              		.loc 1 1793 9 view .LVU2963
 9192 0038 2368     		ldr	r3, [r4]
 9193 003a 1A68     		ldr	r2, [r3]
 9194 003c 0192     		str	r2, [sp, #4]
 9195              		.loc 1 1793 9 view .LVU2964
 9196 003e 5B68     		ldr	r3, [r3, #4]
 9197 0040 0193     		str	r3, [sp, #4]
 9198              		.loc 1 1793 9 view .LVU2965
 9199 0042 019B     		ldr	r3, [sp, #4]
 9200              	.L490:
 9201              	.LBE634:
 9202              		.loc 1 1793 9 discriminator 1 view .LVU2966
 9203              		.loc 1 1794 9 discriminator 1 view .LVU2967
 9204              	.LBB635:
 9205              		.loc 1 1794 9 discriminator 1 view .LVU2968
 9206              		.loc 1 1794 9 discriminator 1 view .LVU2969
 9207              		.loc 1 1794 9 discriminator 1 view .LVU2970
 9208 0044 2268     		ldr	r2, [r4]
 9209              	.LVL848:
 9210              	.LBB636:
 9211              	.LBI636:
 9212              		.loc 2 1068 31 discriminator 1 view .LVU2971
 9213              	.LBB637:
 9214              		.loc 2 1070 5 discriminator 1 view .LVU2972
 9215              		.loc 2 1072 4 discriminator 1 view .LVU2973
 9216 0046 02F10C03 		add	r3, r2, #12
 9217              	.LVL849:
 9218              		.loc 2 1072 4 is_stmt 0 discriminator 1 view .LVU2974
 9219              		.syntax unified
 9220              	@ 1072 "Drivers/CMSIS/Include/cmsis_gcc.h" 1
 9221 004a 53E8003F 		ldrex r3, [r3]
 9222              	@ 0 "" 2
 9223              	.LVL850:
 9224              		.loc 2 1073 4 is_stmt 1 discriminator 1 view .LVU2975
 9225              		.loc 2 1073 4 is_stmt 0 discriminator 1 view .LVU2976
 9226              		.thumb
 9227              		.syntax unified
 9228              	.LBE637:
 9229              	.LBE636:
 9230              		.loc 1 1794 9 discriminator 1 view .LVU2977
 9231 004e 43F01003 		orr	r3, r3, #16
 9232              	.LVL851:
 9233              		.loc 1 1794 9 is_stmt 1 discriminator 1 view .LVU2978
 9234              	.LBB638:
 9235              	.LBI638:
 9236              		.loc 2 1119 31 discriminator 1 view .LVU2979
 9237              	.LBB639:
 9238              		.loc 2 1121 4 discriminator 1 view .LVU2980
 9239              		.loc 2 1123 4 discriminator 1 view .LVU2981
 9240 0052 0C32     		adds	r2, r2, #12
 9241              	.LVL852:
ARM GAS  C:\Users\HP\AppData\Local\Temp\cc3vbRST.s 			page 161


 9242              		.loc 2 1123 4 is_stmt 0 discriminator 1 view .LVU2982
 9243              		.syntax unified
 9244              	@ 1123 "Drivers/CMSIS/Include/cmsis_gcc.h" 1
 9245 0054 42E80031 		strex r1, r3, [r2]
 9246              	@ 0 "" 2
 9247              	.LVL853:
 9248              		.loc 2 1124 4 is_stmt 1 discriminator 1 view .LVU2983
 9249              		.loc 2 1124 4 is_stmt 0 discriminator 1 view .LVU2984
 9250              		.thumb
 9251              		.syntax unified
 9252              	.LBE639:
 9253              	.LBE638:
 9254              		.loc 1 1794 9 discriminator 1 view .LVU2985
 9255 0058 0029     		cmp	r1, #0
 9256 005a F3D1     		bne	.L490
 9257 005c DBE7     		b	.L488
 9258              	.LVL854:
 9259              	.L491:
 9260              	.LCFI70:
 9261              		.cfi_def_cfa_offset 0
 9262              		.cfi_restore 4
 9263              		.cfi_restore 14
 9264              		.loc 1 1794 9 discriminator 1 view .LVU2986
 9265              	.LBE635:
 9266              		.loc 1 1810 12 view .LVU2987
 9267 005e 0220     		movs	r0, #2
 9268              	.LVL855:
 9269              		.loc 1 1812 1 view .LVU2988
 9270 0060 7047     		bx	lr
 9271              	.LVL856:
 9272              	.L492:
 9273              	.LCFI71:
 9274              		.cfi_def_cfa_offset 16
 9275              		.cfi_offset 4, -8
 9276              		.cfi_offset 14, -4
 9277              		.loc 1 1779 14 view .LVU2989
 9278 0062 0120     		movs	r0, #1
 9279              	.LVL857:
 9280              		.loc 1 1779 14 view .LVU2990
 9281 0064 D7E7     		b	.L488
 9282              	.L502:
 9283 0066 00BF     		.align	2
 9284              	.L501:
 9285 0068 00000000 		.word	UART_Start_Receive_DMA
 9286              		.cfi_endproc
 9287              	.LFE83:
 9289              		.text
 9290              	.Letext0:
 9291              		.file 3 "../d:\\program files\\gnu mcu\\arm-none-eabi-gcc-10.2.1-1.1\\arm-none-eabi\\include\\mach
 9292              		.file 4 "../d:\\program files\\gnu mcu\\arm-none-eabi-gcc-10.2.1-1.1\\arm-none-eabi\\include\\sys\
 9293              		.file 5 "../Drivers/CMSIS/Device/ST/STM32F1xx/Include/stm32f103x6.h"
 9294              		.file 6 "../Drivers/CMSIS/Device/ST/STM32F1xx/Include/stm32f1xx.h"
 9295              		.file 7 "../Drivers/STM32F1xx_HAL_Driver/Inc/stm32f1xx_hal_def.h"
 9296              		.file 8 "../Drivers/STM32F1xx_HAL_Driver/Inc/stm32f1xx_hal_dma.h"
 9297              		.file 9 "../Drivers/STM32F1xx_HAL_Driver/Inc/stm32f1xx_hal_uart.h"
 9298              		.file 10 "../Drivers/STM32F1xx_HAL_Driver/Inc/stm32f1xx_hal_rcc.h"
 9299              		.file 11 "../Drivers/STM32F1xx_HAL_Driver/Inc/stm32f1xx_hal.h"
ARM GAS  C:\Users\HP\AppData\Local\Temp\cc3vbRST.s 			page 162


ARM GAS  C:\Users\HP\AppData\Local\Temp\cc3vbRST.s 			page 163


DEFINED SYMBOLS
                            *ABS*:0000000000000000 stm32f1xx_hal_uart.c
C:\Users\HP\AppData\Local\Temp\cc3vbRST.s:16     .text.UART_EndTxTransfer:0000000000000000 $t
C:\Users\HP\AppData\Local\Temp\cc3vbRST.s:23     .text.UART_EndTxTransfer:0000000000000000 UART_EndTxTransfer
C:\Users\HP\AppData\Local\Temp\cc3vbRST.s:102    .text.UART_EndRxTransfer:0000000000000000 $t
C:\Users\HP\AppData\Local\Temp\cc3vbRST.s:108    .text.UART_EndRxTransfer:0000000000000000 UART_EndRxTransfer
C:\Users\HP\AppData\Local\Temp\cc3vbRST.s:312    .text.UART_Transmit_IT:0000000000000000 $t
C:\Users\HP\AppData\Local\Temp\cc3vbRST.s:318    .text.UART_Transmit_IT:0000000000000000 UART_Transmit_IT
C:\Users\HP\AppData\Local\Temp\cc3vbRST.s:420    .text.UART_SetConfig:0000000000000000 $t
C:\Users\HP\AppData\Local\Temp\cc3vbRST.s:426    .text.UART_SetConfig:0000000000000000 UART_SetConfig
C:\Users\HP\AppData\Local\Temp\cc3vbRST.s:541    .text.UART_SetConfig:000000000000008c $d
C:\Users\HP\AppData\Local\Temp\cc3vbRST.s:549    .text.UART_WaitOnFlagUntilTimeout:0000000000000000 $t
C:\Users\HP\AppData\Local\Temp\cc3vbRST.s:555    .text.UART_WaitOnFlagUntilTimeout:0000000000000000 UART_WaitOnFlagUntilTimeout
C:\Users\HP\AppData\Local\Temp\cc3vbRST.s:756    .text.UART_WaitOnFlagUntilTimeout:0000000000000088 $d
C:\Users\HP\AppData\Local\Temp\cc3vbRST.s:761    .text.HAL_UART_MspInit:0000000000000000 $t
C:\Users\HP\AppData\Local\Temp\cc3vbRST.s:768    .text.HAL_UART_MspInit:0000000000000000 HAL_UART_MspInit
C:\Users\HP\AppData\Local\Temp\cc3vbRST.s:783    .text.HAL_UART_Init:0000000000000000 $t
C:\Users\HP\AppData\Local\Temp\cc3vbRST.s:790    .text.HAL_UART_Init:0000000000000000 HAL_UART_Init
C:\Users\HP\AppData\Local\Temp\cc3vbRST.s:888    .text.HAL_UART_Init:0000000000000060 $d
C:\Users\HP\AppData\Local\Temp\cc3vbRST.s:894    .text.HAL_HalfDuplex_Init:0000000000000000 $t
C:\Users\HP\AppData\Local\Temp\cc3vbRST.s:901    .text.HAL_HalfDuplex_Init:0000000000000000 HAL_HalfDuplex_Init
C:\Users\HP\AppData\Local\Temp\cc3vbRST.s:1004   .text.HAL_HalfDuplex_Init:000000000000006c $d
C:\Users\HP\AppData\Local\Temp\cc3vbRST.s:1010   .text.HAL_LIN_Init:0000000000000000 $t
C:\Users\HP\AppData\Local\Temp\cc3vbRST.s:1017   .text.HAL_LIN_Init:0000000000000000 HAL_LIN_Init
C:\Users\HP\AppData\Local\Temp\cc3vbRST.s:1139   .text.HAL_LIN_Init:0000000000000084 $d
C:\Users\HP\AppData\Local\Temp\cc3vbRST.s:1145   .text.HAL_MultiProcessor_Init:0000000000000000 $t
C:\Users\HP\AppData\Local\Temp\cc3vbRST.s:1152   .text.HAL_MultiProcessor_Init:0000000000000000 HAL_MultiProcessor_Init
C:\Users\HP\AppData\Local\Temp\cc3vbRST.s:1281   .text.HAL_MultiProcessor_Init:000000000000008c $d
C:\Users\HP\AppData\Local\Temp\cc3vbRST.s:1287   .text.HAL_UART_MspDeInit:0000000000000000 $t
C:\Users\HP\AppData\Local\Temp\cc3vbRST.s:1294   .text.HAL_UART_MspDeInit:0000000000000000 HAL_UART_MspDeInit
C:\Users\HP\AppData\Local\Temp\cc3vbRST.s:1309   .text.HAL_UART_DeInit:0000000000000000 $t
C:\Users\HP\AppData\Local\Temp\cc3vbRST.s:1316   .text.HAL_UART_DeInit:0000000000000000 HAL_UART_DeInit
C:\Users\HP\AppData\Local\Temp\cc3vbRST.s:1384   .text.HAL_UART_DeInit:0000000000000034 $d
C:\Users\HP\AppData\Local\Temp\cc3vbRST.s:1389   .text.HAL_UART_Transmit:0000000000000000 $t
C:\Users\HP\AppData\Local\Temp\cc3vbRST.s:1396   .text.HAL_UART_Transmit:0000000000000000 HAL_UART_Transmit
C:\Users\HP\AppData\Local\Temp\cc3vbRST.s:1612   .text.HAL_UART_Transmit:00000000000000c0 $d
C:\Users\HP\AppData\Local\Temp\cc3vbRST.s:1618   .text.HAL_UART_Receive:0000000000000000 $t
C:\Users\HP\AppData\Local\Temp\cc3vbRST.s:1625   .text.HAL_UART_Receive:0000000000000000 HAL_UART_Receive
C:\Users\HP\AppData\Local\Temp\cc3vbRST.s:1852   .text.HAL_UART_Receive:00000000000000cc $d
C:\Users\HP\AppData\Local\Temp\cc3vbRST.s:1858   .text.HAL_UART_Transmit_IT:0000000000000000 $t
C:\Users\HP\AppData\Local\Temp\cc3vbRST.s:1865   .text.HAL_UART_Transmit_IT:0000000000000000 HAL_UART_Transmit_IT
C:\Users\HP\AppData\Local\Temp\cc3vbRST.s:1943   .text.HAL_UART_Transmit_DMA:0000000000000000 $t
C:\Users\HP\AppData\Local\Temp\cc3vbRST.s:1950   .text.HAL_UART_Transmit_DMA:0000000000000000 HAL_UART_Transmit_DMA
C:\Users\HP\AppData\Local\Temp\cc3vbRST.s:2127   .text.HAL_UART_Transmit_DMA:0000000000000078 $d
C:\Users\HP\AppData\Local\Temp\cc3vbRST.s:4337   .text.UART_DMATransmitCplt:0000000000000000 UART_DMATransmitCplt
C:\Users\HP\AppData\Local\Temp\cc3vbRST.s:4576   .text.UART_DMATxHalfCplt:0000000000000000 UART_DMATxHalfCplt
C:\Users\HP\AppData\Local\Temp\cc3vbRST.s:4680   .text.UART_DMAError:0000000000000000 UART_DMAError
C:\Users\HP\AppData\Local\Temp\cc3vbRST.s:2135   .text.HAL_UART_DMAPause:0000000000000000 $t
C:\Users\HP\AppData\Local\Temp\cc3vbRST.s:2142   .text.HAL_UART_DMAPause:0000000000000000 HAL_UART_DMAPause
C:\Users\HP\AppData\Local\Temp\cc3vbRST.s:2438   .text.HAL_UART_DMAResume:0000000000000000 $t
C:\Users\HP\AppData\Local\Temp\cc3vbRST.s:2445   .text.HAL_UART_DMAResume:0000000000000000 HAL_UART_DMAResume
C:\Users\HP\AppData\Local\Temp\cc3vbRST.s:2751   .text.HAL_UART_DMAStop:0000000000000000 $t
C:\Users\HP\AppData\Local\Temp\cc3vbRST.s:2758   .text.HAL_UART_DMAStop:0000000000000000 HAL_UART_DMAStop
C:\Users\HP\AppData\Local\Temp\cc3vbRST.s:2975   .text.HAL_UART_DMAStop:0000000000000084 $d
C:\Users\HP\AppData\Local\Temp\cc3vbRST.s:2982   .text.HAL_UARTEx_ReceiveToIdle:0000000000000000 $t
C:\Users\HP\AppData\Local\Temp\cc3vbRST.s:2989   .text.HAL_UARTEx_ReceiveToIdle:0000000000000000 HAL_UARTEx_ReceiveToIdle
C:\Users\HP\AppData\Local\Temp\cc3vbRST.s:3297   .text.HAL_UARTEx_ReceiveToIdle:0000000000000120 $d
ARM GAS  C:\Users\HP\AppData\Local\Temp\cc3vbRST.s 			page 164


C:\Users\HP\AppData\Local\Temp\cc3vbRST.s:3302   .text.HAL_UARTEx_GetRxEventType:0000000000000000 $t
C:\Users\HP\AppData\Local\Temp\cc3vbRST.s:3309   .text.HAL_UARTEx_GetRxEventType:0000000000000000 HAL_UARTEx_GetRxEventType
C:\Users\HP\AppData\Local\Temp\cc3vbRST.s:3327   .text.HAL_UART_Abort:0000000000000000 $t
C:\Users\HP\AppData\Local\Temp\cc3vbRST.s:3334   .text.HAL_UART_Abort:0000000000000000 HAL_UART_Abort
C:\Users\HP\AppData\Local\Temp\cc3vbRST.s:3765   .text.HAL_UART_Abort:00000000000000f4 $d
C:\Users\HP\AppData\Local\Temp\cc3vbRST.s:3771   .text.HAL_UART_AbortTransmit:0000000000000000 $t
C:\Users\HP\AppData\Local\Temp\cc3vbRST.s:3778   .text.HAL_UART_AbortTransmit:0000000000000000 HAL_UART_AbortTransmit
C:\Users\HP\AppData\Local\Temp\cc3vbRST.s:3970   .text.HAL_UART_AbortTransmit:000000000000006c $d
C:\Users\HP\AppData\Local\Temp\cc3vbRST.s:3976   .text.HAL_UART_AbortReceive:0000000000000000 $t
C:\Users\HP\AppData\Local\Temp\cc3vbRST.s:3983   .text.HAL_UART_AbortReceive:0000000000000000 HAL_UART_AbortReceive
C:\Users\HP\AppData\Local\Temp\cc3vbRST.s:4303   .text.HAL_UART_AbortReceive:00000000000000a8 $d
C:\Users\HP\AppData\Local\Temp\cc3vbRST.s:4309   .text.HAL_UART_TxCpltCallback:0000000000000000 $t
C:\Users\HP\AppData\Local\Temp\cc3vbRST.s:4316   .text.HAL_UART_TxCpltCallback:0000000000000000 HAL_UART_TxCpltCallback
C:\Users\HP\AppData\Local\Temp\cc3vbRST.s:4331   .text.UART_DMATransmitCplt:0000000000000000 $t
C:\Users\HP\AppData\Local\Temp\cc3vbRST.s:4499   .text.UART_DMATransmitCplt:000000000000004c $d
C:\Users\HP\AppData\Local\Temp\cc3vbRST.s:4504   .text.UART_EndTransmit_IT:0000000000000000 $t
C:\Users\HP\AppData\Local\Temp\cc3vbRST.s:4510   .text.UART_EndTransmit_IT:0000000000000000 UART_EndTransmit_IT
C:\Users\HP\AppData\Local\Temp\cc3vbRST.s:4543   .text.UART_EndTransmit_IT:000000000000001c $d
C:\Users\HP\AppData\Local\Temp\cc3vbRST.s:4548   .text.HAL_UART_TxHalfCpltCallback:0000000000000000 $t
C:\Users\HP\AppData\Local\Temp\cc3vbRST.s:4555   .text.HAL_UART_TxHalfCpltCallback:0000000000000000 HAL_UART_TxHalfCpltCallback
C:\Users\HP\AppData\Local\Temp\cc3vbRST.s:4570   .text.UART_DMATxHalfCplt:0000000000000000 $t
C:\Users\HP\AppData\Local\Temp\cc3vbRST.s:4603   .text.UART_DMATxHalfCplt:000000000000000c $d
C:\Users\HP\AppData\Local\Temp\cc3vbRST.s:4608   .text.HAL_UART_RxCpltCallback:0000000000000000 $t
C:\Users\HP\AppData\Local\Temp\cc3vbRST.s:4615   .text.HAL_UART_RxCpltCallback:0000000000000000 HAL_UART_RxCpltCallback
C:\Users\HP\AppData\Local\Temp\cc3vbRST.s:4630   .text.HAL_UART_RxHalfCpltCallback:0000000000000000 $t
C:\Users\HP\AppData\Local\Temp\cc3vbRST.s:4637   .text.HAL_UART_RxHalfCpltCallback:0000000000000000 HAL_UART_RxHalfCpltCallback
C:\Users\HP\AppData\Local\Temp\cc3vbRST.s:4652   .text.HAL_UART_ErrorCallback:0000000000000000 $t
C:\Users\HP\AppData\Local\Temp\cc3vbRST.s:4659   .text.HAL_UART_ErrorCallback:0000000000000000 HAL_UART_ErrorCallback
C:\Users\HP\AppData\Local\Temp\cc3vbRST.s:4674   .text.UART_DMAError:0000000000000000 $t
C:\Users\HP\AppData\Local\Temp\cc3vbRST.s:4779   .text.UART_DMAError:0000000000000058 $d
C:\Users\HP\AppData\Local\Temp\cc3vbRST.s:4786   .text.UART_DMAAbortOnError:0000000000000000 $t
C:\Users\HP\AppData\Local\Temp\cc3vbRST.s:4792   .text.UART_DMAAbortOnError:0000000000000000 UART_DMAAbortOnError
C:\Users\HP\AppData\Local\Temp\cc3vbRST.s:4825   .text.UART_DMAAbortOnError:0000000000000010 $d
C:\Users\HP\AppData\Local\Temp\cc3vbRST.s:4830   .text.HAL_UART_AbortCpltCallback:0000000000000000 $t
C:\Users\HP\AppData\Local\Temp\cc3vbRST.s:4837   .text.HAL_UART_AbortCpltCallback:0000000000000000 HAL_UART_AbortCpltCallback
C:\Users\HP\AppData\Local\Temp\cc3vbRST.s:4852   .text.HAL_UART_Abort_IT:0000000000000000 $t
C:\Users\HP\AppData\Local\Temp\cc3vbRST.s:4859   .text.HAL_UART_Abort_IT:0000000000000000 HAL_UART_Abort_IT
C:\Users\HP\AppData\Local\Temp\cc3vbRST.s:5339   .text.HAL_UART_Abort_IT:000000000000011c $d
C:\Users\HP\AppData\Local\Temp\cc3vbRST.s:5428   .text.UART_DMATxAbortCallback:0000000000000000 UART_DMATxAbortCallback
C:\Users\HP\AppData\Local\Temp\cc3vbRST.s:5353   .text.UART_DMARxAbortCallback:0000000000000000 UART_DMARxAbortCallback
C:\Users\HP\AppData\Local\Temp\cc3vbRST.s:5347   .text.UART_DMARxAbortCallback:0000000000000000 $t
C:\Users\HP\AppData\Local\Temp\cc3vbRST.s:5417   .text.UART_DMARxAbortCallback:000000000000002c $d
C:\Users\HP\AppData\Local\Temp\cc3vbRST.s:5422   .text.UART_DMATxAbortCallback:0000000000000000 $t
C:\Users\HP\AppData\Local\Temp\cc3vbRST.s:5492   .text.UART_DMATxAbortCallback:000000000000002c $d
C:\Users\HP\AppData\Local\Temp\cc3vbRST.s:5497   .text.HAL_UART_AbortTransmitCpltCallback:0000000000000000 $t
C:\Users\HP\AppData\Local\Temp\cc3vbRST.s:5504   .text.HAL_UART_AbortTransmitCpltCallback:0000000000000000 HAL_UART_AbortTransmitCpltCallback
C:\Users\HP\AppData\Local\Temp\cc3vbRST.s:5519   .text.HAL_UART_AbortTransmit_IT:0000000000000000 $t
C:\Users\HP\AppData\Local\Temp\cc3vbRST.s:5526   .text.HAL_UART_AbortTransmit_IT:0000000000000000 HAL_UART_AbortTransmit_IT
C:\Users\HP\AppData\Local\Temp\cc3vbRST.s:5737   .text.HAL_UART_AbortTransmit_IT:000000000000007c $d
C:\Users\HP\AppData\Local\Temp\cc3vbRST.s:5750   .text.UART_DMATxOnlyAbortCallback:0000000000000000 UART_DMATxOnlyAbortCallback
C:\Users\HP\AppData\Local\Temp\cc3vbRST.s:5744   .text.UART_DMATxOnlyAbortCallback:0000000000000000 $t
C:\Users\HP\AppData\Local\Temp\cc3vbRST.s:5784   .text.UART_DMATxOnlyAbortCallback:0000000000000014 $d
C:\Users\HP\AppData\Local\Temp\cc3vbRST.s:5789   .text.HAL_UART_AbortReceiveCpltCallback:0000000000000000 $t
C:\Users\HP\AppData\Local\Temp\cc3vbRST.s:5796   .text.HAL_UART_AbortReceiveCpltCallback:0000000000000000 HAL_UART_AbortReceiveCpltCallback
C:\Users\HP\AppData\Local\Temp\cc3vbRST.s:5811   .text.HAL_UART_AbortReceive_IT:0000000000000000 $t
C:\Users\HP\AppData\Local\Temp\cc3vbRST.s:5818   .text.HAL_UART_AbortReceive_IT:0000000000000000 HAL_UART_AbortReceive_IT
C:\Users\HP\AppData\Local\Temp\cc3vbRST.s:6160   .text.HAL_UART_AbortReceive_IT:00000000000000b8 $d
ARM GAS  C:\Users\HP\AppData\Local\Temp\cc3vbRST.s 			page 165


C:\Users\HP\AppData\Local\Temp\cc3vbRST.s:6173   .text.UART_DMARxOnlyAbortCallback:0000000000000000 UART_DMARxOnlyAbortCallback
C:\Users\HP\AppData\Local\Temp\cc3vbRST.s:6167   .text.UART_DMARxOnlyAbortCallback:0000000000000000 $t
C:\Users\HP\AppData\Local\Temp\cc3vbRST.s:6210   .text.UART_DMARxOnlyAbortCallback:0000000000000018 $d
C:\Users\HP\AppData\Local\Temp\cc3vbRST.s:6215   .text.HAL_UARTEx_RxEventCallback:0000000000000000 $t
C:\Users\HP\AppData\Local\Temp\cc3vbRST.s:6222   .text.HAL_UARTEx_RxEventCallback:0000000000000000 HAL_UARTEx_RxEventCallback
C:\Users\HP\AppData\Local\Temp\cc3vbRST.s:6238   .text.UART_Receive_IT:0000000000000000 $t
C:\Users\HP\AppData\Local\Temp\cc3vbRST.s:6244   .text.UART_Receive_IT:0000000000000000 UART_Receive_IT
C:\Users\HP\AppData\Local\Temp\cc3vbRST.s:6523   .text.UART_Receive_IT:00000000000000e8 $d
C:\Users\HP\AppData\Local\Temp\cc3vbRST.s:6529   .text.HAL_UART_IRQHandler:0000000000000000 $t
C:\Users\HP\AppData\Local\Temp\cc3vbRST.s:6536   .text.HAL_UART_IRQHandler:0000000000000000 HAL_UART_IRQHandler
C:\Users\HP\AppData\Local\Temp\cc3vbRST.s:7455   .text.HAL_UART_IRQHandler:0000000000000284 $d
C:\Users\HP\AppData\Local\Temp\cc3vbRST.s:7468   .text.UART_DMARxHalfCplt:0000000000000000 $t
C:\Users\HP\AppData\Local\Temp\cc3vbRST.s:7474   .text.UART_DMARxHalfCplt:0000000000000000 UART_DMARxHalfCplt
C:\Users\HP\AppData\Local\Temp\cc3vbRST.s:7523   .text.UART_DMARxHalfCplt:0000000000000020 $d
C:\Users\HP\AppData\Local\Temp\cc3vbRST.s:7529   .text.UART_DMAReceiveCplt:0000000000000000 $t
C:\Users\HP\AppData\Local\Temp\cc3vbRST.s:7535   .text.UART_DMAReceiveCplt:0000000000000000 UART_DMAReceiveCplt
C:\Users\HP\AppData\Local\Temp\cc3vbRST.s:7843   .text.UART_DMAReceiveCplt:000000000000009c $d
C:\Users\HP\AppData\Local\Temp\cc3vbRST.s:7849   .text.HAL_LIN_SendBreak:0000000000000000 $t
C:\Users\HP\AppData\Local\Temp\cc3vbRST.s:7856   .text.HAL_LIN_SendBreak:0000000000000000 HAL_LIN_SendBreak
C:\Users\HP\AppData\Local\Temp\cc3vbRST.s:7963   .text.HAL_MultiProcessor_EnterMuteMode:0000000000000000 $t
C:\Users\HP\AppData\Local\Temp\cc3vbRST.s:7970   .text.HAL_MultiProcessor_EnterMuteMode:0000000000000000 HAL_MultiProcessor_EnterMuteMode
C:\Users\HP\AppData\Local\Temp\cc3vbRST.s:8080   .text.HAL_MultiProcessor_ExitMuteMode:0000000000000000 $t
C:\Users\HP\AppData\Local\Temp\cc3vbRST.s:8087   .text.HAL_MultiProcessor_ExitMuteMode:0000000000000000 HAL_MultiProcessor_ExitMuteMode
C:\Users\HP\AppData\Local\Temp\cc3vbRST.s:8197   .text.HAL_HalfDuplex_EnableTransmitter:0000000000000000 $t
C:\Users\HP\AppData\Local\Temp\cc3vbRST.s:8204   .text.HAL_HalfDuplex_EnableTransmitter:0000000000000000 HAL_HalfDuplex_EnableTransmitter
C:\Users\HP\AppData\Local\Temp\cc3vbRST.s:8271   .text.HAL_HalfDuplex_EnableReceiver:0000000000000000 $t
C:\Users\HP\AppData\Local\Temp\cc3vbRST.s:8278   .text.HAL_HalfDuplex_EnableReceiver:0000000000000000 HAL_HalfDuplex_EnableReceiver
C:\Users\HP\AppData\Local\Temp\cc3vbRST.s:8345   .text.HAL_UART_GetState:0000000000000000 $t
C:\Users\HP\AppData\Local\Temp\cc3vbRST.s:8352   .text.HAL_UART_GetState:0000000000000000 HAL_UART_GetState
C:\Users\HP\AppData\Local\Temp\cc3vbRST.s:8379   .text.HAL_UART_GetError:0000000000000000 $t
C:\Users\HP\AppData\Local\Temp\cc3vbRST.s:8386   .text.HAL_UART_GetError:0000000000000000 HAL_UART_GetError
C:\Users\HP\AppData\Local\Temp\cc3vbRST.s:8404   .text.UART_Start_Receive_IT:0000000000000000 $t
C:\Users\HP\AppData\Local\Temp\cc3vbRST.s:8411   .text.UART_Start_Receive_IT:0000000000000000 UART_Start_Receive_IT
C:\Users\HP\AppData\Local\Temp\cc3vbRST.s:8470   .text.HAL_UART_Receive_IT:0000000000000000 $t
C:\Users\HP\AppData\Local\Temp\cc3vbRST.s:8477   .text.HAL_UART_Receive_IT:0000000000000000 HAL_UART_Receive_IT
C:\Users\HP\AppData\Local\Temp\cc3vbRST.s:8538   .text.HAL_UART_Receive_IT:0000000000000028 $d
C:\Users\HP\AppData\Local\Temp\cc3vbRST.s:8543   .text.HAL_UARTEx_ReceiveToIdle_IT:0000000000000000 $t
C:\Users\HP\AppData\Local\Temp\cc3vbRST.s:8550   .text.HAL_UARTEx_ReceiveToIdle_IT:0000000000000000 HAL_UARTEx_ReceiveToIdle_IT
C:\Users\HP\AppData\Local\Temp\cc3vbRST.s:8725   .text.HAL_UARTEx_ReceiveToIdle_IT:0000000000000068 $d
C:\Users\HP\AppData\Local\Temp\cc3vbRST.s:8730   .text.UART_Start_Receive_DMA:0000000000000000 $t
C:\Users\HP\AppData\Local\Temp\cc3vbRST.s:8737   .text.UART_Start_Receive_DMA:0000000000000000 UART_Start_Receive_DMA
C:\Users\HP\AppData\Local\Temp\cc3vbRST.s:9022   .text.UART_Start_Receive_DMA:0000000000000098 $d
C:\Users\HP\AppData\Local\Temp\cc3vbRST.s:9030   .text.HAL_UART_Receive_DMA:0000000000000000 $t
C:\Users\HP\AppData\Local\Temp\cc3vbRST.s:9037   .text.HAL_UART_Receive_DMA:0000000000000000 HAL_UART_Receive_DMA
C:\Users\HP\AppData\Local\Temp\cc3vbRST.s:9098   .text.HAL_UART_Receive_DMA:0000000000000028 $d
C:\Users\HP\AppData\Local\Temp\cc3vbRST.s:9103   .text.HAL_UARTEx_ReceiveToIdle_DMA:0000000000000000 $t
C:\Users\HP\AppData\Local\Temp\cc3vbRST.s:9110   .text.HAL_UARTEx_ReceiveToIdle_DMA:0000000000000000 HAL_UARTEx_ReceiveToIdle_DMA
C:\Users\HP\AppData\Local\Temp\cc3vbRST.s:9285   .text.HAL_UARTEx_ReceiveToIdle_DMA:0000000000000068 $d

UNDEFINED SYMBOLS
HAL_RCC_GetPCLK1Freq
HAL_RCC_GetPCLK2Freq
HAL_GetTick
HAL_DMA_Start_IT
HAL_DMA_Abort
HAL_DMA_GetError
HAL_DMA_Abort_IT
ARM GAS  C:\Users\HP\AppData\Local\Temp\cc3vbRST.s 			page 166


