ARM GAS  C:\Users\HP\AppData\Local\Temp\cca9e973.s 			page 1


   1              		.cpu cortex-m3
   2              		.eabi_attribute 20, 1
   3              		.eabi_attribute 21, 1
   4              		.eabi_attribute 23, 3
   5              		.eabi_attribute 24, 1
   6              		.eabi_attribute 25, 1
   7              		.eabi_attribute 26, 1
   8              		.eabi_attribute 30, 1
   9              		.eabi_attribute 34, 1
  10              		.eabi_attribute 18, 4
  11              		.file	"stm32f1xx_hal_exti.c"
  12              		.text
  13              	.Ltext0:
  14              		.cfi_sections	.debug_frame
  15              		.section	.text.HAL_EXTI_SetConfigLine,"ax",%progbits
  16              		.align	1
  17              		.global	HAL_EXTI_SetConfigLine
  18              		.arch armv7-m
  19              		.syntax unified
  20              		.thumb
  21              		.thumb_func
  22              		.fpu softvfp
  24              	HAL_EXTI_SetConfigLine:
  25              	.LVL0:
  26              	.LFB65:
  27              		.file 1 "../Drivers/STM32F1xx_HAL_Driver/Src/stm32f1xx_hal_exti.c"
   1:../Drivers/STM32F1xx_HAL_Driver/Src/stm32f1xx_hal_exti.c **** 
  28              		.loc 1 143 1 view -0
  29              		.cfi_startproc
  30              		@ args = 0, pretend = 0, frame = 0
  31              		@ frame_needed = 0, uses_anonymous_args = 0
  32              		@ link register save eliminated.
  33              		.loc 1 144 3 view .LVU1
  34              		.loc 1 145 3 view .LVU2
  35              		.loc 1 146 3 view .LVU3
  36              		.loc 1 149 3 view .LVU4
  37              		.loc 1 149 6 is_stmt 0 view .LVU5
  38 0000 0028     		cmp	r0, #0
  39 0002 60D0     		beq	.L11
  40              		.loc 1 149 23 discriminator 1 view .LVU6
  41 0004 0029     		cmp	r1, #0
  42 0006 60D0     		beq	.L12
  43              		.loc 1 143 1 view .LVU7
  44 0008 70B4     		push	{r4, r5, r6}
  45              	.LCFI0:
  46              		.cfi_def_cfa_offset 12
  47              		.cfi_offset 4, -12
  48              		.cfi_offset 5, -8
  49              		.cfi_offset 6, -4
  50              		.loc 1 155 3 is_stmt 1 view .LVU8
  51              		.loc 1 156 3 view .LVU9
  52              		.loc 1 159 3 view .LVU10
  53              		.loc 1 159 28 is_stmt 0 view .LVU11
  54 000a 0B68     		ldr	r3, [r1]
  55              		.loc 1 159 15 view .LVU12
  56 000c 0360     		str	r3, [r0]
  57              		.loc 1 162 3 is_stmt 1 view .LVU13
ARM GAS  C:\Users\HP\AppData\Local\Temp\cca9e973.s 			page 2


  58              		.loc 1 162 11 is_stmt 0 view .LVU14
  59 000e 03F01F02 		and	r2, r3, #31
  60              	.LVL1:
  61              		.loc 1 163 3 is_stmt 1 view .LVU15
  62              		.loc 1 163 12 is_stmt 0 view .LVU16
  63 0012 0120     		movs	r0, #1
  64              	.LVL2:
  65              		.loc 1 163 12 view .LVU17
  66 0014 9040     		lsls	r0, r0, r2
  67              	.LVL3:
  68              		.loc 1 166 3 is_stmt 1 view .LVU18
  69              		.loc 1 166 6 is_stmt 0 view .LVU19
  70 0016 13F0007F 		tst	r3, #33554432
  71 001a 15D0     		beq	.L3
  72              		.loc 1 168 5 is_stmt 1 view .LVU20
  73              		.loc 1 172 5 view .LVU21
  74              		.loc 1 172 8 is_stmt 0 view .LVU22
  75 001c 8C68     		ldr	r4, [r1, #8]
  76 001e 14F0010F 		tst	r4, #1
  77 0022 24D0     		beq	.L4
  78              		.loc 1 174 7 is_stmt 1 view .LVU23
  79              		.loc 1 174 18 is_stmt 0 view .LVU24
  80 0024 2A4D     		ldr	r5, .L18
  81 0026 AC68     		ldr	r4, [r5, #8]
  82 0028 0443     		orrs	r4, r4, r0
  83 002a AC60     		str	r4, [r5, #8]
  84              	.L5:
  85              		.loc 1 183 5 is_stmt 1 view .LVU25
  86              		.loc 1 183 8 is_stmt 0 view .LVU26
  87 002c 8C68     		ldr	r4, [r1, #8]
  88 002e 14F0020F 		tst	r4, #2
  89 0032 22D0     		beq	.L6
  90              		.loc 1 185 7 is_stmt 1 view .LVU27
  91              		.loc 1 185 18 is_stmt 0 view .LVU28
  92 0034 264D     		ldr	r5, .L18
  93 0036 EC68     		ldr	r4, [r5, #12]
  94 0038 0443     		orrs	r4, r4, r0
  95 003a EC60     		str	r4, [r5, #12]
  96              	.L7:
  97              		.loc 1 194 5 is_stmt 1 view .LVU29
  98              		.loc 1 194 28 is_stmt 0 view .LVU30
  99 003c 0C68     		ldr	r4, [r1]
 100 003e 04F0C06C 		and	ip, r4, #100663296
 101              		.loc 1 194 8 view .LVU31
 102 0042 BCF1C06F 		cmp	ip, #100663296
 103 0046 1ED0     		beq	.L17
 104              	.LVL4:
 105              	.L3:
 106              		.loc 1 208 3 is_stmt 1 view .LVU32
 107              		.loc 1 208 19 is_stmt 0 view .LVU33
 108 0048 4B68     		ldr	r3, [r1, #4]
 109              		.loc 1 208 6 view .LVU34
 110 004a 13F0010F 		tst	r3, #1
 111 004e 2DD0     		beq	.L8
 112              		.loc 1 210 5 is_stmt 1 view .LVU35
 113              		.loc 1 210 15 is_stmt 0 view .LVU36
 114 0050 1F4A     		ldr	r2, .L18
ARM GAS  C:\Users\HP\AppData\Local\Temp\cca9e973.s 			page 3


 115 0052 1368     		ldr	r3, [r2]
 116 0054 0343     		orrs	r3, r3, r0
 117 0056 1360     		str	r3, [r2]
 118              	.L9:
 119              		.loc 1 219 3 is_stmt 1 view .LVU37
 120              		.loc 1 219 19 is_stmt 0 view .LVU38
 121 0058 4B68     		ldr	r3, [r1, #4]
 122              		.loc 1 219 6 view .LVU39
 123 005a 13F0020F 		tst	r3, #2
 124 005e 2BD0     		beq	.L10
 125              		.loc 1 221 5 is_stmt 1 view .LVU40
 126              		.loc 1 221 15 is_stmt 0 view .LVU41
 127 0060 1B4A     		ldr	r2, .L18
 128 0062 5368     		ldr	r3, [r2, #4]
 129 0064 1843     		orrs	r0, r0, r3
 130              	.LVL5:
 131              		.loc 1 221 15 view .LVU42
 132 0066 5060     		str	r0, [r2, #4]
 133              		.loc 1 228 10 view .LVU43
 134 0068 0020     		movs	r0, #0
 135              	.L2:
 136              		.loc 1 229 1 view .LVU44
 137 006a 70BC     		pop	{r4, r5, r6}
 138              	.LCFI1:
 139              		.cfi_remember_state
 140              		.cfi_restore 6
 141              		.cfi_restore 5
 142              		.cfi_restore 4
 143              		.cfi_def_cfa_offset 0
 144 006c 7047     		bx	lr
 145              	.LVL6:
 146              	.L4:
 147              	.LCFI2:
 148              		.cfi_restore_state
 149              		.loc 1 178 7 is_stmt 1 view .LVU45
 150              		.loc 1 178 18 is_stmt 0 view .LVU46
 151 006e 184D     		ldr	r5, .L18
 152 0070 AC68     		ldr	r4, [r5, #8]
 153 0072 24EA0004 		bic	r4, r4, r0
 154 0076 AC60     		str	r4, [r5, #8]
 155 0078 D8E7     		b	.L5
 156              	.L6:
 157              		.loc 1 189 7 is_stmt 1 view .LVU47
 158              		.loc 1 189 18 is_stmt 0 view .LVU48
 159 007a 154D     		ldr	r5, .L18
 160 007c EC68     		ldr	r4, [r5, #12]
 161 007e 24EA0004 		bic	r4, r4, r0
 162 0082 EC60     		str	r4, [r5, #12]
 163 0084 DAE7     		b	.L7
 164              	.L17:
 165              		.loc 1 196 7 is_stmt 1 view .LVU49
 166              		.loc 1 197 7 view .LVU50
 167              		.loc 1 199 7 view .LVU51
 168              		.loc 1 199 37 is_stmt 0 view .LVU52
 169 0086 9208     		lsrs	r2, r2, #2
 170              	.LVL7:
 171              		.loc 1 199 14 view .LVU53
ARM GAS  C:\Users\HP\AppData\Local\Temp\cca9e973.s 			page 4


 172 0088 124E     		ldr	r6, .L18+4
 173 008a 0232     		adds	r2, r2, #2
 174 008c 56F82240 		ldr	r4, [r6, r2, lsl #2]
 175              	.LVL8:
 176              		.loc 1 200 7 is_stmt 1 view .LVU54
 177              		.loc 1 200 76 is_stmt 0 view .LVU55
 178 0090 03F00303 		and	r3, r3, #3
 179              	.LVL9:
 180              		.loc 1 200 65 view .LVU56
 181 0094 9B00     		lsls	r3, r3, #2
 182              		.loc 1 200 38 view .LVU57
 183 0096 0F25     		movs	r5, #15
 184 0098 9D40     		lsls	r5, r5, r3
 185              		.loc 1 200 14 view .LVU58
 186 009a 24EA0504 		bic	r4, r4, r5
 187              	.LVL10:
 188              		.loc 1 201 7 is_stmt 1 view .LVU59
 189              		.loc 1 201 39 is_stmt 0 view .LVU60
 190 009e CD68     		ldr	r5, [r1, #12]
 191 00a0 05FA03F3 		lsl	r3, r5, r3
 192              		.loc 1 201 14 view .LVU61
 193 00a4 2343     		orrs	r3, r3, r4
 194              	.LVL11:
 195              		.loc 1 202 7 is_stmt 1 view .LVU62
 196              		.loc 1 202 35 is_stmt 0 view .LVU63
 197 00a6 46F82230 		str	r3, [r6, r2, lsl #2]
 198 00aa CDE7     		b	.L3
 199              	.LVL12:
 200              	.L8:
 201              		.loc 1 214 5 is_stmt 1 view .LVU64
 202              		.loc 1 214 15 is_stmt 0 view .LVU65
 203 00ac 084A     		ldr	r2, .L18
 204 00ae 1368     		ldr	r3, [r2]
 205 00b0 23EA0003 		bic	r3, r3, r0
 206 00b4 1360     		str	r3, [r2]
 207 00b6 CFE7     		b	.L9
 208              	.L10:
 209              		.loc 1 225 5 is_stmt 1 view .LVU66
 210              		.loc 1 225 15 is_stmt 0 view .LVU67
 211 00b8 054A     		ldr	r2, .L18
 212 00ba 5368     		ldr	r3, [r2, #4]
 213 00bc 23EA0000 		bic	r0, r3, r0
 214              	.LVL13:
 215              		.loc 1 225 15 view .LVU68
 216 00c0 5060     		str	r0, [r2, #4]
 217              		.loc 1 228 10 view .LVU69
 218 00c2 0020     		movs	r0, #0
 219 00c4 D1E7     		b	.L2
 220              	.LVL14:
 221              	.L11:
 222              	.LCFI3:
 223              		.cfi_def_cfa_offset 0
 224              		.cfi_restore 4
 225              		.cfi_restore 5
 226              		.cfi_restore 6
 227              		.loc 1 151 12 view .LVU70
 228 00c6 0120     		movs	r0, #1
ARM GAS  C:\Users\HP\AppData\Local\Temp\cca9e973.s 			page 5


 229              	.LVL15:
 230              		.loc 1 151 12 view .LVU71
 231 00c8 7047     		bx	lr
 232              	.LVL16:
 233              	.L12:
 234              		.loc 1 151 12 view .LVU72
 235 00ca 0120     		movs	r0, #1
 236              	.LVL17:
 237              		.loc 1 229 1 view .LVU73
 238 00cc 7047     		bx	lr
 239              	.L19:
 240 00ce 00BF     		.align	2
 241              	.L18:
 242 00d0 00040140 		.word	1073808384
 243 00d4 00000140 		.word	1073807360
 244              		.cfi_endproc
 245              	.LFE65:
 247              		.section	.text.HAL_EXTI_GetConfigLine,"ax",%progbits
 248              		.align	1
 249              		.global	HAL_EXTI_GetConfigLine
 250              		.syntax unified
 251              		.thumb
 252              		.thumb_func
 253              		.fpu softvfp
 255              	HAL_EXTI_GetConfigLine:
 256              	.LVL18:
 257              	.LFB66:
 258              		.loc 1 238 1 is_stmt 1 view -0
 259              		.cfi_startproc
 260              		@ args = 0, pretend = 0, frame = 0
 261              		@ frame_needed = 0, uses_anonymous_args = 0
 262              		@ link register save eliminated.
 263              		.loc 1 239 3 view .LVU75
 264              		.loc 1 240 3 view .LVU76
 265              		.loc 1 241 3 view .LVU77
 266              		.loc 1 244 3 view .LVU78
 267              		.loc 1 244 6 is_stmt 0 view .LVU79
 268 0000 0028     		cmp	r0, #0
 269 0002 48D0     		beq	.L27
 270              		.loc 1 244 23 discriminator 1 view .LVU80
 271 0004 0029     		cmp	r1, #0
 272 0006 48D0     		beq	.L28
 273              		.loc 1 238 1 view .LVU81
 274 0008 10B4     		push	{r4}
 275              	.LCFI4:
 276              		.cfi_def_cfa_offset 4
 277              		.cfi_offset 4, -4
 278              		.loc 1 250 3 is_stmt 1 view .LVU82
 279              		.loc 1 253 3 view .LVU83
 280              		.loc 1 253 28 is_stmt 0 view .LVU84
 281 000a 0468     		ldr	r4, [r0]
 282              		.loc 1 253 21 view .LVU85
 283 000c 0C60     		str	r4, [r1]
 284              		.loc 1 256 3 is_stmt 1 view .LVU86
 285              		.loc 1 256 11 is_stmt 0 view .LVU87
 286 000e 04F01F0C 		and	ip, r4, #31
 287              	.LVL19:
ARM GAS  C:\Users\HP\AppData\Local\Temp\cca9e973.s 			page 6


 288              		.loc 1 257 3 is_stmt 1 view .LVU88
 289              		.loc 1 257 12 is_stmt 0 view .LVU89
 290 0012 0123     		movs	r3, #1
 291 0014 03FA0CF3 		lsl	r3, r3, ip
 292              	.LVL20:
 293              		.loc 1 262 3 is_stmt 1 view .LVU90
 294              		.loc 1 262 12 is_stmt 0 view .LVU91
 295 0018 2248     		ldr	r0, .L36
 296              	.LVL21:
 297              		.loc 1 262 12 view .LVU92
 298 001a 0068     		ldr	r0, [r0]
 299              		.loc 1 262 6 view .LVU93
 300 001c 1842     		tst	r0, r3
 301 001e 27D0     		beq	.L22
 302              		.loc 1 264 5 is_stmt 1 view .LVU94
 303              		.loc 1 264 23 is_stmt 0 view .LVU95
 304 0020 0122     		movs	r2, #1
 305 0022 4A60     		str	r2, [r1, #4]
 306              	.L23:
 307              		.loc 1 273 3 is_stmt 1 view .LVU96
 308              		.loc 1 273 12 is_stmt 0 view .LVU97
 309 0024 1F48     		ldr	r0, .L36
 310 0026 4068     		ldr	r0, [r0, #4]
 311              		.loc 1 273 6 view .LVU98
 312 0028 1842     		tst	r0, r3
 313 002a 03D0     		beq	.L24
 314              		.loc 1 275 5 is_stmt 1 view .LVU99
 315              		.loc 1 275 23 is_stmt 0 view .LVU100
 316 002c 4868     		ldr	r0, [r1, #4]
 317 002e 40F00200 		orr	r0, r0, #2
 318 0032 4860     		str	r0, [r1, #4]
 319              	.L24:
 320              		.loc 1 279 3 is_stmt 1 view .LVU101
 321              		.loc 1 279 24 is_stmt 0 view .LVU102
 322 0034 0022     		movs	r2, #0
 323 0036 8A60     		str	r2, [r1, #8]
 324              		.loc 1 280 3 is_stmt 1 view .LVU103
 325              		.loc 1 280 24 is_stmt 0 view .LVU104
 326 0038 CA60     		str	r2, [r1, #12]
 327              		.loc 1 283 3 is_stmt 1 view .LVU105
 328              		.loc 1 283 6 is_stmt 0 view .LVU106
 329 003a 14F0007F 		tst	r4, #33554432
 330 003e 2ED0     		beq	.L29
 331              		.loc 1 286 5 is_stmt 1 view .LVU107
 332              		.loc 1 286 14 is_stmt 0 view .LVU108
 333 0040 02F18042 		add	r2, r2, #1073741824
 334 0044 02F58232 		add	r2, r2, #66560
 335 0048 9268     		ldr	r2, [r2, #8]
 336              		.loc 1 286 8 view .LVU109
 337 004a 1A42     		tst	r2, r3
 338 004c 01D0     		beq	.L25
 339              		.loc 1 288 7 is_stmt 1 view .LVU110
 340              		.loc 1 288 28 is_stmt 0 view .LVU111
 341 004e 0122     		movs	r2, #1
 342 0050 8A60     		str	r2, [r1, #8]
 343              	.L25:
 344              		.loc 1 293 5 is_stmt 1 view .LVU112
ARM GAS  C:\Users\HP\AppData\Local\Temp\cca9e973.s 			page 7


 345              		.loc 1 293 14 is_stmt 0 view .LVU113
 346 0052 144A     		ldr	r2, .L36
 347 0054 D268     		ldr	r2, [r2, #12]
 348              		.loc 1 293 8 view .LVU114
 349 0056 1A42     		tst	r2, r3
 350 0058 03D0     		beq	.L26
 351              		.loc 1 295 7 is_stmt 1 view .LVU115
 352              		.loc 1 295 28 is_stmt 0 view .LVU116
 353 005a 8B68     		ldr	r3, [r1, #8]
 354              	.LVL22:
 355              		.loc 1 295 28 view .LVU117
 356 005c 43F00203 		orr	r3, r3, #2
 357 0060 8B60     		str	r3, [r1, #8]
 358              	.L26:
 359              		.loc 1 299 5 is_stmt 1 view .LVU118
 360              		.loc 1 299 28 is_stmt 0 view .LVU119
 361 0062 04F0C063 		and	r3, r4, #100663296
 362              		.loc 1 299 8 view .LVU120
 363 0066 B3F1C06F 		cmp	r3, #100663296
 364 006a 04D0     		beq	.L35
 365              		.loc 1 308 10 view .LVU121
 366 006c 0020     		movs	r0, #0
 367 006e 17E0     		b	.L21
 368              	.LVL23:
 369              	.L22:
 370              		.loc 1 268 5 is_stmt 1 view .LVU122
 371              		.loc 1 268 23 is_stmt 0 view .LVU123
 372 0070 0022     		movs	r2, #0
 373 0072 4A60     		str	r2, [r1, #4]
 374 0074 D6E7     		b	.L23
 375              	.LVL24:
 376              	.L35:
 377              		.loc 1 301 7 is_stmt 1 view .LVU124
 378              		.loc 1 303 7 view .LVU125
 379              		.loc 1 303 37 is_stmt 0 view .LVU126
 380 0076 4FEA9C02 		lsr	r2, ip, #2
 381              		.loc 1 303 14 view .LVU127
 382 007a 0232     		adds	r2, r2, #2
 383 007c 0A4B     		ldr	r3, .L36+4
 384 007e 53F82220 		ldr	r2, [r3, r2, lsl #2]
 385              	.LVL25:
 386              		.loc 1 304 7 is_stmt 1 view .LVU128
 387              		.loc 1 304 76 is_stmt 0 view .LVU129
 388 0082 04F00303 		and	r3, r4, #3
 389              		.loc 1 304 65 view .LVU130
 390 0086 9B00     		lsls	r3, r3, #2
 391              		.loc 1 304 38 view .LVU131
 392 0088 22FA03F3 		lsr	r3, r2, r3
 393              		.loc 1 304 87 view .LVU132
 394 008c 03F00F03 		and	r3, r3, #15
 395              		.loc 1 304 28 view .LVU133
 396 0090 CB60     		str	r3, [r1, #12]
 397              		.loc 1 308 10 view .LVU134
 398 0092 0020     		movs	r0, #0
 399 0094 04E0     		b	.L21
 400              	.LVL26:
 401              	.L27:
ARM GAS  C:\Users\HP\AppData\Local\Temp\cca9e973.s 			page 8


 402              	.LCFI5:
 403              		.cfi_def_cfa_offset 0
 404              		.cfi_restore 4
 405              		.loc 1 246 12 view .LVU135
 406 0096 0120     		movs	r0, #1
 407              	.LVL27:
 408              		.loc 1 246 12 view .LVU136
 409 0098 7047     		bx	lr
 410              	.LVL28:
 411              	.L28:
 412              		.loc 1 246 12 view .LVU137
 413 009a 0120     		movs	r0, #1
 414              	.LVL29:
 415              		.loc 1 309 1 view .LVU138
 416 009c 7047     		bx	lr
 417              	.LVL30:
 418              	.L29:
 419              	.LCFI6:
 420              		.cfi_def_cfa_offset 4
 421              		.cfi_offset 4, -4
 422              		.loc 1 308 10 view .LVU139
 423 009e 0020     		movs	r0, #0
 424              	.LVL31:
 425              	.L21:
 426              		.loc 1 309 1 view .LVU140
 427 00a0 10BC     		pop	{r4}
 428              	.LCFI7:
 429              		.cfi_restore 4
 430              		.cfi_def_cfa_offset 0
 431 00a2 7047     		bx	lr
 432              	.L37:
 433              		.align	2
 434              	.L36:
 435 00a4 00040140 		.word	1073808384
 436 00a8 00000140 		.word	1073807360
 437              		.cfi_endproc
 438              	.LFE66:
 440              		.section	.text.HAL_EXTI_ClearConfigLine,"ax",%progbits
 441              		.align	1
 442              		.global	HAL_EXTI_ClearConfigLine
 443              		.syntax unified
 444              		.thumb
 445              		.thumb_func
 446              		.fpu softvfp
 448              	HAL_EXTI_ClearConfigLine:
 449              	.LVL32:
 450              	.LFB67:
 451              		.loc 1 317 1 is_stmt 1 view -0
 452              		.cfi_startproc
 453              		@ args = 0, pretend = 0, frame = 0
 454              		@ frame_needed = 0, uses_anonymous_args = 0
 455              		.loc 1 318 3 view .LVU142
 456              		.loc 1 319 3 view .LVU143
 457              		.loc 1 320 3 view .LVU144
 458              		.loc 1 323 3 view .LVU145
 459              		.loc 1 323 6 is_stmt 0 view .LVU146
 460 0000 0028     		cmp	r0, #0
ARM GAS  C:\Users\HP\AppData\Local\Temp\cca9e973.s 			page 9


 461 0002 38D0     		beq	.L40
 462              		.loc 1 317 1 view .LVU147
 463 0004 10B5     		push	{r4, lr}
 464              	.LCFI8:
 465              		.cfi_def_cfa_offset 8
 466              		.cfi_offset 4, -8
 467              		.cfi_offset 14, -4
 468 0006 8446     		mov	ip, r0
 469              		.loc 1 329 3 is_stmt 1 view .LVU148
 470              		.loc 1 332 3 view .LVU149
 471              		.loc 1 332 19 is_stmt 0 view .LVU150
 472 0008 0468     		ldr	r4, [r0]
 473              		.loc 1 332 11 view .LVU151
 474 000a 04F01F00 		and	r0, r4, #31
 475              	.LVL33:
 476              		.loc 1 333 3 is_stmt 1 view .LVU152
 477              		.loc 1 333 12 is_stmt 0 view .LVU153
 478 000e 0123     		movs	r3, #1
 479 0010 8340     		lsls	r3, r3, r0
 480              	.LVL34:
 481              		.loc 1 336 3 is_stmt 1 view .LVU154
 482              		.loc 1 336 20 is_stmt 0 view .LVU155
 483 0012 1B4A     		ldr	r2, .L48
 484 0014 1168     		ldr	r1, [r2]
 485              		.loc 1 336 28 view .LVU156
 486 0016 6FEA030E 		mvn	lr, r3
 487              		.loc 1 336 26 view .LVU157
 488 001a 21EA0301 		bic	r1, r1, r3
 489              		.loc 1 336 13 view .LVU158
 490 001e 1160     		str	r1, [r2]
 491              		.loc 1 339 3 is_stmt 1 view .LVU159
 492              		.loc 1 339 20 is_stmt 0 view .LVU160
 493 0020 5168     		ldr	r1, [r2, #4]
 494              		.loc 1 339 26 view .LVU161
 495 0022 21EA0303 		bic	r3, r1, r3
 496              	.LVL35:
 497              		.loc 1 339 13 view .LVU162
 498 0026 5360     		str	r3, [r2, #4]
 499              		.loc 1 342 3 is_stmt 1 view .LVU163
 500              		.loc 1 342 13 is_stmt 0 view .LVU164
 501 0028 DCF80030 		ldr	r3, [ip]
 502              		.loc 1 342 6 view .LVU165
 503 002c 13F0007F 		tst	r3, #33554432
 504 0030 23D0     		beq	.L41
 505              		.loc 1 344 5 is_stmt 1 view .LVU166
 506              		.loc 1 344 23 is_stmt 0 view .LVU167
 507 0032 9368     		ldr	r3, [r2, #8]
 508              		.loc 1 344 30 view .LVU168
 509 0034 0EEA0303 		and	r3, lr, r3
 510              		.loc 1 344 16 view .LVU169
 511 0038 9360     		str	r3, [r2, #8]
 512              		.loc 1 345 5 is_stmt 1 view .LVU170
 513              		.loc 1 345 23 is_stmt 0 view .LVU171
 514 003a D368     		ldr	r3, [r2, #12]
 515              		.loc 1 345 30 view .LVU172
 516 003c 0EEA0303 		and	r3, lr, r3
 517              		.loc 1 345 16 view .LVU173
ARM GAS  C:\Users\HP\AppData\Local\Temp\cca9e973.s 			page 10


 518 0040 D360     		str	r3, [r2, #12]
 519              		.loc 1 348 5 is_stmt 1 view .LVU174
 520              		.loc 1 348 15 is_stmt 0 view .LVU175
 521 0042 DCF80030 		ldr	r3, [ip]
 522              		.loc 1 348 22 view .LVU176
 523 0046 03F0C063 		and	r3, r3, #100663296
 524              		.loc 1 348 8 view .LVU177
 525 004a B3F1C06F 		cmp	r3, #100663296
 526 004e 01D0     		beq	.L47
 527              		.loc 1 358 10 view .LVU178
 528 0050 0020     		movs	r0, #0
 529              	.LVL36:
 530              		.loc 1 358 10 view .LVU179
 531 0052 13E0     		b	.L39
 532              	.LVL37:
 533              	.L47:
 534              		.loc 1 350 7 is_stmt 1 view .LVU180
 535              		.loc 1 352 7 view .LVU181
 536              		.loc 1 352 37 is_stmt 0 view .LVU182
 537 0054 8008     		lsrs	r0, r0, #2
 538              	.LVL38:
 539              		.loc 1 352 14 view .LVU183
 540 0056 0B49     		ldr	r1, .L48+4
 541 0058 0230     		adds	r0, r0, #2
 542 005a 51F82030 		ldr	r3, [r1, r0, lsl #2]
 543              	.LVL39:
 544              		.loc 1 353 7 is_stmt 1 view .LVU184
 545              		.loc 1 353 76 is_stmt 0 view .LVU185
 546 005e 04F00304 		and	r4, r4, #3
 547              	.LVL40:
 548              		.loc 1 353 65 view .LVU186
 549 0062 A400     		lsls	r4, r4, #2
 550              		.loc 1 353 38 view .LVU187
 551 0064 0F22     		movs	r2, #15
 552 0066 02FA04F4 		lsl	r4, r2, r4
 553              		.loc 1 353 14 view .LVU188
 554 006a 23EA0404 		bic	r4, r3, r4
 555              	.LVL41:
 556              		.loc 1 354 7 is_stmt 1 view .LVU189
 557              		.loc 1 354 35 is_stmt 0 view .LVU190
 558 006e 41F82040 		str	r4, [r1, r0, lsl #2]
 559              		.loc 1 358 10 view .LVU191
 560 0072 0020     		movs	r0, #0
 561 0074 02E0     		b	.L39
 562              	.LVL42:
 563              	.L40:
 564              	.LCFI9:
 565              		.cfi_def_cfa_offset 0
 566              		.cfi_restore 4
 567              		.cfi_restore 14
 568              		.loc 1 325 12 view .LVU192
 569 0076 0120     		movs	r0, #1
 570              	.LVL43:
 571              		.loc 1 359 1 view .LVU193
 572 0078 7047     		bx	lr
 573              	.LVL44:
 574              	.L41:
ARM GAS  C:\Users\HP\AppData\Local\Temp\cca9e973.s 			page 11


 575              	.LCFI10:
 576              		.cfi_def_cfa_offset 8
 577              		.cfi_offset 4, -8
 578              		.cfi_offset 14, -4
 579              		.loc 1 358 10 view .LVU194
 580 007a 0020     		movs	r0, #0
 581              	.LVL45:
 582              	.L39:
 583              		.loc 1 359 1 view .LVU195
 584 007c 10BD     		pop	{r4, pc}
 585              	.L49:
 586 007e 00BF     		.align	2
 587              	.L48:
 588 0080 00040140 		.word	1073808384
 589 0084 00000140 		.word	1073807360
 590              		.cfi_endproc
 591              	.LFE67:
 593              		.section	.text.HAL_EXTI_RegisterCallback,"ax",%progbits
 594              		.align	1
 595              		.global	HAL_EXTI_RegisterCallback
 596              		.syntax unified
 597              		.thumb
 598              		.thumb_func
 599              		.fpu softvfp
 601              	HAL_EXTI_RegisterCallback:
 602              	.LVL46:
 603              	.LFB68:
 604              		.loc 1 370 1 is_stmt 1 view -0
 605              		.cfi_startproc
 606              		@ args = 0, pretend = 0, frame = 0
 607              		@ frame_needed = 0, uses_anonymous_args = 0
 608              		@ link register save eliminated.
 609              		.loc 1 370 1 is_stmt 0 view .LVU197
 610 0000 0346     		mov	r3, r0
 611              		.loc 1 371 3 is_stmt 1 view .LVU198
 612              	.LVL47:
 613              		.loc 1 373 3 view .LVU199
 614 0002 0846     		mov	r0, r1
 615              	.LVL48:
 616              		.loc 1 373 3 is_stmt 0 view .LVU200
 617 0004 09B9     		cbnz	r1, .L52
 618              		.loc 1 376 7 is_stmt 1 view .LVU201
 619              		.loc 1 376 30 is_stmt 0 view .LVU202
 620 0006 5A60     		str	r2, [r3, #4]
 621              		.loc 1 377 7 is_stmt 1 view .LVU203
 622 0008 7047     		bx	lr
 623              	.L52:
 624              		.loc 1 380 14 is_stmt 0 view .LVU204
 625 000a 0120     		movs	r0, #1
 626              	.LVL49:
 627              		.loc 1 384 3 is_stmt 1 view .LVU205
 628              		.loc 1 385 1 is_stmt 0 view .LVU206
 629 000c 7047     		bx	lr
 630              		.cfi_endproc
 631              	.LFE68:
 633              		.section	.text.HAL_EXTI_GetHandle,"ax",%progbits
 634              		.align	1
ARM GAS  C:\Users\HP\AppData\Local\Temp\cca9e973.s 			page 12


 635              		.global	HAL_EXTI_GetHandle
 636              		.syntax unified
 637              		.thumb
 638              		.thumb_func
 639              		.fpu softvfp
 641              	HAL_EXTI_GetHandle:
 642              	.LVL50:
 643              	.LFB69:
 644              		.loc 1 395 1 is_stmt 1 view -0
 645              		.cfi_startproc
 646              		@ args = 0, pretend = 0, frame = 0
 647              		@ frame_needed = 0, uses_anonymous_args = 0
 648              		@ link register save eliminated.
 649              		.loc 1 397 3 view .LVU208
 650              		.loc 1 400 3 view .LVU209
 651              		.loc 1 400 6 is_stmt 0 view .LVU210
 652 0000 10B1     		cbz	r0, .L55
 653              		.loc 1 407 5 is_stmt 1 view .LVU211
 654              		.loc 1 407 17 is_stmt 0 view .LVU212
 655 0002 0160     		str	r1, [r0]
 656              		.loc 1 409 5 is_stmt 1 view .LVU213
 657              		.loc 1 409 12 is_stmt 0 view .LVU214
 658 0004 0020     		movs	r0, #0
 659              	.LVL51:
 660              		.loc 1 409 12 view .LVU215
 661 0006 7047     		bx	lr
 662              	.LVL52:
 663              	.L55:
 664              		.loc 1 402 12 view .LVU216
 665 0008 0120     		movs	r0, #1
 666              	.LVL53:
 667              		.loc 1 411 1 view .LVU217
 668 000a 7047     		bx	lr
 669              		.cfi_endproc
 670              	.LFE69:
 672              		.section	.text.HAL_EXTI_IRQHandler,"ax",%progbits
 673              		.align	1
 674              		.global	HAL_EXTI_IRQHandler
 675              		.syntax unified
 676              		.thumb
 677              		.thumb_func
 678              		.fpu softvfp
 680              	HAL_EXTI_IRQHandler:
 681              	.LVL54:
 682              	.LFB70:
 683              		.loc 1 435 1 is_stmt 1 view -0
 684              		.cfi_startproc
 685              		@ args = 0, pretend = 0, frame = 0
 686              		@ frame_needed = 0, uses_anonymous_args = 0
 687              		.loc 1 435 1 is_stmt 0 view .LVU219
 688 0000 08B5     		push	{r3, lr}
 689              	.LCFI11:
 690              		.cfi_def_cfa_offset 8
 691              		.cfi_offset 3, -8
 692              		.cfi_offset 14, -4
 693              		.loc 1 436 3 is_stmt 1 view .LVU220
 694              		.loc 1 437 3 view .LVU221
ARM GAS  C:\Users\HP\AppData\Local\Temp\cca9e973.s 			page 13


 695              		.loc 1 440 3 view .LVU222
 696              		.loc 1 440 28 is_stmt 0 view .LVU223
 697 0002 0368     		ldr	r3, [r0]
 698              		.loc 1 440 35 view .LVU224
 699 0004 03F01F02 		and	r2, r3, #31
 700              		.loc 1 440 12 view .LVU225
 701 0008 0123     		movs	r3, #1
 702 000a 9340     		lsls	r3, r3, r2
 703              	.LVL55:
 704              		.loc 1 443 3 is_stmt 1 view .LVU226
 705              		.loc 1 443 17 is_stmt 0 view .LVU227
 706 000c 044A     		ldr	r2, .L59
 707 000e 5269     		ldr	r2, [r2, #20]
 708              	.LVL56:
 709              		.loc 1 444 3 is_stmt 1 view .LVU228
 710              		.loc 1 444 6 is_stmt 0 view .LVU229
 711 0010 1A42     		tst	r2, r3
 712 0012 04D0     		beq	.L56
 713              		.loc 1 447 5 is_stmt 1 view .LVU230
 714              		.loc 1 447 14 is_stmt 0 view .LVU231
 715 0014 024A     		ldr	r2, .L59
 716              	.LVL57:
 717              		.loc 1 447 14 view .LVU232
 718 0016 5361     		str	r3, [r2, #20]
 719              		.loc 1 450 5 is_stmt 1 view .LVU233
 720              		.loc 1 450 14 is_stmt 0 view .LVU234
 721 0018 4368     		ldr	r3, [r0, #4]
 722              	.LVL58:
 723              		.loc 1 450 8 view .LVU235
 724 001a 03B1     		cbz	r3, .L56
 725              		.loc 1 452 7 is_stmt 1 view .LVU236
 726 001c 9847     		blx	r3
 727              	.LVL59:
 728              	.L56:
 729              		.loc 1 455 1 is_stmt 0 view .LVU237
 730 001e 08BD     		pop	{r3, pc}
 731              	.L60:
 732              		.align	2
 733              	.L59:
 734 0020 00040140 		.word	1073808384
 735              		.cfi_endproc
 736              	.LFE70:
 738              		.section	.text.HAL_EXTI_GetPending,"ax",%progbits
 739              		.align	1
 740              		.global	HAL_EXTI_GetPending
 741              		.syntax unified
 742              		.thumb
 743              		.thumb_func
 744              		.fpu softvfp
 746              	HAL_EXTI_GetPending:
 747              	.LVL60:
 748              	.LFB71:
 749              		.loc 1 467 1 is_stmt 1 view -0
 750              		.cfi_startproc
 751              		@ args = 0, pretend = 0, frame = 0
 752              		@ frame_needed = 0, uses_anonymous_args = 0
 753              		@ link register save eliminated.
ARM GAS  C:\Users\HP\AppData\Local\Temp\cca9e973.s 			page 14


 754              		.loc 1 468 3 view .LVU239
 755              		.loc 1 469 3 view .LVU240
 756              		.loc 1 470 3 view .LVU241
 757              		.loc 1 473 3 view .LVU242
 758              		.loc 1 474 3 view .LVU243
 759              		.loc 1 475 3 view .LVU244
 760              		.loc 1 478 3 view .LVU245
 761              		.loc 1 481 3 view .LVU246
 762              		.loc 1 481 19 is_stmt 0 view .LVU247
 763 0000 0368     		ldr	r3, [r0]
 764              		.loc 1 481 11 view .LVU248
 765 0002 03F01F03 		and	r3, r3, #31
 766              	.LVL61:
 767              		.loc 1 482 3 is_stmt 1 view .LVU249
 768              		.loc 1 482 12 is_stmt 0 view .LVU250
 769 0006 0120     		movs	r0, #1
 770              	.LVL62:
 771              		.loc 1 482 12 view .LVU251
 772 0008 00FA03F2 		lsl	r2, r0, r3
 773              	.LVL63:
 774              		.loc 1 485 3 is_stmt 1 view .LVU252
 775              		.loc 1 485 18 is_stmt 0 view .LVU253
 776 000c 0249     		ldr	r1, .L62
 777              	.LVL64:
 778              		.loc 1 485 18 view .LVU254
 779 000e 4869     		ldr	r0, [r1, #20]
 780              		.loc 1 485 23 view .LVU255
 781 0010 1040     		ands	r0, r0, r2
 782              	.LVL65:
 783              		.loc 1 486 3 is_stmt 1 view .LVU256
 784              		.loc 1 487 1 is_stmt 0 view .LVU257
 785 0012 D840     		lsrs	r0, r0, r3
 786              	.LVL66:
 787              		.loc 1 487 1 view .LVU258
 788 0014 7047     		bx	lr
 789              	.L63:
 790 0016 00BF     		.align	2
 791              	.L62:
 792 0018 00040140 		.word	1073808384
 793              		.cfi_endproc
 794              	.LFE71:
 796              		.section	.text.HAL_EXTI_ClearPending,"ax",%progbits
 797              		.align	1
 798              		.global	HAL_EXTI_ClearPending
 799              		.syntax unified
 800              		.thumb
 801              		.thumb_func
 802              		.fpu softvfp
 804              	HAL_EXTI_ClearPending:
 805              	.LVL67:
 806              	.LFB72:
 807              		.loc 1 499 1 is_stmt 1 view -0
 808              		.cfi_startproc
 809              		@ args = 0, pretend = 0, frame = 0
 810              		@ frame_needed = 0, uses_anonymous_args = 0
 811              		@ link register save eliminated.
 812              		.loc 1 500 3 view .LVU260
ARM GAS  C:\Users\HP\AppData\Local\Temp\cca9e973.s 			page 15


 813              		.loc 1 503 3 view .LVU261
 814              		.loc 1 504 3 view .LVU262
 815              		.loc 1 505 3 view .LVU263
 816              		.loc 1 508 3 view .LVU264
 817              		.loc 1 511 3 view .LVU265
 818              		.loc 1 511 28 is_stmt 0 view .LVU266
 819 0000 0268     		ldr	r2, [r0]
 820              		.loc 1 511 35 view .LVU267
 821 0002 02F01F02 		and	r2, r2, #31
 822              		.loc 1 511 12 view .LVU268
 823 0006 0123     		movs	r3, #1
 824 0008 9340     		lsls	r3, r3, r2
 825              	.LVL68:
 826              		.loc 1 514 3 is_stmt 1 view .LVU269
 827              		.loc 1 514 12 is_stmt 0 view .LVU270
 828 000a 014A     		ldr	r2, .L65
 829 000c 5361     		str	r3, [r2, #20]
 830              		.loc 1 515 1 view .LVU271
 831 000e 7047     		bx	lr
 832              	.L66:
 833              		.align	2
 834              	.L65:
 835 0010 00040140 		.word	1073808384
 836              		.cfi_endproc
 837              	.LFE72:
 839              		.section	.text.HAL_EXTI_GenerateSWI,"ax",%progbits
 840              		.align	1
 841              		.global	HAL_EXTI_GenerateSWI
 842              		.syntax unified
 843              		.thumb
 844              		.thumb_func
 845              		.fpu softvfp
 847              	HAL_EXTI_GenerateSWI:
 848              	.LVL69:
 849              	.LFB73:
 850              		.loc 1 523 1 is_stmt 1 view -0
 851              		.cfi_startproc
 852              		@ args = 0, pretend = 0, frame = 0
 853              		@ frame_needed = 0, uses_anonymous_args = 0
 854              		@ link register save eliminated.
 855              		.loc 1 524 3 view .LVU273
 856              		.loc 1 527 3 view .LVU274
 857              		.loc 1 528 3 view .LVU275
 858              		.loc 1 531 3 view .LVU276
 859              		.loc 1 531 28 is_stmt 0 view .LVU277
 860 0000 0268     		ldr	r2, [r0]
 861              		.loc 1 531 35 view .LVU278
 862 0002 02F01F02 		and	r2, r2, #31
 863              		.loc 1 531 12 view .LVU279
 864 0006 0123     		movs	r3, #1
 865 0008 9340     		lsls	r3, r3, r2
 866              	.LVL70:
 867              		.loc 1 534 3 is_stmt 1 view .LVU280
 868              		.loc 1 534 15 is_stmt 0 view .LVU281
 869 000a 014A     		ldr	r2, .L68
 870 000c 1361     		str	r3, [r2, #16]
 871              		.loc 1 535 1 view .LVU282
ARM GAS  C:\Users\HP\AppData\Local\Temp\cca9e973.s 			page 16


 872 000e 7047     		bx	lr
 873              	.L69:
 874              		.align	2
 875              	.L68:
 876 0010 00040140 		.word	1073808384
 877              		.cfi_endproc
 878              	.LFE73:
 880              		.text
 881              	.Letext0:
 882              		.file 2 "../d:\\program files\\gnu mcu\\arm-none-eabi-gcc-10.2.1-1.1\\arm-none-eabi\\include\\mach
 883              		.file 3 "../d:\\program files\\gnu mcu\\arm-none-eabi-gcc-10.2.1-1.1\\arm-none-eabi\\include\\sys\
 884              		.file 4 "../Drivers/CMSIS/Device/ST/STM32F1xx/Include/stm32f103x6.h"
 885              		.file 5 "../Drivers/STM32F1xx_HAL_Driver/Inc/stm32f1xx_hal_def.h"
 886              		.file 6 "../Drivers/STM32F1xx_HAL_Driver/Inc/stm32f1xx_hal_exti.h"
ARM GAS  C:\Users\HP\AppData\Local\Temp\cca9e973.s 			page 17

