ARM GAS  C:\Users\HP\AppData\Local\Temp\ccnuJuXq.s 			page 1


   1              		.cpu cortex-m3
   2              		.eabi_attribute 20, 1
   3              		.eabi_attribute 21, 1
   4              		.eabi_attribute 23, 3
   5              		.eabi_attribute 24, 1
   6              		.eabi_attribute 25, 1
   7              		.eabi_attribute 26, 1
   8              		.eabi_attribute 30, 1
   9              		.eabi_attribute 34, 1
  10              		.eabi_attribute 18, 4
  11              		.file	"stm32f1xx_hal_dma.c"
  12              		.text
  13              	.Ltext0:
  14              		.cfi_sections	.debug_frame
  15              		.section	.text.DMA_SetConfig,"ax",%progbits
  16              		.align	1
  17              		.arch armv7-m
  18              		.syntax unified
  19              		.thumb
  20              		.thumb_func
  21              		.fpu softvfp
  23              	DMA_SetConfig:
  24              	.LVL0:
  25              	.LFB77:
  26              		.file 1 "../Drivers/STM32F1xx_HAL_Driver/Src/stm32f1xx_hal_dma.c"
   1:../Drivers/STM32F1xx_HAL_Driver/Src/stm32f1xx_hal_dma.c **** 
  27              		.loc 1 858 1 view -0
  28              		.cfi_startproc
  29              		@ args = 0, pretend = 0, frame = 0
  30              		@ frame_needed = 0, uses_anonymous_args = 0
  31              		@ link register save eliminated.
  32              		.loc 1 858 1 is_stmt 0 view .LVU1
  33 0000 30B4     		push	{r4, r5}
  34              	.LCFI0:
  35              		.cfi_def_cfa_offset 8
  36              		.cfi_offset 4, -8
  37              		.cfi_offset 5, -4
  38              		.loc 1 860 3 is_stmt 1 view .LVU2
  39              		.loc 1 860 46 is_stmt 0 view .LVU3
  40 0002 0124     		movs	r4, #1
  41 0004 056C     		ldr	r5, [r0, #64]
  42 0006 AC40     		lsls	r4, r4, r5
  43              		.loc 1 860 30 view .LVU4
  44 0008 C56B     		ldr	r5, [r0, #60]
  45 000a 6C60     		str	r4, [r5, #4]
  46              		.loc 1 863 3 is_stmt 1 view .LVU5
  47              		.loc 1 863 7 is_stmt 0 view .LVU6
  48 000c 0468     		ldr	r4, [r0]
  49              		.loc 1 863 25 view .LVU7
  50 000e 6360     		str	r3, [r4, #4]
  51              		.loc 1 866 3 is_stmt 1 view .LVU8
  52              		.loc 1 866 17 is_stmt 0 view .LVU9
  53 0010 4368     		ldr	r3, [r0, #4]
  54              	.LVL1:
  55              		.loc 1 866 5 view .LVU10
  56 0012 102B     		cmp	r3, #16
  57 0014 05D0     		beq	.L5
ARM GAS  C:\Users\HP\AppData\Local\Temp\ccnuJuXq.s 			page 2


  58              		.loc 1 878 5 is_stmt 1 view .LVU11
  59              		.loc 1 878 9 is_stmt 0 view .LVU12
  60 0016 0368     		ldr	r3, [r0]
  61              		.loc 1 878 26 view .LVU13
  62 0018 9960     		str	r1, [r3, #8]
  63              	.LVL2:
  64              		.loc 1 881 5 is_stmt 1 view .LVU14
  65              		.loc 1 881 9 is_stmt 0 view .LVU15
  66 001a 0368     		ldr	r3, [r0]
  67              		.loc 1 881 26 view .LVU16
  68 001c DA60     		str	r2, [r3, #12]
  69              	.L1:
  70              		.loc 1 883 1 view .LVU17
  71 001e 30BC     		pop	{r4, r5}
  72              	.LCFI1:
  73              		.cfi_remember_state
  74              		.cfi_restore 5
  75              		.cfi_restore 4
  76              		.cfi_def_cfa_offset 0
  77 0020 7047     		bx	lr
  78              	.LVL3:
  79              	.L5:
  80              	.LCFI2:
  81              		.cfi_restore_state
  82              		.loc 1 869 5 is_stmt 1 view .LVU18
  83              		.loc 1 869 9 is_stmt 0 view .LVU19
  84 0022 0368     		ldr	r3, [r0]
  85              		.loc 1 869 26 view .LVU20
  86 0024 9A60     		str	r2, [r3, #8]
  87              	.LVL4:
  88              		.loc 1 872 5 is_stmt 1 view .LVU21
  89              		.loc 1 872 9 is_stmt 0 view .LVU22
  90 0026 0368     		ldr	r3, [r0]
  91              		.loc 1 872 26 view .LVU23
  92 0028 D960     		str	r1, [r3, #12]
  93 002a F8E7     		b	.L1
  94              		.cfi_endproc
  95              	.LFE77:
  97              		.section	.text.HAL_DMA_Init,"ax",%progbits
  98              		.align	1
  99              		.global	HAL_DMA_Init
 100              		.syntax unified
 101              		.thumb
 102              		.thumb_func
 103              		.fpu softvfp
 105              	HAL_DMA_Init:
 106              	.LVL5:
 107              	.LFB65:
 108              		.loc 1 143 1 is_stmt 1 view -0
 109              		.cfi_startproc
 110              		@ args = 0, pretend = 0, frame = 0
 111              		@ frame_needed = 0, uses_anonymous_args = 0
 112              		@ link register save eliminated.
 113              		.loc 1 144 3 view .LVU25
 114              		.loc 1 147 3 view .LVU26
 115              		.loc 1 147 5 is_stmt 0 view .LVU27
 116 0000 60B3     		cbz	r0, .L8
ARM GAS  C:\Users\HP\AppData\Local\Temp\ccnuJuXq.s 			page 3


 117              		.loc 1 143 1 view .LVU28
 118 0002 10B4     		push	{r4}
 119              	.LCFI3:
 120              		.cfi_def_cfa_offset 4
 121              		.cfi_offset 4, -4
 122 0004 0246     		mov	r2, r0
 123              		.loc 1 153 3 is_stmt 1 view .LVU29
 124              		.loc 1 154 3 view .LVU30
 125              		.loc 1 155 3 view .LVU31
 126              		.loc 1 156 3 view .LVU32
 127              		.loc 1 157 3 view .LVU33
 128              		.loc 1 158 3 view .LVU34
 129              		.loc 1 159 3 view .LVU35
 130              		.loc 1 160 3 view .LVU36
 131              		.loc 1 178 3 view .LVU37
 132              		.loc 1 178 40 is_stmt 0 view .LVU38
 133 0006 0168     		ldr	r1, [r0]
 134              		.loc 1 178 51 view .LVU39
 135 0008 154B     		ldr	r3, .L13
 136 000a 0B44     		add	r3, r3, r1
 137              		.loc 1 178 78 view .LVU40
 138 000c 1548     		ldr	r0, .L13+4
 139              	.LVL6:
 140              		.loc 1 178 78 view .LVU41
 141 000e A0FB0303 		umull	r0, r3, r0, r3
 142 0012 1B09     		lsrs	r3, r3, #4
 143              		.loc 1 178 133 view .LVU42
 144 0014 9B00     		lsls	r3, r3, #2
 145              		.loc 1 178 22 view .LVU43
 146 0016 1364     		str	r3, [r2, #64]
 147              		.loc 1 179 3 is_stmt 1 view .LVU44
 148              		.loc 1 179 24 is_stmt 0 view .LVU45
 149 0018 134B     		ldr	r3, .L13+8
 150 001a D363     		str	r3, [r2, #60]
 151              		.loc 1 183 3 is_stmt 1 view .LVU46
 152              		.loc 1 183 15 is_stmt 0 view .LVU47
 153 001c 0223     		movs	r3, #2
 154 001e 82F82130 		strb	r3, [r2, #33]
 155              		.loc 1 186 3 is_stmt 1 view .LVU48
 156              		.loc 1 186 7 is_stmt 0 view .LVU49
 157 0022 0868     		ldr	r0, [r1]
 158              	.LVL7:
 159              		.loc 1 189 3 is_stmt 1 view .LVU50
 160              		.loc 1 189 7 is_stmt 0 view .LVU51
 161 0024 20F47F50 		bic	r0, r0, #16320
 162              	.LVL8:
 163              		.loc 1 189 7 view .LVU52
 164 0028 20F03000 		bic	r0, r0, #48
 165              	.LVL9:
 166              		.loc 1 194 3 is_stmt 1 view .LVU53
 167              		.loc 1 194 21 is_stmt 0 view .LVU54
 168 002c 5368     		ldr	r3, [r2, #4]
 169              		.loc 1 194 39 view .LVU55
 170 002e 9468     		ldr	r4, [r2, #8]
 171 0030 2343     		orrs	r3, r3, r4
 172              		.loc 1 195 42 view .LVU56
 173 0032 D468     		ldr	r4, [r2, #12]
ARM GAS  C:\Users\HP\AppData\Local\Temp\ccnuJuXq.s 			page 4


 174 0034 2343     		orrs	r3, r3, r4
 175              		.loc 1 195 72 view .LVU57
 176 0036 1469     		ldr	r4, [r2, #16]
 177 0038 2343     		orrs	r3, r3, r4
 178              		.loc 1 196 42 view .LVU58
 179 003a 5469     		ldr	r4, [r2, #20]
 180 003c 2343     		orrs	r3, r3, r4
 181              		.loc 1 196 72 view .LVU59
 182 003e 9469     		ldr	r4, [r2, #24]
 183 0040 2343     		orrs	r3, r3, r4
 184              		.loc 1 197 42 view .LVU60
 185 0042 D469     		ldr	r4, [r2, #28]
 186 0044 2343     		orrs	r3, r3, r4
 187              		.loc 1 194 7 view .LVU61
 188 0046 0343     		orrs	r3, r3, r0
 189              	.LVL10:
 190              		.loc 1 200 3 is_stmt 1 view .LVU62
 191              		.loc 1 200 23 is_stmt 0 view .LVU63
 192 0048 0B60     		str	r3, [r1]
 193              		.loc 1 203 3 is_stmt 1 view .LVU64
 194              		.loc 1 203 19 is_stmt 0 view .LVU65
 195 004a 0020     		movs	r0, #0
 196 004c 9063     		str	r0, [r2, #56]
 197              		.loc 1 206 3 is_stmt 1 view .LVU66
 198              		.loc 1 206 15 is_stmt 0 view .LVU67
 199 004e 0123     		movs	r3, #1
 200              	.LVL11:
 201              		.loc 1 206 15 view .LVU68
 202 0050 82F82130 		strb	r3, [r2, #33]
 203              		.loc 1 208 3 is_stmt 1 view .LVU69
 204              		.loc 1 208 14 is_stmt 0 view .LVU70
 205 0054 82F82000 		strb	r0, [r2, #32]
 206              		.loc 1 210 3 is_stmt 1 view .LVU71
 207              		.loc 1 211 1 is_stmt 0 view .LVU72
 208 0058 10BC     		pop	{r4}
 209              	.LCFI4:
 210              		.cfi_restore 4
 211              		.cfi_def_cfa_offset 0
 212 005a 7047     		bx	lr
 213              	.LVL12:
 214              	.L8:
 215              		.loc 1 149 12 view .LVU73
 216 005c 0120     		movs	r0, #1
 217              	.LVL13:
 218              		.loc 1 211 1 view .LVU74
 219 005e 7047     		bx	lr
 220              	.L14:
 221              		.align	2
 222              	.L13:
 223 0060 F8FFFDBF 		.word	-1073872904
 224 0064 CDCCCCCC 		.word	-858993459
 225 0068 00000240 		.word	1073872896
 226              		.cfi_endproc
 227              	.LFE65:
 229              		.section	.text.HAL_DMA_DeInit,"ax",%progbits
 230              		.align	1
 231              		.global	HAL_DMA_DeInit
ARM GAS  C:\Users\HP\AppData\Local\Temp\ccnuJuXq.s 			page 5


 232              		.syntax unified
 233              		.thumb
 234              		.thumb_func
 235              		.fpu softvfp
 237              	HAL_DMA_DeInit:
 238              	.LVL14:
 239              	.LFB66:
 240              		.loc 1 220 1 is_stmt 1 view -0
 241              		.cfi_startproc
 242              		@ args = 0, pretend = 0, frame = 0
 243              		@ frame_needed = 0, uses_anonymous_args = 0
 244              		@ link register save eliminated.
 245              		.loc 1 222 3 view .LVU76
 246              		.loc 1 222 5 is_stmt 0 view .LVU77
 247 0000 0028     		cmp	r0, #0
 248 0002 29D0     		beq	.L17
 249              		.loc 1 220 1 view .LVU78
 250 0004 10B4     		push	{r4}
 251              	.LCFI5:
 252              		.cfi_def_cfa_offset 4
 253              		.cfi_offset 4, -4
 254 0006 0346     		mov	r3, r0
 255              		.loc 1 228 3 is_stmt 1 view .LVU79
 256              		.loc 1 231 3 view .LVU80
 257 0008 0168     		ldr	r1, [r0]
 258 000a 0A68     		ldr	r2, [r1]
 259 000c 22F00102 		bic	r2, r2, #1
 260 0010 0A60     		str	r2, [r1]
 261              		.loc 1 234 3 view .LVU81
 262              		.loc 1 234 7 is_stmt 0 view .LVU82
 263 0012 0268     		ldr	r2, [r0]
 264              		.loc 1 234 24 view .LVU83
 265 0014 0020     		movs	r0, #0
 266              	.LVL15:
 267              		.loc 1 234 24 view .LVU84
 268 0016 1060     		str	r0, [r2]
 269              		.loc 1 237 3 is_stmt 1 view .LVU85
 270              		.loc 1 237 7 is_stmt 0 view .LVU86
 271 0018 1A68     		ldr	r2, [r3]
 272              		.loc 1 237 25 view .LVU87
 273 001a 5060     		str	r0, [r2, #4]
 274              		.loc 1 240 3 is_stmt 1 view .LVU88
 275              		.loc 1 240 7 is_stmt 0 view .LVU89
 276 001c 1A68     		ldr	r2, [r3]
 277              		.loc 1 240 25 view .LVU90
 278 001e 9060     		str	r0, [r2, #8]
 279              		.loc 1 243 3 is_stmt 1 view .LVU91
 280              		.loc 1 243 7 is_stmt 0 view .LVU92
 281 0020 1A68     		ldr	r2, [r3]
 282              		.loc 1 243 24 view .LVU93
 283 0022 D060     		str	r0, [r2, #12]
 284              		.loc 1 261 3 is_stmt 1 view .LVU94
 285              		.loc 1 261 40 is_stmt 0 view .LVU95
 286 0024 1968     		ldr	r1, [r3]
 287              		.loc 1 261 51 view .LVU96
 288 0026 0D4A     		ldr	r2, .L22
 289 0028 0A44     		add	r2, r2, r1
ARM GAS  C:\Users\HP\AppData\Local\Temp\ccnuJuXq.s 			page 6


 290              		.loc 1 261 78 view .LVU97
 291 002a 0D49     		ldr	r1, .L22+4
 292 002c A1FB0212 		umull	r1, r2, r1, r2
 293 0030 1209     		lsrs	r2, r2, #4
 294              		.loc 1 261 133 view .LVU98
 295 0032 9200     		lsls	r2, r2, #2
 296              		.loc 1 261 22 view .LVU99
 297 0034 1A64     		str	r2, [r3, #64]
 298              		.loc 1 262 3 is_stmt 1 view .LVU100
 299              		.loc 1 262 24 is_stmt 0 view .LVU101
 300 0036 0B4C     		ldr	r4, .L22+8
 301 0038 DC63     		str	r4, [r3, #60]
 302              		.loc 1 266 3 is_stmt 1 view .LVU102
 303              		.loc 1 266 46 is_stmt 0 view .LVU103
 304 003a 0121     		movs	r1, #1
 305 003c 01FA02F2 		lsl	r2, r1, r2
 306              		.loc 1 266 30 view .LVU104
 307 0040 6260     		str	r2, [r4, #4]
 308              		.loc 1 269 3 is_stmt 1 view .LVU105
 309              		.loc 1 269 26 is_stmt 0 view .LVU106
 310 0042 9862     		str	r0, [r3, #40]
 311              		.loc 1 270 3 is_stmt 1 view .LVU107
 312              		.loc 1 270 30 is_stmt 0 view .LVU108
 313 0044 D862     		str	r0, [r3, #44]
 314              		.loc 1 271 3 is_stmt 1 view .LVU109
 315              		.loc 1 271 27 is_stmt 0 view .LVU110
 316 0046 1863     		str	r0, [r3, #48]
 317              		.loc 1 272 3 is_stmt 1 view .LVU111
 318              		.loc 1 272 27 is_stmt 0 view .LVU112
 319 0048 5863     		str	r0, [r3, #52]
 320              		.loc 1 275 3 is_stmt 1 view .LVU113
 321              		.loc 1 275 19 is_stmt 0 view .LVU114
 322 004a 9863     		str	r0, [r3, #56]
 323              		.loc 1 278 3 is_stmt 1 view .LVU115
 324              		.loc 1 278 15 is_stmt 0 view .LVU116
 325 004c 83F82100 		strb	r0, [r3, #33]
 326              		.loc 1 281 3 is_stmt 1 view .LVU117
 327              		.loc 1 281 3 view .LVU118
 328 0050 83F82000 		strb	r0, [r3, #32]
 329              		.loc 1 281 3 view .LVU119
 330              		.loc 1 283 3 view .LVU120
 331              		.loc 1 284 1 is_stmt 0 view .LVU121
 332 0054 10BC     		pop	{r4}
 333              	.LCFI6:
 334              		.cfi_restore 4
 335              		.cfi_def_cfa_offset 0
 336 0056 7047     		bx	lr
 337              	.LVL16:
 338              	.L17:
 339              		.loc 1 224 12 view .LVU122
 340 0058 0120     		movs	r0, #1
 341              	.LVL17:
 342              		.loc 1 284 1 view .LVU123
 343 005a 7047     		bx	lr
 344              	.L23:
 345              		.align	2
 346              	.L22:
ARM GAS  C:\Users\HP\AppData\Local\Temp\ccnuJuXq.s 			page 7


 347 005c F8FFFDBF 		.word	-1073872904
 348 0060 CDCCCCCC 		.word	-858993459
 349 0064 00000240 		.word	1073872896
 350              		.cfi_endproc
 351              	.LFE66:
 353              		.section	.text.HAL_DMA_Start,"ax",%progbits
 354              		.align	1
 355              		.global	HAL_DMA_Start
 356              		.syntax unified
 357              		.thumb
 358              		.thumb_func
 359              		.fpu softvfp
 361              	HAL_DMA_Start:
 362              	.LVL18:
 363              	.LFB67:
 364              		.loc 1 319 1 is_stmt 1 view -0
 365              		.cfi_startproc
 366              		@ args = 0, pretend = 0, frame = 0
 367              		@ frame_needed = 0, uses_anonymous_args = 0
 368              		.loc 1 319 1 is_stmt 0 view .LVU125
 369 0000 70B5     		push	{r4, r5, r6, lr}
 370              	.LCFI7:
 371              		.cfi_def_cfa_offset 16
 372              		.cfi_offset 4, -16
 373              		.cfi_offset 5, -12
 374              		.cfi_offset 6, -8
 375              		.cfi_offset 14, -4
 376 0002 0446     		mov	r4, r0
 377              		.loc 1 320 3 is_stmt 1 view .LVU126
 378              	.LVL19:
 379              		.loc 1 323 3 view .LVU127
 380              		.loc 1 326 3 view .LVU128
 381              		.loc 1 326 3 view .LVU129
 382 0004 90F82000 		ldrb	r0, [r0, #32]	@ zero_extendqisi2
 383              	.LVL20:
 384              		.loc 1 326 3 is_stmt 0 view .LVU130
 385 0008 0128     		cmp	r0, #1
 386 000a 20D0     		beq	.L27
 387              		.loc 1 326 3 is_stmt 1 discriminator 2 view .LVU131
 388 000c 0120     		movs	r0, #1
 389 000e 84F82000 		strb	r0, [r4, #32]
 390              		.loc 1 326 3 discriminator 2 view .LVU132
 391              		.loc 1 328 3 discriminator 2 view .LVU133
 392              		.loc 1 328 33 is_stmt 0 discriminator 2 view .LVU134
 393 0012 94F82100 		ldrb	r0, [r4, #33]	@ zero_extendqisi2
 394 0016 C0B2     		uxtb	r0, r0
 395              		.loc 1 328 5 discriminator 2 view .LVU135
 396 0018 0128     		cmp	r0, #1
 397 001a 04D0     		beq	.L29
 398              		.loc 1 346 4 is_stmt 1 view .LVU136
 399              		.loc 1 346 4 view .LVU137
 400 001c 0023     		movs	r3, #0
 401              	.LVL21:
 402              		.loc 1 346 4 is_stmt 0 view .LVU138
 403 001e 84F82030 		strb	r3, [r4, #32]
 404              		.loc 1 346 4 is_stmt 1 view .LVU139
 405              		.loc 1 347 4 view .LVU140
ARM GAS  C:\Users\HP\AppData\Local\Temp\ccnuJuXq.s 			page 8


 406              	.LVL22:
 407              		.loc 1 347 11 is_stmt 0 view .LVU141
 408 0022 0220     		movs	r0, #2
 409              	.LVL23:
 410              	.L25:
 411              		.loc 1 350 1 view .LVU142
 412 0024 70BD     		pop	{r4, r5, r6, pc}
 413              	.LVL24:
 414              	.L29:
 415              		.loc 1 331 5 is_stmt 1 view .LVU143
 416              		.loc 1 331 17 is_stmt 0 view .LVU144
 417 0026 0220     		movs	r0, #2
 418 0028 84F82100 		strb	r0, [r4, #33]
 419              		.loc 1 332 5 is_stmt 1 view .LVU145
 420              		.loc 1 332 21 is_stmt 0 view .LVU146
 421 002c 0025     		movs	r5, #0
 422 002e A563     		str	r5, [r4, #56]
 423              		.loc 1 335 5 is_stmt 1 view .LVU147
 424 0030 2668     		ldr	r6, [r4]
 425 0032 3068     		ldr	r0, [r6]
 426 0034 20F00100 		bic	r0, r0, #1
 427 0038 3060     		str	r0, [r6]
 428              		.loc 1 338 5 view .LVU148
 429 003a 2046     		mov	r0, r4
 430 003c 054E     		ldr	r6, .L30
 431 003e B047     		blx	r6
 432              	.LVL25:
 433              		.loc 1 341 5 view .LVU149
 434 0040 2268     		ldr	r2, [r4]
 435 0042 1368     		ldr	r3, [r2]
 436 0044 43F00103 		orr	r3, r3, #1
 437 0048 1360     		str	r3, [r2]
 438              		.loc 1 320 21 is_stmt 0 view .LVU150
 439 004a 2846     		mov	r0, r5
 440 004c EAE7     		b	.L25
 441              	.LVL26:
 442              	.L27:
 443              		.loc 1 326 3 view .LVU151
 444 004e 0220     		movs	r0, #2
 445 0050 E8E7     		b	.L25
 446              	.L31:
 447 0052 00BF     		.align	2
 448              	.L30:
 449 0054 00000000 		.word	DMA_SetConfig
 450              		.cfi_endproc
 451              	.LFE67:
 453              		.section	.text.HAL_DMA_Start_IT,"ax",%progbits
 454              		.align	1
 455              		.global	HAL_DMA_Start_IT
 456              		.syntax unified
 457              		.thumb
 458              		.thumb_func
 459              		.fpu softvfp
 461              	HAL_DMA_Start_IT:
 462              	.LVL27:
 463              	.LFB68:
 464              		.loc 1 362 1 is_stmt 1 view -0
ARM GAS  C:\Users\HP\AppData\Local\Temp\ccnuJuXq.s 			page 9


 465              		.cfi_startproc
 466              		@ args = 0, pretend = 0, frame = 0
 467              		@ frame_needed = 0, uses_anonymous_args = 0
 468              		.loc 1 362 1 is_stmt 0 view .LVU153
 469 0000 38B5     		push	{r3, r4, r5, lr}
 470              	.LCFI8:
 471              		.cfi_def_cfa_offset 16
 472              		.cfi_offset 3, -16
 473              		.cfi_offset 4, -12
 474              		.cfi_offset 5, -8
 475              		.cfi_offset 14, -4
 476 0002 0446     		mov	r4, r0
 477              		.loc 1 363 3 is_stmt 1 view .LVU154
 478              	.LVL28:
 479              		.loc 1 366 3 view .LVU155
 480              		.loc 1 369 3 view .LVU156
 481              		.loc 1 369 3 view .LVU157
 482 0004 90F82000 		ldrb	r0, [r0, #32]	@ zero_extendqisi2
 483              	.LVL29:
 484              		.loc 1 369 3 is_stmt 0 view .LVU158
 485 0008 0128     		cmp	r0, #1
 486 000a 32D0     		beq	.L37
 487              		.loc 1 369 3 is_stmt 1 discriminator 2 view .LVU159
 488 000c 0120     		movs	r0, #1
 489 000e 84F82000 		strb	r0, [r4, #32]
 490              		.loc 1 369 3 discriminator 2 view .LVU160
 491              		.loc 1 371 3 discriminator 2 view .LVU161
 492              		.loc 1 371 33 is_stmt 0 discriminator 2 view .LVU162
 493 0012 94F82100 		ldrb	r0, [r4, #33]	@ zero_extendqisi2
 494 0016 C0B2     		uxtb	r0, r0
 495              		.loc 1 371 5 discriminator 2 view .LVU163
 496 0018 0128     		cmp	r0, #1
 497 001a 04D0     		beq	.L39
 498              		.loc 1 401 5 is_stmt 1 view .LVU164
 499              		.loc 1 401 5 view .LVU165
 500 001c 0023     		movs	r3, #0
 501              	.LVL30:
 502              		.loc 1 401 5 is_stmt 0 view .LVU166
 503 001e 84F82030 		strb	r3, [r4, #32]
 504              		.loc 1 401 5 is_stmt 1 view .LVU167
 505              		.loc 1 404 5 view .LVU168
 506              	.LVL31:
 507              		.loc 1 404 12 is_stmt 0 view .LVU169
 508 0022 0220     		movs	r0, #2
 509              	.LVL32:
 510              	.L33:
 511              		.loc 1 407 1 view .LVU170
 512 0024 38BD     		pop	{r3, r4, r5, pc}
 513              	.LVL33:
 514              	.L39:
 515              		.loc 1 374 5 is_stmt 1 view .LVU171
 516              		.loc 1 374 17 is_stmt 0 view .LVU172
 517 0026 0220     		movs	r0, #2
 518 0028 84F82100 		strb	r0, [r4, #33]
 519              		.loc 1 375 5 is_stmt 1 view .LVU173
 520              		.loc 1 375 21 is_stmt 0 view .LVU174
 521 002c 0020     		movs	r0, #0
ARM GAS  C:\Users\HP\AppData\Local\Temp\ccnuJuXq.s 			page 10


 522 002e A063     		str	r0, [r4, #56]
 523              		.loc 1 378 5 is_stmt 1 view .LVU175
 524 0030 2568     		ldr	r5, [r4]
 525 0032 2868     		ldr	r0, [r5]
 526 0034 20F00100 		bic	r0, r0, #1
 527 0038 2860     		str	r0, [r5]
 528              		.loc 1 381 5 view .LVU176
 529 003a 2046     		mov	r0, r4
 530 003c 0E4D     		ldr	r5, .L40
 531 003e A847     		blx	r5
 532              	.LVL34:
 533              		.loc 1 385 5 view .LVU177
 534              		.loc 1 385 20 is_stmt 0 view .LVU178
 535 0040 E36A     		ldr	r3, [r4, #44]
 536              		.loc 1 385 7 view .LVU179
 537 0042 5BB1     		cbz	r3, .L35
 538              		.loc 1 388 7 is_stmt 1 view .LVU180
 539 0044 2268     		ldr	r2, [r4]
 540 0046 1368     		ldr	r3, [r2]
 541 0048 43F00E03 		orr	r3, r3, #14
 542 004c 1360     		str	r3, [r2]
 543              	.L36:
 544              		.loc 1 396 5 view .LVU181
 545 004e 2268     		ldr	r2, [r4]
 546 0050 1368     		ldr	r3, [r2]
 547 0052 43F00103 		orr	r3, r3, #1
 548 0056 1360     		str	r3, [r2]
 549              		.loc 1 363 21 is_stmt 0 view .LVU182
 550 0058 0020     		movs	r0, #0
 551 005a E3E7     		b	.L33
 552              	.L35:
 553              		.loc 1 392 7 is_stmt 1 view .LVU183
 554 005c 2268     		ldr	r2, [r4]
 555 005e 1368     		ldr	r3, [r2]
 556 0060 23F00403 		bic	r3, r3, #4
 557 0064 1360     		str	r3, [r2]
 558              		.loc 1 393 7 view .LVU184
 559 0066 2268     		ldr	r2, [r4]
 560 0068 1368     		ldr	r3, [r2]
 561 006a 43F00A03 		orr	r3, r3, #10
 562 006e 1360     		str	r3, [r2]
 563 0070 EDE7     		b	.L36
 564              	.LVL35:
 565              	.L37:
 566              		.loc 1 369 3 is_stmt 0 view .LVU185
 567 0072 0220     		movs	r0, #2
 568 0074 D6E7     		b	.L33
 569              	.L41:
 570 0076 00BF     		.align	2
 571              	.L40:
 572 0078 00000000 		.word	DMA_SetConfig
 573              		.cfi_endproc
 574              	.LFE68:
 576              		.section	.text.HAL_DMA_Abort,"ax",%progbits
 577              		.align	1
 578              		.global	HAL_DMA_Abort
 579              		.syntax unified
ARM GAS  C:\Users\HP\AppData\Local\Temp\ccnuJuXq.s 			page 11


 580              		.thumb
 581              		.thumb_func
 582              		.fpu softvfp
 584              	HAL_DMA_Abort:
 585              	.LVL36:
 586              	.LFB69:
 587              		.loc 1 416 1 is_stmt 1 view -0
 588              		.cfi_startproc
 589              		@ args = 0, pretend = 0, frame = 0
 590              		@ frame_needed = 0, uses_anonymous_args = 0
 591              		@ link register save eliminated.
 592              		.loc 1 417 3 view .LVU187
 593              		.loc 1 419 3 view .LVU188
 594              		.loc 1 419 10 is_stmt 0 view .LVU189
 595 0000 90F82130 		ldrb	r3, [r0, #33]	@ zero_extendqisi2
 596 0004 DBB2     		uxtb	r3, r3
 597              		.loc 1 419 5 view .LVU190
 598 0006 022B     		cmp	r3, #2
 599 0008 06D0     		beq	.L43
 600              		.loc 1 422 5 is_stmt 1 view .LVU191
 601              		.loc 1 422 21 is_stmt 0 view .LVU192
 602 000a 0423     		movs	r3, #4
 603 000c 8363     		str	r3, [r0, #56]
 604              		.loc 1 425 5 is_stmt 1 view .LVU193
 605              		.loc 1 425 5 view .LVU194
 606 000e 0023     		movs	r3, #0
 607 0010 80F82030 		strb	r3, [r0, #32]
 608              		.loc 1 425 5 view .LVU195
 609              		.loc 1 427 5 view .LVU196
 610              		.loc 1 427 12 is_stmt 0 view .LVU197
 611 0014 0120     		movs	r0, #1
 612              	.LVL37:
 613              		.loc 1 427 12 view .LVU198
 614 0016 7047     		bx	lr
 615              	.LVL38:
 616              	.L43:
 617              		.loc 1 433 5 is_stmt 1 view .LVU199
 618 0018 0268     		ldr	r2, [r0]
 619 001a 1368     		ldr	r3, [r2]
 620 001c 23F00E03 		bic	r3, r3, #14
 621 0020 1360     		str	r3, [r2]
 622              		.loc 1 436 5 view .LVU200
 623 0022 0268     		ldr	r2, [r0]
 624 0024 1368     		ldr	r3, [r2]
 625 0026 23F00103 		bic	r3, r3, #1
 626 002a 1360     		str	r3, [r2]
 627              		.loc 1 439 5 view .LVU201
 628              		.loc 1 439 55 is_stmt 0 view .LVU202
 629 002c 036C     		ldr	r3, [r0, #64]
 630              		.loc 1 439 9 view .LVU203
 631 002e C16B     		ldr	r1, [r0, #60]
 632              		.loc 1 439 48 view .LVU204
 633 0030 0122     		movs	r2, #1
 634 0032 02FA03F3 		lsl	r3, r2, r3
 635              		.loc 1 439 32 view .LVU205
 636 0036 4B60     		str	r3, [r1, #4]
 637              		.loc 1 442 3 is_stmt 1 view .LVU206
ARM GAS  C:\Users\HP\AppData\Local\Temp\ccnuJuXq.s 			page 12


 638              		.loc 1 442 15 is_stmt 0 view .LVU207
 639 0038 80F82120 		strb	r2, [r0, #33]
 640              		.loc 1 445 3 is_stmt 1 view .LVU208
 641              		.loc 1 445 3 view .LVU209
 642 003c 0023     		movs	r3, #0
 643 003e 80F82030 		strb	r3, [r0, #32]
 644              		.loc 1 445 3 view .LVU210
 645              		.loc 1 447 3 view .LVU211
 646              		.loc 1 447 10 is_stmt 0 view .LVU212
 647 0042 1846     		mov	r0, r3
 648              	.LVL39:
 649              		.loc 1 448 1 view .LVU213
 650 0044 7047     		bx	lr
 651              		.cfi_endproc
 652              	.LFE69:
 654              		.section	.text.HAL_DMA_Abort_IT,"ax",%progbits
 655              		.align	1
 656              		.global	HAL_DMA_Abort_IT
 657              		.syntax unified
 658              		.thumb
 659              		.thumb_func
 660              		.fpu softvfp
 662              	HAL_DMA_Abort_IT:
 663              	.LVL40:
 664              	.LFB70:
 665              		.loc 1 457 1 is_stmt 1 view -0
 666              		.cfi_startproc
 667              		@ args = 0, pretend = 0, frame = 0
 668              		@ frame_needed = 0, uses_anonymous_args = 0
 669              		.loc 1 457 1 is_stmt 0 view .LVU215
 670 0000 08B5     		push	{r3, lr}
 671              	.LCFI9:
 672              		.cfi_def_cfa_offset 8
 673              		.cfi_offset 3, -8
 674              		.cfi_offset 14, -4
 675              		.loc 1 458 3 is_stmt 1 view .LVU216
 676              	.LVL41:
 677              		.loc 1 460 3 view .LVU217
 678              		.loc 1 460 32 is_stmt 0 view .LVU218
 679 0002 90F82130 		ldrb	r3, [r0, #33]	@ zero_extendqisi2
 680 0006 DBB2     		uxtb	r3, r3
 681              		.loc 1 460 5 view .LVU219
 682 0008 022B     		cmp	r3, #2
 683 000a 03D0     		beq	.L46
 684              		.loc 1 463 5 is_stmt 1 view .LVU220
 685              		.loc 1 463 21 is_stmt 0 view .LVU221
 686 000c 0423     		movs	r3, #4
 687 000e 8363     		str	r3, [r0, #56]
 688              		.loc 1 465 5 is_stmt 1 view .LVU222
 689              	.LVL42:
 690              		.loc 1 465 12 is_stmt 0 view .LVU223
 691 0010 0120     		movs	r0, #1
 692              	.LVL43:
 693              	.L47:
 694              		.loc 1 490 3 is_stmt 1 view .LVU224
 695              		.loc 1 491 1 is_stmt 0 view .LVU225
 696 0012 08BD     		pop	{r3, pc}
ARM GAS  C:\Users\HP\AppData\Local\Temp\ccnuJuXq.s 			page 13


 697              	.LVL44:
 698              	.L46:
 699              		.loc 1 470 5 is_stmt 1 view .LVU226
 700 0014 0268     		ldr	r2, [r0]
 701 0016 1368     		ldr	r3, [r2]
 702 0018 23F00E03 		bic	r3, r3, #14
 703 001c 1360     		str	r3, [r2]
 704              		.loc 1 473 5 view .LVU227
 705 001e 0268     		ldr	r2, [r0]
 706 0020 1368     		ldr	r3, [r2]
 707 0022 23F00103 		bic	r3, r3, #1
 708 0026 1360     		str	r3, [r2]
 709              		.loc 1 476 5 view .LVU228
 710 0028 0368     		ldr	r3, [r0]
 711 002a 194A     		ldr	r2, .L58
 712 002c 9342     		cmp	r3, r2
 713 002e 14D0     		beq	.L49
 714              		.loc 1 476 5 is_stmt 0 discriminator 1 view .LVU229
 715 0030 1432     		adds	r2, r2, #20
 716 0032 9342     		cmp	r3, r2
 717 0034 1FD0     		beq	.L50
 718              		.loc 1 476 5 discriminator 3 view .LVU230
 719 0036 1432     		adds	r2, r2, #20
 720 0038 9342     		cmp	r3, r2
 721 003a 1ED0     		beq	.L51
 722              		.loc 1 476 5 discriminator 5 view .LVU231
 723 003c 1432     		adds	r2, r2, #20
 724 003e 9342     		cmp	r3, r2
 725 0040 1ED0     		beq	.L52
 726              		.loc 1 476 5 discriminator 7 view .LVU232
 727 0042 1432     		adds	r2, r2, #20
 728 0044 9342     		cmp	r3, r2
 729 0046 1ED0     		beq	.L53
 730              		.loc 1 476 5 discriminator 9 view .LVU233
 731 0048 1432     		adds	r2, r2, #20
 732 004a 9342     		cmp	r3, r2
 733 004c 02D0     		beq	.L57
 734              		.loc 1 476 5 view .LVU234
 735 004e 4FF08072 		mov	r2, #16777216
 736 0052 03E0     		b	.L48
 737              	.L57:
 738 0054 4FF48012 		mov	r2, #1048576
 739 0058 00E0     		b	.L48
 740              	.L49:
 741 005a 0122     		movs	r2, #1
 742              	.L48:
 743              		.loc 1 476 5 discriminator 24 view .LVU235
 744 005c 0D4B     		ldr	r3, .L58+4
 745 005e 5A60     		str	r2, [r3, #4]
 746              		.loc 1 479 5 is_stmt 1 discriminator 24 view .LVU236
 747              		.loc 1 479 17 is_stmt 0 discriminator 24 view .LVU237
 748 0060 0123     		movs	r3, #1
 749 0062 80F82130 		strb	r3, [r0, #33]
 750              		.loc 1 482 5 is_stmt 1 discriminator 24 view .LVU238
 751              		.loc 1 482 5 discriminator 24 view .LVU239
 752 0066 0023     		movs	r3, #0
 753 0068 80F82030 		strb	r3, [r0, #32]
ARM GAS  C:\Users\HP\AppData\Local\Temp\ccnuJuXq.s 			page 14


 754              		.loc 1 482 5 discriminator 24 view .LVU240
 755              		.loc 1 485 5 discriminator 24 view .LVU241
 756              		.loc 1 485 12 is_stmt 0 discriminator 24 view .LVU242
 757 006c 436B     		ldr	r3, [r0, #52]
 758              		.loc 1 485 7 discriminator 24 view .LVU243
 759 006e 6BB1     		cbz	r3, .L55
 760              		.loc 1 487 7 is_stmt 1 view .LVU244
 761 0070 9847     		blx	r3
 762              	.LVL45:
 763              		.loc 1 458 21 is_stmt 0 view .LVU245
 764 0072 0020     		movs	r0, #0
 765 0074 CDE7     		b	.L47
 766              	.LVL46:
 767              	.L50:
 768              		.loc 1 476 5 view .LVU246
 769 0076 1022     		movs	r2, #16
 770 0078 F0E7     		b	.L48
 771              	.L51:
 772 007a 4FF48072 		mov	r2, #256
 773 007e EDE7     		b	.L48
 774              	.L52:
 775 0080 4FF48052 		mov	r2, #4096
 776 0084 EAE7     		b	.L48
 777              	.L53:
 778 0086 4FF48032 		mov	r2, #65536
 779 008a E7E7     		b	.L48
 780              	.L55:
 781              		.loc 1 458 21 view .LVU247
 782 008c 0020     		movs	r0, #0
 783              	.LVL47:
 784              		.loc 1 458 21 view .LVU248
 785 008e C0E7     		b	.L47
 786              	.L59:
 787              		.align	2
 788              	.L58:
 789 0090 08000240 		.word	1073872904
 790 0094 00000240 		.word	1073872896
 791              		.cfi_endproc
 792              	.LFE70:
 794              		.section	.text.HAL_DMA_PollForTransfer,"ax",%progbits
 795              		.align	1
 796              		.global	HAL_DMA_PollForTransfer
 797              		.syntax unified
 798              		.thumb
 799              		.thumb_func
 800              		.fpu softvfp
 802              	HAL_DMA_PollForTransfer:
 803              	.LVL48:
 804              	.LFB71:
 805              		.loc 1 502 1 is_stmt 1 view -0
 806              		.cfi_startproc
 807              		@ args = 0, pretend = 0, frame = 0
 808              		@ frame_needed = 0, uses_anonymous_args = 0
 809              		.loc 1 502 1 is_stmt 0 view .LVU250
 810 0000 2DE9F041 		push	{r4, r5, r6, r7, r8, lr}
 811              	.LCFI10:
 812              		.cfi_def_cfa_offset 24
ARM GAS  C:\Users\HP\AppData\Local\Temp\ccnuJuXq.s 			page 15


 813              		.cfi_offset 4, -24
 814              		.cfi_offset 5, -20
 815              		.cfi_offset 6, -16
 816              		.cfi_offset 7, -12
 817              		.cfi_offset 8, -8
 818              		.cfi_offset 14, -4
 819 0004 0446     		mov	r4, r0
 820              		.loc 1 503 3 is_stmt 1 view .LVU251
 821              		.loc 1 504 3 view .LVU252
 822              	.LVL49:
 823              		.loc 1 506 3 view .LVU253
 824              		.loc 1 506 32 is_stmt 0 view .LVU254
 825 0006 90F82130 		ldrb	r3, [r0, #33]	@ zero_extendqisi2
 826 000a DBB2     		uxtb	r3, r3
 827              		.loc 1 506 5 view .LVU255
 828 000c 022B     		cmp	r3, #2
 829 000e 07D0     		beq	.L61
 830              		.loc 1 509 5 is_stmt 1 view .LVU256
 831              		.loc 1 509 21 is_stmt 0 view .LVU257
 832 0010 0423     		movs	r3, #4
 833 0012 8363     		str	r3, [r0, #56]
 834              		.loc 1 510 5 is_stmt 1 view .LVU258
 835              		.loc 1 510 5 view .LVU259
 836 0014 0023     		movs	r3, #0
 837 0016 80F82030 		strb	r3, [r0, #32]
 838              		.loc 1 510 5 view .LVU260
 839              		.loc 1 511 5 view .LVU261
 840              		.loc 1 511 12 is_stmt 0 view .LVU262
 841 001a 0120     		movs	r0, #1
 842              	.LVL50:
 843              	.L62:
 844              		.loc 1 594 1 view .LVU263
 845 001c BDE8F081 		pop	{r4, r5, r6, r7, r8, pc}
 846              	.LVL51:
 847              	.L61:
 848              		.loc 1 594 1 view .LVU264
 849 0020 0F46     		mov	r7, r1
 850 0022 1546     		mov	r5, r2
 851              		.loc 1 515 3 is_stmt 1 view .LVU265
 852              		.loc 1 515 21 is_stmt 0 view .LVU266
 853 0024 0368     		ldr	r3, [r0]
 854              		.loc 1 515 31 view .LVU267
 855 0026 1A68     		ldr	r2, [r3]
 856              	.LVL52:
 857              		.loc 1 515 6 view .LVU268
 858 0028 12F0200F 		tst	r2, #32
 859 002c 15D1     		bne	.L107
 860              		.loc 1 522 3 is_stmt 1 view .LVU269
 861              		.loc 1 522 5 is_stmt 0 view .LVU270
 862 002e E1B9     		cbnz	r1, .L64
 863              		.loc 1 525 5 is_stmt 1 view .LVU271
 864              		.loc 1 525 12 is_stmt 0 view .LVU272
 865 0030 7C4A     		ldr	r2, .L116
 866 0032 9342     		cmp	r3, r2
 867 0034 31D0     		beq	.L76
 868              		.loc 1 525 12 discriminator 1 view .LVU273
 869 0036 1432     		adds	r2, r2, #20
ARM GAS  C:\Users\HP\AppData\Local\Temp\ccnuJuXq.s 			page 16


 870 0038 9342     		cmp	r3, r2
 871 003a 33D0     		beq	.L77
 872              		.loc 1 525 12 discriminator 3 view .LVU274
 873 003c 1432     		adds	r2, r2, #20
 874 003e 9342     		cmp	r3, r2
 875 0040 32D0     		beq	.L78
 876              		.loc 1 525 12 discriminator 5 view .LVU275
 877 0042 1432     		adds	r2, r2, #20
 878 0044 9342     		cmp	r3, r2
 879 0046 32D0     		beq	.L79
 880              		.loc 1 525 12 discriminator 7 view .LVU276
 881 0048 1432     		adds	r2, r2, #20
 882 004a 9342     		cmp	r3, r2
 883 004c 32D0     		beq	.L80
 884              		.loc 1 525 12 discriminator 9 view .LVU277
 885 004e 1432     		adds	r2, r2, #20
 886 0050 9342     		cmp	r3, r2
 887 0052 07D0     		beq	.L108
 888              		.loc 1 525 12 view .LVU278
 889 0054 4FF00076 		mov	r6, #33554432
 890 0058 20E0     		b	.L65
 891              	.L107:
 892              		.loc 1 517 5 is_stmt 1 view .LVU279
 893              		.loc 1 517 21 is_stmt 0 view .LVU280
 894 005a 4FF48073 		mov	r3, #256
 895 005e 8363     		str	r3, [r0, #56]
 896              		.loc 1 518 5 is_stmt 1 view .LVU281
 897              		.loc 1 518 12 is_stmt 0 view .LVU282
 898 0060 0120     		movs	r0, #1
 899              	.LVL53:
 900              		.loc 1 518 12 view .LVU283
 901 0062 DBE7     		b	.L62
 902              	.LVL54:
 903              	.L108:
 904              		.loc 1 525 12 view .LVU284
 905 0064 4FF40016 		mov	r6, #2097152
 906 0068 18E0     		b	.L65
 907              	.L64:
 908              		.loc 1 530 5 is_stmt 1 view .LVU285
 909              		.loc 1 530 12 is_stmt 0 view .LVU286
 910 006a 6E4A     		ldr	r2, .L116
 911 006c 9342     		cmp	r3, r2
 912 006e 24D0     		beq	.L82
 913              		.loc 1 530 12 discriminator 1 view .LVU287
 914 0070 1432     		adds	r2, r2, #20
 915 0072 9342     		cmp	r3, r2
 916 0074 23D0     		beq	.L83
 917              		.loc 1 530 12 discriminator 3 view .LVU288
 918 0076 1432     		adds	r2, r2, #20
 919 0078 9342     		cmp	r3, r2
 920 007a 22D0     		beq	.L84
 921              		.loc 1 530 12 discriminator 5 view .LVU289
 922 007c 1432     		adds	r2, r2, #20
 923 007e 9342     		cmp	r3, r2
 924 0080 22D0     		beq	.L85
 925              		.loc 1 530 12 discriminator 7 view .LVU290
 926 0082 1432     		adds	r2, r2, #20
ARM GAS  C:\Users\HP\AppData\Local\Temp\ccnuJuXq.s 			page 17


 927 0084 9342     		cmp	r3, r2
 928 0086 22D0     		beq	.L86
 929              		.loc 1 530 12 discriminator 9 view .LVU291
 930 0088 1432     		adds	r2, r2, #20
 931 008a 9342     		cmp	r3, r2
 932 008c 02D0     		beq	.L109
 933              		.loc 1 530 12 view .LVU292
 934 008e 4FF08066 		mov	r6, #67108864
 935 0092 03E0     		b	.L65
 936              	.L109:
 937 0094 4FF48006 		mov	r6, #4194304
 938 0098 00E0     		b	.L65
 939              	.L76:
 940              		.loc 1 525 12 view .LVU293
 941 009a 0226     		movs	r6, #2
 942              	.L65:
 943              	.LVL55:
 944              		.loc 1 534 3 is_stmt 1 view .LVU294
 945              		.loc 1 534 15 is_stmt 0 view .LVU295
 946 009c 624B     		ldr	r3, .L116+4
 947 009e 9847     		blx	r3
 948              	.LVL56:
 949              		.loc 1 534 15 view .LVU296
 950 00a0 8046     		mov	r8, r0
 951              	.LVL57:
 952              		.loc 1 536 3 is_stmt 1 view .LVU297
 953              		.loc 1 536 8 is_stmt 0 view .LVU298
 954 00a2 20E0     		b	.L69
 955              	.LVL58:
 956              	.L77:
 957              		.loc 1 525 12 view .LVU299
 958 00a4 2026     		movs	r6, #32
 959 00a6 F9E7     		b	.L65
 960              	.L78:
 961 00a8 4FF40076 		mov	r6, #512
 962 00ac F6E7     		b	.L65
 963              	.L79:
 964 00ae 4FF40056 		mov	r6, #8192
 965 00b2 F3E7     		b	.L65
 966              	.L80:
 967 00b4 4FF40036 		mov	r6, #131072
 968 00b8 F0E7     		b	.L65
 969              	.L82:
 970              		.loc 1 530 12 view .LVU300
 971 00ba 0426     		movs	r6, #4
 972 00bc EEE7     		b	.L65
 973              	.L83:
 974 00be 4026     		movs	r6, #64
 975 00c0 ECE7     		b	.L65
 976              	.L84:
 977 00c2 4FF48066 		mov	r6, #1024
 978 00c6 E9E7     		b	.L65
 979              	.L85:
 980 00c8 4FF48046 		mov	r6, #16384
 981 00cc E6E7     		b	.L65
 982              	.L86:
 983 00ce 4FF48026 		mov	r6, #262144
ARM GAS  C:\Users\HP\AppData\Local\Temp\ccnuJuXq.s 			page 18


 984 00d2 E3E7     		b	.L65
 985              	.LVL59:
 986              	.L113:
 987              		.loc 1 538 9 view .LVU301
 988 00d4 4FF40003 		mov	r3, #8388608
 989 00d8 00E0     		b	.L67
 990              	.L88:
 991 00da 0823     		movs	r3, #8
 992              	.L67:
 993              		.loc 1 538 7 discriminator 24 view .LVU302
 994 00dc 1A42     		tst	r2, r3
 995 00de 29D1     		bne	.L110
 996              		.loc 1 557 5 is_stmt 1 view .LVU303
 997              		.loc 1 557 7 is_stmt 0 view .LVU304
 998 00e0 B5F1FF3F 		cmp	r5, #-1
 999 00e4 35D1     		bne	.L111
 1000              	.L69:
 1001              		.loc 1 536 8 is_stmt 1 view .LVU305
 1002              		.loc 1 536 9 is_stmt 0 view .LVU306
 1003 00e6 514B     		ldr	r3, .L116+8
 1004 00e8 1B68     		ldr	r3, [r3]
 1005              		.loc 1 536 8 view .LVU307
 1006 00ea 3342     		tst	r3, r6
 1007 00ec 43D1     		bne	.L112
 1008              		.loc 1 538 5 is_stmt 1 view .LVU308
 1009              		.loc 1 538 9 is_stmt 0 view .LVU309
 1010 00ee 4F4B     		ldr	r3, .L116+8
 1011 00f0 1A68     		ldr	r2, [r3]
 1012 00f2 2368     		ldr	r3, [r4]
 1013 00f4 4B49     		ldr	r1, .L116
 1014 00f6 8B42     		cmp	r3, r1
 1015 00f8 EFD0     		beq	.L88
 1016              		.loc 1 538 9 discriminator 1 view .LVU310
 1017 00fa 1431     		adds	r1, r1, #20
 1018 00fc 8B42     		cmp	r3, r1
 1019 00fe 0ED0     		beq	.L89
 1020              		.loc 1 538 9 discriminator 3 view .LVU311
 1021 0100 1431     		adds	r1, r1, #20
 1022 0102 8B42     		cmp	r3, r1
 1023 0104 0DD0     		beq	.L90
 1024              		.loc 1 538 9 discriminator 5 view .LVU312
 1025 0106 1431     		adds	r1, r1, #20
 1026 0108 8B42     		cmp	r3, r1
 1027 010a 0DD0     		beq	.L91
 1028              		.loc 1 538 9 discriminator 7 view .LVU313
 1029 010c 1431     		adds	r1, r1, #20
 1030 010e 8B42     		cmp	r3, r1
 1031 0110 0DD0     		beq	.L92
 1032              		.loc 1 538 9 discriminator 9 view .LVU314
 1033 0112 1431     		adds	r1, r1, #20
 1034 0114 8B42     		cmp	r3, r1
 1035 0116 DDD0     		beq	.L113
 1036              		.loc 1 538 9 view .LVU315
 1037 0118 4FF00063 		mov	r3, #134217728
 1038 011c DEE7     		b	.L67
 1039              	.L89:
 1040 011e 8023     		movs	r3, #128
ARM GAS  C:\Users\HP\AppData\Local\Temp\ccnuJuXq.s 			page 19


 1041 0120 DCE7     		b	.L67
 1042              	.L90:
 1043 0122 4FF40063 		mov	r3, #2048
 1044 0126 D9E7     		b	.L67
 1045              	.L91:
 1046 0128 4FF40043 		mov	r3, #32768
 1047 012c D6E7     		b	.L67
 1048              	.L92:
 1049 012e 4FF40023 		mov	r3, #524288
 1050 0132 D3E7     		b	.L67
 1051              	.L110:
 1052              		.loc 1 543 7 is_stmt 1 view .LVU316
 1053              		.loc 1 543 57 is_stmt 0 view .LVU317
 1054 0134 236C     		ldr	r3, [r4, #64]
 1055              		.loc 1 543 11 view .LVU318
 1056 0136 E26B     		ldr	r2, [r4, #60]
 1057              		.loc 1 543 50 view .LVU319
 1058 0138 0120     		movs	r0, #1
 1059 013a 00FA03F3 		lsl	r3, r0, r3
 1060              		.loc 1 543 34 view .LVU320
 1061 013e 5360     		str	r3, [r2, #4]
 1062              		.loc 1 546 7 is_stmt 1 view .LVU321
 1063 0140 A36B     		ldr	r3, [r4, #56]
 1064 0142 0343     		orrs	r3, r3, r0
 1065 0144 A363     		str	r3, [r4, #56]
 1066              		.loc 1 549 7 view .LVU322
 1067              		.loc 1 549 18 is_stmt 0 view .LVU323
 1068 0146 84F82100 		strb	r0, [r4, #33]
 1069              		.loc 1 552 7 is_stmt 1 view .LVU324
 1070              		.loc 1 552 7 view .LVU325
 1071 014a 0023     		movs	r3, #0
 1072 014c 84F82030 		strb	r3, [r4, #32]
 1073              		.loc 1 552 7 view .LVU326
 1074              		.loc 1 554 7 view .LVU327
 1075              		.loc 1 554 14 is_stmt 0 view .LVU328
 1076 0150 64E7     		b	.L62
 1077              	.L111:
 1078              		.loc 1 559 7 is_stmt 1 view .LVU329
 1079              		.loc 1 559 9 is_stmt 0 view .LVU330
 1080 0152 2DB1     		cbz	r5, .L70
 1081              		.loc 1 559 31 discriminator 1 view .LVU331
 1082 0154 344B     		ldr	r3, .L116+4
 1083 0156 9847     		blx	r3
 1084              	.LVL60:
 1085              		.loc 1 559 45 discriminator 1 view .LVU332
 1086 0158 A0EB0800 		sub	r0, r0, r8
 1087              		.loc 1 559 26 discriminator 1 view .LVU333
 1088 015c A842     		cmp	r0, r5
 1089 015e C2D9     		bls	.L69
 1090              	.L70:
 1091              		.loc 1 562 9 is_stmt 1 view .LVU334
 1092 0160 A36B     		ldr	r3, [r4, #56]
 1093 0162 43F02003 		orr	r3, r3, #32
 1094 0166 A363     		str	r3, [r4, #56]
 1095              		.loc 1 565 9 view .LVU335
 1096              		.loc 1 565 21 is_stmt 0 view .LVU336
 1097 0168 0120     		movs	r0, #1
ARM GAS  C:\Users\HP\AppData\Local\Temp\ccnuJuXq.s 			page 20


 1098 016a 84F82100 		strb	r0, [r4, #33]
 1099              		.loc 1 568 9 is_stmt 1 view .LVU337
 1100              		.loc 1 568 9 view .LVU338
 1101 016e 0023     		movs	r3, #0
 1102 0170 84F82030 		strb	r3, [r4, #32]
 1103              		.loc 1 568 9 view .LVU339
 1104              		.loc 1 570 9 view .LVU340
 1105              		.loc 1 570 16 is_stmt 0 view .LVU341
 1106 0174 52E7     		b	.L62
 1107              	.L112:
 1108              		.loc 1 575 3 is_stmt 1 view .LVU342
 1109              		.loc 1 575 5 is_stmt 0 view .LVU343
 1110 0176 6FBB     		cbnz	r7, .L72
 1111              		.loc 1 578 5 is_stmt 1 view .LVU344
 1112 0178 2368     		ldr	r3, [r4]
 1113 017a 2A4A     		ldr	r2, .L116
 1114 017c 9342     		cmp	r3, r2
 1115 017e 14D0     		beq	.L94
 1116              		.loc 1 578 5 is_stmt 0 discriminator 1 view .LVU345
 1117 0180 1432     		adds	r2, r2, #20
 1118 0182 9342     		cmp	r3, r2
 1119 0184 1BD0     		beq	.L95
 1120              		.loc 1 578 5 discriminator 3 view .LVU346
 1121 0186 1432     		adds	r2, r2, #20
 1122 0188 9342     		cmp	r3, r2
 1123 018a 1AD0     		beq	.L96
 1124              		.loc 1 578 5 discriminator 5 view .LVU347
 1125 018c 1432     		adds	r2, r2, #20
 1126 018e 9342     		cmp	r3, r2
 1127 0190 1AD0     		beq	.L97
 1128              		.loc 1 578 5 discriminator 7 view .LVU348
 1129 0192 1432     		adds	r2, r2, #20
 1130 0194 9342     		cmp	r3, r2
 1131 0196 1AD0     		beq	.L98
 1132              		.loc 1 578 5 discriminator 9 view .LVU349
 1133 0198 1432     		adds	r2, r2, #20
 1134 019a 9342     		cmp	r3, r2
 1135 019c 02D0     		beq	.L114
 1136              		.loc 1 578 5 view .LVU350
 1137 019e 4FF00072 		mov	r2, #33554432
 1138 01a2 03E0     		b	.L73
 1139              	.L114:
 1140 01a4 4FF40012 		mov	r2, #2097152
 1141 01a8 00E0     		b	.L73
 1142              	.L94:
 1143 01aa 0222     		movs	r2, #2
 1144              	.L73:
 1145              		.loc 1 578 5 discriminator 24 view .LVU351
 1146 01ac 1F4B     		ldr	r3, .L116+8
 1147 01ae 5A60     		str	r2, [r3, #4]
 1148              		.loc 1 582 5 is_stmt 1 discriminator 24 view .LVU352
 1149              		.loc 1 582 17 is_stmt 0 discriminator 24 view .LVU353
 1150 01b0 0123     		movs	r3, #1
 1151 01b2 84F82130 		strb	r3, [r4, #33]
 1152              	.L74:
 1153              		.loc 1 591 3 is_stmt 1 view .LVU354
 1154              		.loc 1 591 3 view .LVU355
ARM GAS  C:\Users\HP\AppData\Local\Temp\ccnuJuXq.s 			page 21


 1155 01b6 0020     		movs	r0, #0
 1156 01b8 84F82000 		strb	r0, [r4, #32]
 1157              		.loc 1 591 3 view .LVU356
 1158              		.loc 1 593 3 view .LVU357
 1159              		.loc 1 593 10 is_stmt 0 view .LVU358
 1160 01bc 2EE7     		b	.L62
 1161              	.L95:
 1162              		.loc 1 578 5 view .LVU359
 1163 01be 2022     		movs	r2, #32
 1164 01c0 F4E7     		b	.L73
 1165              	.L96:
 1166 01c2 4FF40072 		mov	r2, #512
 1167 01c6 F1E7     		b	.L73
 1168              	.L97:
 1169 01c8 4FF40052 		mov	r2, #8192
 1170 01cc EEE7     		b	.L73
 1171              	.L98:
 1172 01ce 4FF40032 		mov	r2, #131072
 1173 01d2 EBE7     		b	.L73
 1174              	.L72:
 1175              		.loc 1 587 5 is_stmt 1 view .LVU360
 1176 01d4 2368     		ldr	r3, [r4]
 1177 01d6 134A     		ldr	r2, .L116
 1178 01d8 9342     		cmp	r3, r2
 1179 01da 14D0     		beq	.L100
 1180              		.loc 1 587 5 is_stmt 0 discriminator 1 view .LVU361
 1181 01dc 1432     		adds	r2, r2, #20
 1182 01de 9342     		cmp	r3, r2
 1183 01e0 15D0     		beq	.L101
 1184              		.loc 1 587 5 discriminator 3 view .LVU362
 1185 01e2 1432     		adds	r2, r2, #20
 1186 01e4 9342     		cmp	r3, r2
 1187 01e6 14D0     		beq	.L102
 1188              		.loc 1 587 5 discriminator 5 view .LVU363
 1189 01e8 1432     		adds	r2, r2, #20
 1190 01ea 9342     		cmp	r3, r2
 1191 01ec 14D0     		beq	.L103
 1192              		.loc 1 587 5 discriminator 7 view .LVU364
 1193 01ee 1432     		adds	r2, r2, #20
 1194 01f0 9342     		cmp	r3, r2
 1195 01f2 14D0     		beq	.L104
 1196              		.loc 1 587 5 discriminator 9 view .LVU365
 1197 01f4 1432     		adds	r2, r2, #20
 1198 01f6 9342     		cmp	r3, r2
 1199 01f8 02D0     		beq	.L115
 1200              		.loc 1 587 5 view .LVU366
 1201 01fa 4FF08062 		mov	r2, #67108864
 1202 01fe 03E0     		b	.L75
 1203              	.L115:
 1204 0200 4FF48002 		mov	r2, #4194304
 1205 0204 00E0     		b	.L75
 1206              	.L100:
 1207 0206 0422     		movs	r2, #4
 1208              	.L75:
 1209              		.loc 1 587 5 discriminator 24 view .LVU367
 1210 0208 084B     		ldr	r3, .L116+8
 1211 020a 5A60     		str	r2, [r3, #4]
ARM GAS  C:\Users\HP\AppData\Local\Temp\ccnuJuXq.s 			page 22


 1212 020c D3E7     		b	.L74
 1213              	.L101:
 1214              		.loc 1 587 5 view .LVU368
 1215 020e 4022     		movs	r2, #64
 1216 0210 FAE7     		b	.L75
 1217              	.L102:
 1218 0212 4FF48062 		mov	r2, #1024
 1219 0216 F7E7     		b	.L75
 1220              	.L103:
 1221 0218 4FF48042 		mov	r2, #16384
 1222 021c F4E7     		b	.L75
 1223              	.L104:
 1224 021e 4FF48022 		mov	r2, #262144
 1225 0222 F1E7     		b	.L75
 1226              	.L117:
 1227              		.align	2
 1228              	.L116:
 1229 0224 08000240 		.word	1073872904
 1230 0228 00000000 		.word	HAL_GetTick
 1231 022c 00000240 		.word	1073872896
 1232              		.cfi_endproc
 1233              	.LFE71:
 1235              		.section	.text.HAL_DMA_IRQHandler,"ax",%progbits
 1236              		.align	1
 1237              		.global	HAL_DMA_IRQHandler
 1238              		.syntax unified
 1239              		.thumb
 1240              		.thumb_func
 1241              		.fpu softvfp
 1243              	HAL_DMA_IRQHandler:
 1244              	.LVL61:
 1245              	.LFB72:
 1246              		.loc 1 603 1 is_stmt 1 view -0
 1247              		.cfi_startproc
 1248              		@ args = 0, pretend = 0, frame = 0
 1249              		@ frame_needed = 0, uses_anonymous_args = 0
 1250              		.loc 1 603 1 is_stmt 0 view .LVU370
 1251 0000 38B5     		push	{r3, r4, r5, lr}
 1252              	.LCFI11:
 1253              		.cfi_def_cfa_offset 16
 1254              		.cfi_offset 3, -16
 1255              		.cfi_offset 4, -12
 1256              		.cfi_offset 5, -8
 1257              		.cfi_offset 14, -4
 1258              		.loc 1 604 3 is_stmt 1 view .LVU371
 1259              		.loc 1 604 26 is_stmt 0 view .LVU372
 1260 0002 C36B     		ldr	r3, [r0, #60]
 1261              		.loc 1 604 12 view .LVU373
 1262 0004 1A68     		ldr	r2, [r3]
 1263              	.LVL62:
 1264              		.loc 1 605 3 is_stmt 1 view .LVU374
 1265              		.loc 1 605 28 is_stmt 0 view .LVU375
 1266 0006 0468     		ldr	r4, [r0]
 1267              		.loc 1 605 12 view .LVU376
 1268 0008 2568     		ldr	r5, [r4]
 1269              	.LVL63:
 1270              		.loc 1 608 3 is_stmt 1 view .LVU377
ARM GAS  C:\Users\HP\AppData\Local\Temp\ccnuJuXq.s 			page 23


 1271              		.loc 1 608 40 is_stmt 0 view .LVU378
 1272 000a 016C     		ldr	r1, [r0, #64]
 1273              		.loc 1 608 33 view .LVU379
 1274 000c 0423     		movs	r3, #4
 1275 000e 8B40     		lsls	r3, r3, r1
 1276              		.loc 1 608 6 view .LVU380
 1277 0010 1342     		tst	r3, r2
 1278 0012 35D0     		beq	.L119
 1279              		.loc 1 608 67 discriminator 1 view .LVU381
 1280 0014 15F0040F 		tst	r5, #4
 1281 0018 32D0     		beq	.L119
 1282              		.loc 1 611 5 is_stmt 1 view .LVU382
 1283              		.loc 1 611 23 is_stmt 0 view .LVU383
 1284 001a 2368     		ldr	r3, [r4]
 1285              		.loc 1 611 7 view .LVU384
 1286 001c 13F0200F 		tst	r3, #32
 1287 0020 03D1     		bne	.L120
 1288              		.loc 1 614 7 is_stmt 1 view .LVU385
 1289 0022 2368     		ldr	r3, [r4]
 1290 0024 23F00403 		bic	r3, r3, #4
 1291 0028 2360     		str	r3, [r4]
 1292              	.L120:
 1293              		.loc 1 617 5 view .LVU386
 1294 002a 0368     		ldr	r3, [r0]
 1295 002c 434A     		ldr	r2, .L141
 1296              	.LVL64:
 1297              		.loc 1 617 5 is_stmt 0 view .LVU387
 1298 002e 9342     		cmp	r3, r2
 1299 0030 14D0     		beq	.L126
 1300              		.loc 1 617 5 discriminator 1 view .LVU388
 1301 0032 1432     		adds	r2, r2, #20
 1302 0034 9342     		cmp	r3, r2
 1303 0036 18D0     		beq	.L127
 1304              		.loc 1 617 5 discriminator 3 view .LVU389
 1305 0038 1432     		adds	r2, r2, #20
 1306 003a 9342     		cmp	r3, r2
 1307 003c 17D0     		beq	.L128
 1308              		.loc 1 617 5 discriminator 5 view .LVU390
 1309 003e 1432     		adds	r2, r2, #20
 1310 0040 9342     		cmp	r3, r2
 1311 0042 17D0     		beq	.L129
 1312              		.loc 1 617 5 discriminator 7 view .LVU391
 1313 0044 1432     		adds	r2, r2, #20
 1314 0046 9342     		cmp	r3, r2
 1315 0048 17D0     		beq	.L130
 1316              		.loc 1 617 5 discriminator 9 view .LVU392
 1317 004a 1432     		adds	r2, r2, #20
 1318 004c 9342     		cmp	r3, r2
 1319 004e 02D0     		beq	.L139
 1320              		.loc 1 617 5 view .LVU393
 1321 0050 4FF08062 		mov	r2, #67108864
 1322 0054 03E0     		b	.L121
 1323              	.L139:
 1324 0056 4FF48002 		mov	r2, #4194304
 1325 005a 00E0     		b	.L121
 1326              	.L126:
 1327 005c 0422     		movs	r2, #4
ARM GAS  C:\Users\HP\AppData\Local\Temp\ccnuJuXq.s 			page 24


 1328              	.L121:
 1329              		.loc 1 617 5 discriminator 24 view .LVU394
 1330 005e 384B     		ldr	r3, .L141+4
 1331 0060 5A60     		str	r2, [r3, #4]
 1332              		.loc 1 622 5 is_stmt 1 discriminator 24 view .LVU395
 1333              		.loc 1 622 12 is_stmt 0 discriminator 24 view .LVU396
 1334 0062 C36A     		ldr	r3, [r0, #44]
 1335              		.loc 1 622 7 discriminator 24 view .LVU397
 1336 0064 03B1     		cbz	r3, .L118
 1337              		.loc 1 625 7 is_stmt 1 view .LVU398
 1338 0066 9847     		blx	r3
 1339              	.LVL65:
 1340              	.L118:
 1341              		.loc 1 680 1 is_stmt 0 view .LVU399
 1342 0068 38BD     		pop	{r3, r4, r5, pc}
 1343              	.LVL66:
 1344              	.L127:
 1345              		.loc 1 617 5 view .LVU400
 1346 006a 4022     		movs	r2, #64
 1347 006c F7E7     		b	.L121
 1348              	.L128:
 1349 006e 4FF48062 		mov	r2, #1024
 1350 0072 F4E7     		b	.L121
 1351              	.L129:
 1352 0074 4FF48042 		mov	r2, #16384
 1353 0078 F1E7     		b	.L121
 1354              	.L130:
 1355 007a 4FF48022 		mov	r2, #262144
 1356 007e EEE7     		b	.L121
 1357              	.LVL67:
 1358              	.L119:
 1359              		.loc 1 630 8 is_stmt 1 view .LVU401
 1360              		.loc 1 630 38 is_stmt 0 view .LVU402
 1361 0080 0223     		movs	r3, #2
 1362 0082 8B40     		lsls	r3, r3, r1
 1363              		.loc 1 630 11 view .LVU403
 1364 0084 1342     		tst	r3, r2
 1365 0086 3CD0     		beq	.L123
 1366              		.loc 1 630 72 discriminator 1 view .LVU404
 1367 0088 15F0020F 		tst	r5, #2
 1368 008c 39D0     		beq	.L123
 1369              		.loc 1 632 5 is_stmt 1 view .LVU405
 1370              		.loc 1 632 23 is_stmt 0 view .LVU406
 1371 008e 2368     		ldr	r3, [r4]
 1372              		.loc 1 632 7 view .LVU407
 1373 0090 13F0200F 		tst	r3, #32
 1374 0094 06D1     		bne	.L124
 1375              		.loc 1 635 7 is_stmt 1 view .LVU408
 1376 0096 2368     		ldr	r3, [r4]
 1377 0098 23F00A03 		bic	r3, r3, #10
 1378 009c 2360     		str	r3, [r4]
 1379              		.loc 1 638 7 view .LVU409
 1380              		.loc 1 638 19 is_stmt 0 view .LVU410
 1381 009e 0123     		movs	r3, #1
 1382 00a0 80F82130 		strb	r3, [r0, #33]
 1383              	.L124:
 1384              		.loc 1 641 7 is_stmt 1 view .LVU411
ARM GAS  C:\Users\HP\AppData\Local\Temp\ccnuJuXq.s 			page 25


 1385 00a4 0368     		ldr	r3, [r0]
 1386 00a6 254A     		ldr	r2, .L141
 1387              	.LVL68:
 1388              		.loc 1 641 7 is_stmt 0 view .LVU412
 1389 00a8 9342     		cmp	r3, r2
 1390 00aa 14D0     		beq	.L132
 1391              		.loc 1 641 7 discriminator 1 view .LVU413
 1392 00ac 1432     		adds	r2, r2, #20
 1393 00ae 9342     		cmp	r3, r2
 1394 00b0 1CD0     		beq	.L133
 1395              		.loc 1 641 7 discriminator 3 view .LVU414
 1396 00b2 1432     		adds	r2, r2, #20
 1397 00b4 9342     		cmp	r3, r2
 1398 00b6 1BD0     		beq	.L134
 1399              		.loc 1 641 7 discriminator 5 view .LVU415
 1400 00b8 1432     		adds	r2, r2, #20
 1401 00ba 9342     		cmp	r3, r2
 1402 00bc 1BD0     		beq	.L135
 1403              		.loc 1 641 7 discriminator 7 view .LVU416
 1404 00be 1432     		adds	r2, r2, #20
 1405 00c0 9342     		cmp	r3, r2
 1406 00c2 1BD0     		beq	.L136
 1407              		.loc 1 641 7 discriminator 9 view .LVU417
 1408 00c4 1432     		adds	r2, r2, #20
 1409 00c6 9342     		cmp	r3, r2
 1410 00c8 02D0     		beq	.L140
 1411              		.loc 1 641 7 view .LVU418
 1412 00ca 4FF00072 		mov	r2, #33554432
 1413 00ce 03E0     		b	.L125
 1414              	.L140:
 1415 00d0 4FF40012 		mov	r2, #2097152
 1416 00d4 00E0     		b	.L125
 1417              	.L132:
 1418 00d6 0222     		movs	r2, #2
 1419              	.L125:
 1420              		.loc 1 641 7 discriminator 24 view .LVU419
 1421 00d8 194B     		ldr	r3, .L141+4
 1422 00da 5A60     		str	r2, [r3, #4]
 1423              		.loc 1 644 5 is_stmt 1 discriminator 24 view .LVU420
 1424              		.loc 1 644 5 discriminator 24 view .LVU421
 1425 00dc 0023     		movs	r3, #0
 1426 00de 80F82030 		strb	r3, [r0, #32]
 1427              		.loc 1 644 5 discriminator 24 view .LVU422
 1428              		.loc 1 646 5 discriminator 24 view .LVU423
 1429              		.loc 1 646 12 is_stmt 0 discriminator 24 view .LVU424
 1430 00e2 836A     		ldr	r3, [r0, #40]
 1431              		.loc 1 646 7 discriminator 24 view .LVU425
 1432 00e4 002B     		cmp	r3, #0
 1433 00e6 BFD0     		beq	.L118
 1434              		.loc 1 649 7 is_stmt 1 view .LVU426
 1435 00e8 9847     		blx	r3
 1436              	.LVL69:
 1437              		.loc 1 649 7 is_stmt 0 view .LVU427
 1438 00ea BDE7     		b	.L118
 1439              	.LVL70:
 1440              	.L133:
 1441              		.loc 1 641 7 view .LVU428
ARM GAS  C:\Users\HP\AppData\Local\Temp\ccnuJuXq.s 			page 26


 1442 00ec 2022     		movs	r2, #32
 1443 00ee F3E7     		b	.L125
 1444              	.L134:
 1445 00f0 4FF40072 		mov	r2, #512
 1446 00f4 F0E7     		b	.L125
 1447              	.L135:
 1448 00f6 4FF40052 		mov	r2, #8192
 1449 00fa EDE7     		b	.L125
 1450              	.L136:
 1451 00fc 4FF40032 		mov	r2, #131072
 1452 0100 EAE7     		b	.L125
 1453              	.LVL71:
 1454              	.L123:
 1455              		.loc 1 654 8 is_stmt 1 view .LVU429
 1456              		.loc 1 654 48 is_stmt 0 view .LVU430
 1457 0102 0823     		movs	r3, #8
 1458 0104 03FA01F1 		lsl	r1, r3, r1
 1459              		.loc 1 654 11 view .LVU431
 1460 0108 1142     		tst	r1, r2
 1461 010a ADD0     		beq	.L118
 1462              		.loc 1 654 73 discriminator 1 view .LVU432
 1463 010c 15F0080F 		tst	r5, #8
 1464 0110 AAD0     		beq	.L118
 1465              		.loc 1 659 5 is_stmt 1 view .LVU433
 1466 0112 2368     		ldr	r3, [r4]
 1467 0114 23F00E03 		bic	r3, r3, #14
 1468 0118 2360     		str	r3, [r4]
 1469              		.loc 1 662 5 view .LVU434
 1470              		.loc 1 662 55 is_stmt 0 view .LVU435
 1471 011a 026C     		ldr	r2, [r0, #64]
 1472              	.LVL72:
 1473              		.loc 1 662 9 view .LVU436
 1474 011c C16B     		ldr	r1, [r0, #60]
 1475              		.loc 1 662 48 view .LVU437
 1476 011e 0123     		movs	r3, #1
 1477 0120 03FA02F2 		lsl	r2, r3, r2
 1478              		.loc 1 662 32 view .LVU438
 1479 0124 4A60     		str	r2, [r1, #4]
 1480              		.loc 1 665 5 is_stmt 1 view .LVU439
 1481              		.loc 1 665 21 is_stmt 0 view .LVU440
 1482 0126 8363     		str	r3, [r0, #56]
 1483              		.loc 1 668 5 is_stmt 1 view .LVU441
 1484              		.loc 1 668 17 is_stmt 0 view .LVU442
 1485 0128 80F82130 		strb	r3, [r0, #33]
 1486              		.loc 1 671 5 is_stmt 1 view .LVU443
 1487              		.loc 1 671 5 view .LVU444
 1488 012c 0023     		movs	r3, #0
 1489 012e 80F82030 		strb	r3, [r0, #32]
 1490              		.loc 1 671 5 view .LVU445
 1491              		.loc 1 673 5 view .LVU446
 1492              		.loc 1 673 13 is_stmt 0 view .LVU447
 1493 0132 036B     		ldr	r3, [r0, #48]
 1494              		.loc 1 673 8 view .LVU448
 1495 0134 002B     		cmp	r3, #0
 1496 0136 97D0     		beq	.L118
 1497              		.loc 1 676 7 is_stmt 1 view .LVU449
 1498 0138 9847     		blx	r3
ARM GAS  C:\Users\HP\AppData\Local\Temp\ccnuJuXq.s 			page 27


 1499              	.LVL73:
 1500              		.loc 1 679 3 view .LVU450
 1501 013a 95E7     		b	.L118
 1502              	.L142:
 1503              		.align	2
 1504              	.L141:
 1505 013c 08000240 		.word	1073872904
 1506 0140 00000240 		.word	1073872896
 1507              		.cfi_endproc
 1508              	.LFE72:
 1510              		.section	.text.HAL_DMA_RegisterCallback,"ax",%progbits
 1511              		.align	1
 1512              		.global	HAL_DMA_RegisterCallback
 1513              		.syntax unified
 1514              		.thumb
 1515              		.thumb_func
 1516              		.fpu softvfp
 1518              	HAL_DMA_RegisterCallback:
 1519              	.LVL74:
 1520              	.LFB73:
 1521              		.loc 1 693 1 view -0
 1522              		.cfi_startproc
 1523              		@ args = 0, pretend = 0, frame = 0
 1524              		@ frame_needed = 0, uses_anonymous_args = 0
 1525              		@ link register save eliminated.
 1526              		.loc 1 693 1 is_stmt 0 view .LVU452
 1527 0000 0346     		mov	r3, r0
 1528              		.loc 1 694 3 is_stmt 1 view .LVU453
 1529              	.LVL75:
 1530              		.loc 1 697 3 view .LVU454
 1531              		.loc 1 697 3 view .LVU455
 1532 0002 90F82000 		ldrb	r0, [r0, #32]	@ zero_extendqisi2
 1533              	.LVL76:
 1534              		.loc 1 697 3 is_stmt 0 view .LVU456
 1535 0006 0128     		cmp	r0, #1
 1536 0008 1ED0     		beq	.L151
 1537              		.loc 1 697 3 is_stmt 1 discriminator 2 view .LVU457
 1538 000a 0120     		movs	r0, #1
 1539 000c 83F82000 		strb	r0, [r3, #32]
 1540              		.loc 1 697 3 discriminator 2 view .LVU458
 1541              		.loc 1 699 3 discriminator 2 view .LVU459
 1542              		.loc 1 699 33 is_stmt 0 discriminator 2 view .LVU460
 1543 0010 93F82100 		ldrb	r0, [r3, #33]	@ zero_extendqisi2
 1544 0014 C0B2     		uxtb	r0, r0
 1545              		.loc 1 699 5 discriminator 2 view .LVU461
 1546 0016 0128     		cmp	r0, #1
 1547 0018 04D0     		beq	.L153
 1548              		.loc 1 726 12 view .LVU462
 1549 001a 0120     		movs	r0, #1
 1550              	.L145:
 1551              	.LVL77:
 1552              		.loc 1 730 3 is_stmt 1 view .LVU463
 1553              		.loc 1 730 3 view .LVU464
 1554 001c 0022     		movs	r2, #0
 1555              	.LVL78:
 1556              		.loc 1 730 3 is_stmt 0 view .LVU465
 1557 001e 83F82020 		strb	r2, [r3, #32]
ARM GAS  C:\Users\HP\AppData\Local\Temp\ccnuJuXq.s 			page 28


 1558              		.loc 1 730 3 is_stmt 1 view .LVU466
 1559              		.loc 1 732 3 view .LVU467
 1560              		.loc 1 732 10 is_stmt 0 view .LVU468
 1561 0022 7047     		bx	lr
 1562              	.LVL79:
 1563              	.L153:
 1564              		.loc 1 701 5 is_stmt 1 view .LVU469
 1565 0024 0329     		cmp	r1, #3
 1566 0026 F9D8     		bhi	.L145
 1567 0028 DFE801F0 		tbb	[pc, r1]
 1568              	.L147:
 1569 002c 02       		.byte	(.L150-.L147)/2
 1570 002d 05       		.byte	(.L149-.L147)/2
 1571 002e 08       		.byte	(.L148-.L147)/2
 1572 002f 0B       		.byte	(.L146-.L147)/2
 1573              		.p2align 1
 1574              	.L150:
 1575              		.loc 1 704 7 view .LVU470
 1576              		.loc 1 704 30 is_stmt 0 view .LVU471
 1577 0030 9A62     		str	r2, [r3, #40]
 1578              		.loc 1 705 7 is_stmt 1 view .LVU472
 1579              		.loc 1 694 21 is_stmt 0 view .LVU473
 1580 0032 0846     		mov	r0, r1
 1581              		.loc 1 705 7 view .LVU474
 1582 0034 F2E7     		b	.L145
 1583              	.L149:
 1584              		.loc 1 708 7 is_stmt 1 view .LVU475
 1585              		.loc 1 708 34 is_stmt 0 view .LVU476
 1586 0036 DA62     		str	r2, [r3, #44]
 1587              		.loc 1 709 7 is_stmt 1 view .LVU477
 1588              		.loc 1 694 21 is_stmt 0 view .LVU478
 1589 0038 0020     		movs	r0, #0
 1590              		.loc 1 709 7 view .LVU479
 1591 003a EFE7     		b	.L145
 1592              	.L148:
 1593              		.loc 1 712 7 is_stmt 1 view .LVU480
 1594              		.loc 1 712 31 is_stmt 0 view .LVU481
 1595 003c 1A63     		str	r2, [r3, #48]
 1596              		.loc 1 713 7 is_stmt 1 view .LVU482
 1597              		.loc 1 694 21 is_stmt 0 view .LVU483
 1598 003e 0020     		movs	r0, #0
 1599              		.loc 1 713 7 view .LVU484
 1600 0040 ECE7     		b	.L145
 1601              	.L146:
 1602              		.loc 1 716 7 is_stmt 1 view .LVU485
 1603              		.loc 1 716 31 is_stmt 0 view .LVU486
 1604 0042 5A63     		str	r2, [r3, #52]
 1605              		.loc 1 717 7 is_stmt 1 view .LVU487
 1606              		.loc 1 694 21 is_stmt 0 view .LVU488
 1607 0044 0020     		movs	r0, #0
 1608              		.loc 1 717 7 view .LVU489
 1609 0046 E9E7     		b	.L145
 1610              	.L151:
 1611              		.loc 1 697 3 view .LVU490
 1612 0048 0220     		movs	r0, #2
 1613              		.loc 1 733 1 view .LVU491
 1614 004a 7047     		bx	lr
ARM GAS  C:\Users\HP\AppData\Local\Temp\ccnuJuXq.s 			page 29


 1615              		.cfi_endproc
 1616              	.LFE73:
 1618              		.section	.text.HAL_DMA_UnRegisterCallback,"ax",%progbits
 1619              		.align	1
 1620              		.global	HAL_DMA_UnRegisterCallback
 1621              		.syntax unified
 1622              		.thumb
 1623              		.thumb_func
 1624              		.fpu softvfp
 1626              	HAL_DMA_UnRegisterCallback:
 1627              	.LVL80:
 1628              	.LFB74:
 1629              		.loc 1 744 1 is_stmt 1 view -0
 1630              		.cfi_startproc
 1631              		@ args = 0, pretend = 0, frame = 0
 1632              		@ frame_needed = 0, uses_anonymous_args = 0
 1633              		@ link register save eliminated.
 1634              		.loc 1 744 1 is_stmt 0 view .LVU493
 1635 0000 0346     		mov	r3, r0
 1636              		.loc 1 745 3 is_stmt 1 view .LVU494
 1637              	.LVL81:
 1638              		.loc 1 748 3 view .LVU495
 1639              		.loc 1 748 3 view .LVU496
 1640 0002 90F82020 		ldrb	r2, [r0, #32]	@ zero_extendqisi2
 1641 0006 012A     		cmp	r2, #1
 1642 0008 26D0     		beq	.L163
 1643              		.loc 1 748 3 discriminator 2 view .LVU497
 1644 000a 0122     		movs	r2, #1
 1645 000c 80F82020 		strb	r2, [r0, #32]
 1646              		.loc 1 748 3 discriminator 2 view .LVU498
 1647              		.loc 1 750 3 discriminator 2 view .LVU499
 1648              		.loc 1 750 33 is_stmt 0 discriminator 2 view .LVU500
 1649 0010 90F82100 		ldrb	r0, [r0, #33]	@ zero_extendqisi2
 1650              	.LVL82:
 1651              		.loc 1 750 33 discriminator 2 view .LVU501
 1652 0014 C0B2     		uxtb	r0, r0
 1653              		.loc 1 750 5 discriminator 2 view .LVU502
 1654 0016 9042     		cmp	r0, r2
 1655 0018 04D0     		beq	.L165
 1656              		.loc 1 784 12 view .LVU503
 1657 001a 0120     		movs	r0, #1
 1658              	.L156:
 1659              	.LVL83:
 1660              		.loc 1 788 3 is_stmt 1 view .LVU504
 1661              		.loc 1 788 3 view .LVU505
 1662 001c 0022     		movs	r2, #0
 1663 001e 83F82020 		strb	r2, [r3, #32]
 1664              		.loc 1 788 3 view .LVU506
 1665              		.loc 1 790 3 view .LVU507
 1666              		.loc 1 790 10 is_stmt 0 view .LVU508
 1667 0022 7047     		bx	lr
 1668              	.LVL84:
 1669              	.L165:
 1670              		.loc 1 752 5 is_stmt 1 view .LVU509
 1671 0024 0429     		cmp	r1, #4
 1672 0026 F9D8     		bhi	.L156
 1673 0028 DFE801F0 		tbb	[pc, r1]
ARM GAS  C:\Users\HP\AppData\Local\Temp\ccnuJuXq.s 			page 30


 1674              	.L158:
 1675 002c 03       		.byte	(.L162-.L158)/2
 1676 002d 07       		.byte	(.L161-.L158)/2
 1677 002e 0A       		.byte	(.L160-.L158)/2
 1678 002f 0D       		.byte	(.L159-.L158)/2
 1679 0030 10       		.byte	(.L157-.L158)/2
 1680 0031 00       		.p2align 1
 1681              	.L162:
 1682              		.loc 1 755 7 view .LVU510
 1683              		.loc 1 755 30 is_stmt 0 view .LVU511
 1684 0032 0022     		movs	r2, #0
 1685 0034 9A62     		str	r2, [r3, #40]
 1686              		.loc 1 756 7 is_stmt 1 view .LVU512
 1687              		.loc 1 745 21 is_stmt 0 view .LVU513
 1688 0036 0846     		mov	r0, r1
 1689              		.loc 1 756 7 view .LVU514
 1690 0038 F0E7     		b	.L156
 1691              	.L161:
 1692              		.loc 1 759 7 is_stmt 1 view .LVU515
 1693              		.loc 1 759 34 is_stmt 0 view .LVU516
 1694 003a 0020     		movs	r0, #0
 1695 003c D862     		str	r0, [r3, #44]
 1696              		.loc 1 760 7 is_stmt 1 view .LVU517
 1697 003e EDE7     		b	.L156
 1698              	.L160:
 1699              		.loc 1 763 7 view .LVU518
 1700              		.loc 1 763 31 is_stmt 0 view .LVU519
 1701 0040 0020     		movs	r0, #0
 1702 0042 1863     		str	r0, [r3, #48]
 1703              		.loc 1 764 7 is_stmt 1 view .LVU520
 1704 0044 EAE7     		b	.L156
 1705              	.L159:
 1706              		.loc 1 767 7 view .LVU521
 1707              		.loc 1 767 31 is_stmt 0 view .LVU522
 1708 0046 0020     		movs	r0, #0
 1709 0048 5863     		str	r0, [r3, #52]
 1710              		.loc 1 768 7 is_stmt 1 view .LVU523
 1711 004a E7E7     		b	.L156
 1712              	.L157:
 1713              		.loc 1 771 7 view .LVU524
 1714              		.loc 1 771 30 is_stmt 0 view .LVU525
 1715 004c 0020     		movs	r0, #0
 1716 004e 9862     		str	r0, [r3, #40]
 1717              		.loc 1 772 7 is_stmt 1 view .LVU526
 1718              		.loc 1 772 34 is_stmt 0 view .LVU527
 1719 0050 D862     		str	r0, [r3, #44]
 1720              		.loc 1 773 7 is_stmt 1 view .LVU528
 1721              		.loc 1 773 31 is_stmt 0 view .LVU529
 1722 0052 1863     		str	r0, [r3, #48]
 1723              		.loc 1 774 7 is_stmt 1 view .LVU530
 1724              		.loc 1 774 31 is_stmt 0 view .LVU531
 1725 0054 5863     		str	r0, [r3, #52]
 1726              		.loc 1 775 7 is_stmt 1 view .LVU532
 1727 0056 E1E7     		b	.L156
 1728              	.LVL85:
 1729              	.L163:
 1730              		.loc 1 748 3 is_stmt 0 view .LVU533
ARM GAS  C:\Users\HP\AppData\Local\Temp\ccnuJuXq.s 			page 31


 1731 0058 0220     		movs	r0, #2
 1732              	.LVL86:
 1733              		.loc 1 791 1 view .LVU534
 1734 005a 7047     		bx	lr
 1735              		.cfi_endproc
 1736              	.LFE74:
 1738              		.section	.text.HAL_DMA_GetState,"ax",%progbits
 1739              		.align	1
 1740              		.global	HAL_DMA_GetState
 1741              		.syntax unified
 1742              		.thumb
 1743              		.thumb_func
 1744              		.fpu softvfp
 1746              	HAL_DMA_GetState:
 1747              	.LVL87:
 1748              	.LFB75:
 1749              		.loc 1 820 1 is_stmt 1 view -0
 1750              		.cfi_startproc
 1751              		@ args = 0, pretend = 0, frame = 0
 1752              		@ frame_needed = 0, uses_anonymous_args = 0
 1753              		@ link register save eliminated.
 1754              		.loc 1 822 3 view .LVU536
 1755              		.loc 1 822 14 is_stmt 0 view .LVU537
 1756 0000 90F82100 		ldrb	r0, [r0, #33]	@ zero_extendqisi2
 1757              	.LVL88:
 1758              		.loc 1 823 1 view .LVU538
 1759 0004 7047     		bx	lr
 1760              		.cfi_endproc
 1761              	.LFE75:
 1763              		.section	.text.HAL_DMA_GetError,"ax",%progbits
 1764              		.align	1
 1765              		.global	HAL_DMA_GetError
 1766              		.syntax unified
 1767              		.thumb
 1768              		.thumb_func
 1769              		.fpu softvfp
 1771              	HAL_DMA_GetError:
 1772              	.LVL89:
 1773              	.LFB76:
 1774              		.loc 1 832 1 is_stmt 1 view -0
 1775              		.cfi_startproc
 1776              		@ args = 0, pretend = 0, frame = 0
 1777              		@ frame_needed = 0, uses_anonymous_args = 0
 1778              		@ link register save eliminated.
 1779              		.loc 1 833 3 view .LVU540
 1780              		.loc 1 833 14 is_stmt 0 view .LVU541
 1781 0000 806B     		ldr	r0, [r0, #56]
 1782              	.LVL90:
 1783              		.loc 1 834 1 view .LVU542
 1784 0002 7047     		bx	lr
 1785              		.cfi_endproc
 1786              	.LFE76:
 1788              		.text
 1789              	.Letext0:
 1790              		.file 2 "../d:\\program files\\gnu mcu\\arm-none-eabi-gcc-10.2.1-1.1\\arm-none-eabi\\include\\mach
 1791              		.file 3 "../d:\\program files\\gnu mcu\\arm-none-eabi-gcc-10.2.1-1.1\\arm-none-eabi\\include\\sys\
 1792              		.file 4 "../Drivers/CMSIS/Device/ST/STM32F1xx/Include/stm32f103x6.h"
ARM GAS  C:\Users\HP\AppData\Local\Temp\ccnuJuXq.s 			page 32


 1793              		.file 5 "../Drivers/CMSIS/Device/ST/STM32F1xx/Include/stm32f1xx.h"
 1794              		.file 6 "../Drivers/STM32F1xx_HAL_Driver/Inc/stm32f1xx_hal_def.h"
 1795              		.file 7 "../Drivers/STM32F1xx_HAL_Driver/Inc/stm32f1xx_hal_dma.h"
 1796              		.file 8 "../Drivers/STM32F1xx_HAL_Driver/Inc/stm32f1xx_hal.h"
ARM GAS  C:\Users\HP\AppData\Local\Temp\ccnuJuXq.s 			page 33

