ARM GAS  C:\Users\HP\AppData\Local\Temp\ccnTSeuq.s 			page 1


   1              		.cpu cortex-m3
   2              		.eabi_attribute 20, 1
   3              		.eabi_attribute 21, 1
   4              		.eabi_attribute 23, 3
   5              		.eabi_attribute 24, 1
   6              		.eabi_attribute 25, 1
   7              		.eabi_attribute 26, 1
   8              		.eabi_attribute 30, 1
   9              		.eabi_attribute 34, 1
  10              		.eabi_attribute 18, 4
  11              		.file	"stm32f1xx_hal_rcc_ex.c"
  12              		.text
  13              	.Ltext0:
  14              		.cfi_sections	.debug_frame
  15              		.section	.text.HAL_RCCEx_PeriphCLKConfig,"ax",%progbits
  16              		.align	1
  17              		.global	HAL_RCCEx_PeriphCLKConfig
  18              		.arch armv7-m
  19              		.syntax unified
  20              		.thumb
  21              		.thumb_func
  22              		.fpu softvfp
  24              	HAL_RCCEx_PeriphCLKConfig:
  25              	.LVL0:
  26              	.LFB65:
  27              		.file 1 "../Drivers/STM32F1xx_HAL_Driver/Src/stm32f1xx_hal_rcc_ex.c"
   1:../Drivers/STM32F1xx_HAL_Driver/Src/stm32f1xx_hal_rcc_ex.c **** 
  28              		.loc 1 99 1 view -0
  29              		.cfi_startproc
  30              		@ args = 0, pretend = 0, frame = 8
  31              		@ frame_needed = 0, uses_anonymous_args = 0
  32              		.loc 1 99 1 is_stmt 0 view .LVU1
  33 0000 70B5     		push	{r4, r5, r6, lr}
  34              	.LCFI0:
  35              		.cfi_def_cfa_offset 16
  36              		.cfi_offset 4, -16
  37              		.cfi_offset 5, -12
  38              		.cfi_offset 6, -8
  39              		.cfi_offset 14, -4
  40 0002 82B0     		sub	sp, sp, #8
  41              	.LCFI1:
  42              		.cfi_def_cfa_offset 24
  43 0004 0446     		mov	r4, r0
  44              		.loc 1 100 3 is_stmt 1 view .LVU2
  45              	.LVL1:
  46              		.loc 1 106 3 view .LVU3
  47              		.loc 1 109 3 view .LVU4
  48              		.loc 1 109 23 is_stmt 0 view .LVU5
  49 0006 0368     		ldr	r3, [r0]
  50              		.loc 1 109 6 view .LVU6
  51 0008 13F0010F 		tst	r3, #1
  52 000c 36D0     		beq	.L2
  53              	.LBB2:
  54              		.loc 1 111 5 is_stmt 1 view .LVU7
  55              	.LVL2:
  56              		.loc 1 114 5 view .LVU8
  57              		.loc 1 119 5 view .LVU9
ARM GAS  C:\Users\HP\AppData\Local\Temp\ccnTSeuq.s 			page 2


  58              		.loc 1 119 9 is_stmt 0 view .LVU10
  59 000e 3F4B     		ldr	r3, .L20
  60 0010 DB69     		ldr	r3, [r3, #28]
  61              		.loc 1 119 8 view .LVU11
  62 0012 13F0805F 		tst	r3, #268435456
  63 0016 49D1     		bne	.L12
  64              		.loc 1 121 7 is_stmt 1 view .LVU12
  65              	.LBB3:
  66              		.loc 1 121 7 view .LVU13
  67              		.loc 1 121 7 view .LVU14
  68 0018 3C4B     		ldr	r3, .L20
  69 001a DA69     		ldr	r2, [r3, #28]
  70 001c 42F08052 		orr	r2, r2, #268435456
  71 0020 DA61     		str	r2, [r3, #28]
  72              		.loc 1 121 7 view .LVU15
  73 0022 DB69     		ldr	r3, [r3, #28]
  74 0024 03F08053 		and	r3, r3, #268435456
  75 0028 0193     		str	r3, [sp, #4]
  76              		.loc 1 121 7 view .LVU16
  77 002a 019B     		ldr	r3, [sp, #4]
  78              	.LBE3:
  79              		.loc 1 121 7 view .LVU17
  80              		.loc 1 122 7 view .LVU18
  81              	.LVL3:
  82              		.loc 1 122 21 is_stmt 0 view .LVU19
  83 002c 0125     		movs	r5, #1
  84              	.LVL4:
  85              	.L3:
  86              		.loc 1 125 5 is_stmt 1 view .LVU20
  87              		.loc 1 125 9 is_stmt 0 view .LVU21
  88 002e 384B     		ldr	r3, .L20+4
  89 0030 1B68     		ldr	r3, [r3]
  90              		.loc 1 125 8 view .LVU22
  91 0032 13F4807F 		tst	r3, #256
  92 0036 3BD0     		beq	.L17
  93              	.LVL5:
  94              	.L4:
  95              		.loc 1 143 5 is_stmt 1 view .LVU23
  96              		.loc 1 143 20 is_stmt 0 view .LVU24
  97 0038 344B     		ldr	r3, .L20
  98 003a 1B6A     		ldr	r3, [r3, #32]
  99              	.LVL6:
 100              		.loc 1 144 5 is_stmt 1 view .LVU25
 101              		.loc 1 144 8 is_stmt 0 view .LVU26
 102 003c 13F44073 		ands	r3, r3, #768
 103              	.LVL7:
 104              		.loc 1 144 8 view .LVU27
 105 0040 13D0     		beq	.L8
 106              		.loc 1 144 65 discriminator 1 view .LVU28
 107 0042 6268     		ldr	r2, [r4, #4]
 108              		.loc 1 144 85 discriminator 1 view .LVU29
 109 0044 02F44072 		and	r2, r2, #768
 110              		.loc 1 144 35 discriminator 1 view .LVU30
 111 0048 9A42     		cmp	r2, r3
 112 004a 0ED0     		beq	.L8
 113              		.loc 1 147 7 is_stmt 1 view .LVU31
 114              		.loc 1 147 22 is_stmt 0 view .LVU32
ARM GAS  C:\Users\HP\AppData\Local\Temp\ccnTSeuq.s 			page 3


 115 004c 2F4A     		ldr	r2, .L20
 116 004e 136A     		ldr	r3, [r2, #32]
 117              	.LVL8:
 118              		.loc 1 147 16 view .LVU33
 119 0050 23F44070 		bic	r0, r3, #768
 120              	.LVL9:
 121              		.loc 1 149 7 is_stmt 1 view .LVU34
 122 0054 2F49     		ldr	r1, .L20+8
 123 0056 0126     		movs	r6, #1
 124 0058 C1F84064 		str	r6, [r1, #1088]
 125              		.loc 1 150 7 view .LVU35
 126 005c 0026     		movs	r6, #0
 127 005e C1F84064 		str	r6, [r1, #1088]
 128              		.loc 1 152 7 view .LVU36
 129              		.loc 1 152 17 is_stmt 0 view .LVU37
 130 0062 1062     		str	r0, [r2, #32]
 131              		.loc 1 155 7 is_stmt 1 view .LVU38
 132              		.loc 1 155 10 is_stmt 0 view .LVU39
 133 0064 13F0010F 		tst	r3, #1
 134 0068 36D1     		bne	.L18
 135              	.LVL10:
 136              	.L8:
 137              		.loc 1 170 5 is_stmt 1 view .LVU40
 138 006a 284A     		ldr	r2, .L20
 139 006c 136A     		ldr	r3, [r2, #32]
 140 006e 23F44073 		bic	r3, r3, #768
 141 0072 6168     		ldr	r1, [r4, #4]
 142 0074 0B43     		orrs	r3, r3, r1
 143 0076 1362     		str	r3, [r2, #32]
 144              		.loc 1 173 5 view .LVU41
 145              		.loc 1 173 8 is_stmt 0 view .LVU42
 146 0078 002D     		cmp	r5, #0
 147 007a 3ED1     		bne	.L19
 148              	.LVL11:
 149              	.L2:
 150              		.loc 1 173 8 view .LVU43
 151              	.LBE2:
 152              		.loc 1 180 3 is_stmt 1 view .LVU44
 153              		.loc 1 180 22 is_stmt 0 view .LVU45
 154 007c 2368     		ldr	r3, [r4]
 155              		.loc 1 180 6 view .LVU46
 156 007e 13F0020F 		tst	r3, #2
 157 0082 06D0     		beq	.L11
 158              		.loc 1 183 5 is_stmt 1 view .LVU47
 159              		.loc 1 186 5 view .LVU48
 160 0084 214A     		ldr	r2, .L20
 161 0086 5368     		ldr	r3, [r2, #4]
 162 0088 23F44043 		bic	r3, r3, #49152
 163 008c A168     		ldr	r1, [r4, #8]
 164 008e 0B43     		orrs	r3, r3, r1
 165 0090 5360     		str	r3, [r2, #4]
 166              	.L11:
 167              		.loc 1 272 3 view .LVU49
 168              		.loc 1 272 22 is_stmt 0 view .LVU50
 169 0092 2368     		ldr	r3, [r4]
 170              		.loc 1 272 6 view .LVU51
 171 0094 13F0100F 		tst	r3, #16
ARM GAS  C:\Users\HP\AppData\Local\Temp\ccnTSeuq.s 			page 4


 172 0098 34D0     		beq	.L15
 173              		.loc 1 275 5 is_stmt 1 view .LVU52
 174              		.loc 1 278 5 view .LVU53
 175 009a 1C4A     		ldr	r2, .L20
 176 009c 5368     		ldr	r3, [r2, #4]
 177 009e 23F48003 		bic	r3, r3, #4194304
 178 00a2 E168     		ldr	r1, [r4, #12]
 179 00a4 0B43     		orrs	r3, r3, r1
 180 00a6 5360     		str	r3, [r2, #4]
 181              		.loc 1 282 10 is_stmt 0 view .LVU54
 182 00a8 0020     		movs	r0, #0
 183 00aa 2CE0     		b	.L6
 184              	.LVL12:
 185              	.L12:
 186              	.LBB4:
 187              		.loc 1 111 16 view .LVU55
 188 00ac 0025     		movs	r5, #0
 189 00ae BEE7     		b	.L3
 190              	.LVL13:
 191              	.L17:
 192              		.loc 1 128 7 is_stmt 1 view .LVU56
 193 00b0 174A     		ldr	r2, .L20+4
 194 00b2 1368     		ldr	r3, [r2]
 195 00b4 43F48073 		orr	r3, r3, #256
 196 00b8 1360     		str	r3, [r2]
 197              		.loc 1 131 7 view .LVU57
 198              		.loc 1 131 19 is_stmt 0 view .LVU58
 199 00ba 174B     		ldr	r3, .L20+12
 200 00bc 9847     		blx	r3
 201              	.LVL14:
 202              		.loc 1 131 19 view .LVU59
 203 00be 0646     		mov	r6, r0
 204              	.LVL15:
 205              		.loc 1 133 7 is_stmt 1 view .LVU60
 206              	.L5:
 207              		.loc 1 133 13 view .LVU61
 208              		.loc 1 133 14 is_stmt 0 view .LVU62
 209 00c0 134B     		ldr	r3, .L20+4
 210 00c2 1B68     		ldr	r3, [r3]
 211              		.loc 1 133 13 view .LVU63
 212 00c4 13F4807F 		tst	r3, #256
 213 00c8 B6D1     		bne	.L4
 214              		.loc 1 135 9 is_stmt 1 view .LVU64
 215              		.loc 1 135 14 is_stmt 0 view .LVU65
 216 00ca 134B     		ldr	r3, .L20+12
 217 00cc 9847     		blx	r3
 218              	.LVL16:
 219              		.loc 1 135 28 view .LVU66
 220 00ce 801B     		subs	r0, r0, r6
 221              		.loc 1 135 12 view .LVU67
 222 00d0 6428     		cmp	r0, #100
 223 00d2 F5D9     		bls	.L5
 224              		.loc 1 137 18 view .LVU68
 225 00d4 0320     		movs	r0, #3
 226 00d6 16E0     		b	.L6
 227              	.LVL17:
 228              	.L18:
ARM GAS  C:\Users\HP\AppData\Local\Temp\ccnTSeuq.s 			page 5


 229              		.loc 1 158 9 is_stmt 1 view .LVU69
 230              		.loc 1 158 21 is_stmt 0 view .LVU70
 231 00d8 0F4B     		ldr	r3, .L20+12
 232 00da 9847     		blx	r3
 233              	.LVL18:
 234              		.loc 1 158 21 view .LVU71
 235 00dc 0646     		mov	r6, r0
 236              	.LVL19:
 237              		.loc 1 161 9 is_stmt 1 view .LVU72
 238              	.L9:
 239              		.loc 1 161 15 view .LVU73
 240              		.loc 1 161 16 is_stmt 0 view .LVU74
 241 00de 0B4B     		ldr	r3, .L20
 242 00e0 1B6A     		ldr	r3, [r3, #32]
 243              		.loc 1 161 15 view .LVU75
 244 00e2 13F0020F 		tst	r3, #2
 245 00e6 C0D1     		bne	.L8
 246              		.loc 1 163 11 is_stmt 1 view .LVU76
 247              		.loc 1 163 16 is_stmt 0 view .LVU77
 248 00e8 0B4B     		ldr	r3, .L20+12
 249 00ea 9847     		blx	r3
 250              	.LVL20:
 251              		.loc 1 163 30 view .LVU78
 252 00ec 801B     		subs	r0, r0, r6
 253              		.loc 1 163 14 view .LVU79
 254 00ee 41F28833 		movw	r3, #5000
 255 00f2 9842     		cmp	r0, r3
 256 00f4 F3D9     		bls	.L9
 257              		.loc 1 165 20 view .LVU80
 258 00f6 0320     		movs	r0, #3
 259 00f8 05E0     		b	.L6
 260              	.LVL21:
 261              	.L19:
 262              		.loc 1 175 7 is_stmt 1 view .LVU81
 263 00fa D369     		ldr	r3, [r2, #28]
 264 00fc 23F08053 		bic	r3, r3, #268435456
 265 0100 D361     		str	r3, [r2, #28]
 266 0102 BBE7     		b	.L2
 267              	.LVL22:
 268              	.L15:
 269              		.loc 1 175 7 is_stmt 0 view .LVU82
 270              	.LBE4:
 271              		.loc 1 282 10 view .LVU83
 272 0104 0020     		movs	r0, #0
 273              	.L6:
 274              		.loc 1 283 1 view .LVU84
 275 0106 02B0     		add	sp, sp, #8
 276              	.LCFI2:
 277              		.cfi_def_cfa_offset 16
 278              		@ sp needed
 279 0108 70BD     		pop	{r4, r5, r6, pc}
 280              	.LVL23:
 281              	.L21:
 282              		.loc 1 283 1 view .LVU85
 283 010a 00BF     		.align	2
 284              	.L20:
 285 010c 00100240 		.word	1073876992
ARM GAS  C:\Users\HP\AppData\Local\Temp\ccnTSeuq.s 			page 6


 286 0110 00700040 		.word	1073770496
 287 0114 00004242 		.word	1111621632
 288 0118 00000000 		.word	HAL_GetTick
 289              		.cfi_endproc
 290              	.LFE65:
 292              		.section	.text.HAL_RCCEx_GetPeriphCLKConfig,"ax",%progbits
 293              		.align	1
 294              		.global	HAL_RCCEx_GetPeriphCLKConfig
 295              		.syntax unified
 296              		.thumb
 297              		.thumb_func
 298              		.fpu softvfp
 300              	HAL_RCCEx_GetPeriphCLKConfig:
 301              	.LVL24:
 302              	.LFB66:
 303              		.loc 1 293 1 is_stmt 1 view -0
 304              		.cfi_startproc
 305              		@ args = 0, pretend = 0, frame = 0
 306              		@ frame_needed = 0, uses_anonymous_args = 0
 307              		@ link register save eliminated.
 308              		.loc 1 294 3 view .LVU87
 309              		.loc 1 297 3 view .LVU88
 310              		.loc 1 297 39 is_stmt 0 view .LVU89
 311 0000 0123     		movs	r3, #1
 312 0002 0360     		str	r3, [r0]
 313              		.loc 1 300 3 is_stmt 1 view .LVU90
 314              		.loc 1 300 12 is_stmt 0 view .LVU91
 315 0004 084B     		ldr	r3, .L23
 316 0006 1A6A     		ldr	r2, [r3, #32]
 317              		.loc 1 300 10 view .LVU92
 318 0008 02F44072 		and	r2, r2, #768
 319              	.LVL25:
 320              		.loc 1 302 3 is_stmt 1 view .LVU93
 321              		.loc 1 302 36 is_stmt 0 view .LVU94
 322 000c 4260     		str	r2, [r0, #4]
 323              		.loc 1 305 3 is_stmt 1 view .LVU95
 324              		.loc 1 305 39 is_stmt 0 view .LVU96
 325 000e 0322     		movs	r2, #3
 326              	.LVL26:
 327              		.loc 1 305 39 view .LVU97
 328 0010 0260     		str	r2, [r0]
 329              		.loc 1 306 3 is_stmt 1 view .LVU98
 330              		.loc 1 306 38 is_stmt 0 view .LVU99
 331 0012 5A68     		ldr	r2, [r3, #4]
 332 0014 02F44042 		and	r2, r2, #49152
 333              		.loc 1 306 36 view .LVU100
 334 0018 8260     		str	r2, [r0, #8]
 335              		.loc 1 334 3 is_stmt 1 view .LVU101
 336              		.loc 1 334 39 is_stmt 0 view .LVU102
 337 001a 1322     		movs	r2, #19
 338 001c 0260     		str	r2, [r0]
 339              		.loc 1 335 3 is_stmt 1 view .LVU103
 340              		.loc 1 335 38 is_stmt 0 view .LVU104
 341 001e 5B68     		ldr	r3, [r3, #4]
 342 0020 03F48003 		and	r3, r3, #4194304
 343              		.loc 1 335 36 view .LVU105
 344 0024 C360     		str	r3, [r0, #12]
ARM GAS  C:\Users\HP\AppData\Local\Temp\ccnTSeuq.s 			page 7


 345              		.loc 1 337 1 view .LVU106
 346 0026 7047     		bx	lr
 347              	.L24:
 348              		.align	2
 349              	.L23:
 350 0028 00100240 		.word	1073876992
 351              		.cfi_endproc
 352              	.LFE66:
 354              		.section	.text.HAL_RCCEx_GetPeriphCLKFreq,"ax",%progbits
 355              		.align	1
 356              		.global	HAL_RCCEx_GetPeriphCLKFreq
 357              		.syntax unified
 358              		.thumb
 359              		.thumb_func
 360              		.fpu softvfp
 362              	HAL_RCCEx_GetPeriphCLKFreq:
 363              	.LVL27:
 364              	.LFB67:
 365              		.loc 1 386 1 is_stmt 1 view -0
 366              		.cfi_startproc
 367              		@ args = 0, pretend = 0, frame = 0
 368              		@ frame_needed = 0, uses_anonymous_args = 0
 369              		.loc 1 386 1 is_stmt 0 view .LVU108
 370 0000 08B5     		push	{r3, lr}
 371              	.LCFI3:
 372              		.cfi_def_cfa_offset 8
 373              		.cfi_offset 3, -8
 374              		.cfi_offset 14, -4
 375              		.loc 1 396 3 is_stmt 1 view .LVU109
 376              		.loc 1 397 3 view .LVU110
 377              		.loc 1 399 3 view .LVU111
 378              	.LVL28:
 379              		.loc 1 401 3 view .LVU112
 380              		.loc 1 404 3 view .LVU113
 381              		.loc 1 406 3 view .LVU114
 382 0002 0228     		cmp	r0, #2
 383 0004 4ED0     		beq	.L26
 384 0006 1028     		cmp	r0, #16
 385 0008 03D0     		beq	.L27
 386 000a 0128     		cmp	r0, #1
 387 000c 28D0     		beq	.L28
 388 000e 0020     		movs	r0, #0
 389              	.LVL29:
 390              	.L25:
 391              		.loc 1 583 1 is_stmt 0 view .LVU115
 392 0010 08BD     		pop	{r3, pc}
 393              	.LVL30:
 394              	.L27:
 395              		.loc 1 414 7 is_stmt 1 view .LVU116
 396              		.loc 1 414 16 is_stmt 0 view .LVU117
 397 0012 2B4B     		ldr	r3, .L40
 398 0014 5A68     		ldr	r2, [r3, #4]
 399              	.LVL31:
 400              		.loc 1 417 7 is_stmt 1 view .LVU118
 401              		.loc 1 417 11 is_stmt 0 view .LVU119
 402 0016 1868     		ldr	r0, [r3]
 403              	.LVL32:
ARM GAS  C:\Users\HP\AppData\Local\Temp\ccnTSeuq.s 			page 8


 404              		.loc 1 417 10 view .LVU120
 405 0018 10F08070 		ands	r0, r0, #16777216
 406 001c F8D0     		beq	.L25
 407              		.loc 1 419 9 is_stmt 1 view .LVU121
 408              		.loc 1 419 77 is_stmt 0 view .LVU122
 409 001e C2F38343 		ubfx	r3, r2, #18, #4
 410              		.loc 1 419 36 view .LVU123
 411 0022 2849     		ldr	r1, .L40+4
 412 0024 C85C     		ldrb	r0, [r1, r3]	@ zero_extendqisi2
 413              	.LVL33:
 414              		.loc 1 420 9 is_stmt 1 view .LVU124
 415              		.loc 1 420 12 is_stmt 0 view .LVU125
 416 0026 12F4803F 		tst	r2, #65536
 417 002a 15D0     		beq	.L30
 418              		.loc 1 426 11 is_stmt 1 view .LVU126
 419              		.loc 1 426 54 is_stmt 0 view .LVU127
 420 002c 244B     		ldr	r3, .L40
 421 002e 5B68     		ldr	r3, [r3, #4]
 422              		.loc 1 426 82 view .LVU128
 423 0030 C3F34043 		ubfx	r3, r3, #17, #1
 424              		.loc 1 426 39 view .LVU129
 425 0034 244A     		ldr	r2, .L40+8
 426              	.LVL34:
 427              		.loc 1 426 39 view .LVU130
 428 0036 D25C     		ldrb	r2, [r2, r3]	@ zero_extendqisi2
 429              	.LVL35:
 430              		.loc 1 451 11 is_stmt 1 view .LVU131
 431              		.loc 1 454 13 view .LVU132
 432              		.loc 1 454 44 is_stmt 0 view .LVU133
 433 0038 244B     		ldr	r3, .L40+12
 434 003a B3FBF2F3 		udiv	r3, r3, r2
 435              		.loc 1 454 20 view .LVU134
 436 003e 03FB00F0 		mul	r0, r3, r0
 437              	.LVL36:
 438              	.L31:
 439              		.loc 1 479 9 is_stmt 1 view .LVU135
 440              		.loc 1 479 13 is_stmt 0 view .LVU136
 441 0042 1F4B     		ldr	r3, .L40
 442 0044 5B68     		ldr	r3, [r3, #4]
 443              		.loc 1 479 12 view .LVU137
 444 0046 13F4800F 		tst	r3, #4194304
 445 004a E1D1     		bne	.L25
 446              		.loc 1 487 11 is_stmt 1 view .LVU138
 447              		.loc 1 487 31 is_stmt 0 view .LVU139
 448 004c 4000     		lsls	r0, r0, #1
 449              	.LVL37:
 450              		.loc 1 487 21 view .LVU140
 451 004e 204B     		ldr	r3, .L40+16
 452 0050 A3FB0030 		umull	r3, r0, r3, r0
 453 0054 4008     		lsrs	r0, r0, #1
 454              	.LVL38:
 455              		.loc 1 487 21 view .LVU141
 456 0056 DBE7     		b	.L25
 457              	.LVL39:
 458              	.L30:
 459              		.loc 1 461 11 is_stmt 1 view .LVU142
 460              		.loc 1 461 18 is_stmt 0 view .LVU143
ARM GAS  C:\Users\HP\AppData\Local\Temp\ccnTSeuq.s 			page 9


 461 0058 1E4B     		ldr	r3, .L40+20
 462 005a 03FB00F0 		mul	r0, r3, r0
 463              	.LVL40:
 464              		.loc 1 461 18 view .LVU144
 465 005e F0E7     		b	.L31
 466              	.LVL41:
 467              	.L28:
 468              		.loc 1 549 7 is_stmt 1 view .LVU145
 469              		.loc 1 549 16 is_stmt 0 view .LVU146
 470 0060 174B     		ldr	r3, .L40
 471 0062 1B6A     		ldr	r3, [r3, #32]
 472              	.LVL42:
 473              		.loc 1 552 7 is_stmt 1 view .LVU147
 474              		.loc 1 552 66 is_stmt 0 view .LVU148
 475 0064 40F20232 		movw	r2, #770
 476 0068 1A40     		ands	r2, r2, r3
 477              		.loc 1 552 10 view .LVU149
 478 006a B2F5817F 		cmp	r2, #258
 479 006e 24D0     		beq	.L33
 480              		.loc 1 557 12 is_stmt 1 view .LVU150
 481              		.loc 1 557 27 is_stmt 0 view .LVU151
 482 0070 03F44073 		and	r3, r3, #768
 483              	.LVL43:
 484              		.loc 1 557 15 view .LVU152
 485 0074 B3F5007F 		cmp	r3, #512
 486 0078 04D0     		beq	.L38
 487              	.L32:
 488              		.loc 1 561 12 is_stmt 1 view .LVU153
 489              		.loc 1 561 15 is_stmt 0 view .LVU154
 490 007a B3F5407F 		cmp	r3, #768
 491 007e 09D0     		beq	.L39
 492              		.loc 1 401 27 view .LVU155
 493 0080 0020     		movs	r0, #0
 494              	.LVL44:
 495              		.loc 1 401 27 view .LVU156
 496 0082 C5E7     		b	.L25
 497              	.LVL45:
 498              	.L38:
 499              		.loc 1 557 75 discriminator 1 view .LVU157
 500 0084 0E4A     		ldr	r2, .L40
 501 0086 526A     		ldr	r2, [r2, #36]
 502              		.loc 1 557 71 discriminator 1 view .LVU158
 503 0088 12F0020F 		tst	r2, #2
 504 008c F5D0     		beq	.L32
 505              		.loc 1 559 19 view .LVU159
 506 008e 49F64040 		movw	r0, #40000
 507              	.LVL46:
 508              		.loc 1 559 19 view .LVU160
 509 0092 BDE7     		b	.L25
 510              	.LVL47:
 511              	.L39:
 512              		.loc 1 561 82 discriminator 1 view .LVU161
 513 0094 0A4B     		ldr	r3, .L40
 514 0096 1868     		ldr	r0, [r3]
 515              	.LVL48:
 516              		.loc 1 561 78 discriminator 1 view .LVU162
 517 0098 10F40030 		ands	r0, r0, #131072
ARM GAS  C:\Users\HP\AppData\Local\Temp\ccnTSeuq.s 			page 10


 518 009c B8D0     		beq	.L25
 519              		.loc 1 563 19 view .LVU163
 520 009e 4FF22440 		movw	r0, #62500
 521              	.LVL49:
 522              		.loc 1 582 3 is_stmt 1 view .LVU164
 523              		.loc 1 582 10 is_stmt 0 view .LVU165
 524 00a2 B5E7     		b	.L25
 525              	.LVL50:
 526              	.L26:
 527              		.loc 1 574 7 is_stmt 1 view .LVU166
 528              		.loc 1 574 19 is_stmt 0 view .LVU167
 529 00a4 0C4B     		ldr	r3, .L40+24
 530 00a6 9847     		blx	r3
 531              	.LVL51:
 532              		.loc 1 574 47 view .LVU168
 533 00a8 054B     		ldr	r3, .L40
 534 00aa 5B68     		ldr	r3, [r3, #4]
 535              		.loc 1 574 74 view .LVU169
 536 00ac C3F38133 		ubfx	r3, r3, #14, #2
 537              		.loc 1 574 98 view .LVU170
 538 00b0 0133     		adds	r3, r3, #1
 539              		.loc 1 574 103 view .LVU171
 540 00b2 5B00     		lsls	r3, r3, #1
 541              		.loc 1 574 17 view .LVU172
 542 00b4 B0FBF3F0 		udiv	r0, r0, r3
 543              	.LVL52:
 544              		.loc 1 575 7 is_stmt 1 view .LVU173
 545 00b8 AAE7     		b	.L25
 546              	.LVL53:
 547              	.L33:
 548              		.loc 1 554 19 is_stmt 0 view .LVU174
 549 00ba 4FF40040 		mov	r0, #32768
 550              	.LVL54:
 551              		.loc 1 554 19 view .LVU175
 552 00be A7E7     		b	.L25
 553              	.L41:
 554              		.align	2
 555              	.L40:
 556 00c0 00100240 		.word	1073876992
 557 00c4 00000000 		.word	.LANCHOR0
 558 00c8 00000000 		.word	.LANCHOR1
 559 00cc 00127A00 		.word	8000000
 560 00d0 ABAAAAAA 		.word	-1431655765
 561 00d4 00093D00 		.word	4000000
 562 00d8 00000000 		.word	HAL_RCC_GetPCLK2Freq
 563              		.cfi_endproc
 564              	.LFE67:
 566              		.section	.rodata.aPLLMULFactorTable.1,"a"
 567              		.align	2
 568              		.set	.LANCHOR0,. + 0
 571              	aPLLMULFactorTable.1:
 572 0000 02030405 		.ascii	"\002\003\004\005\006\007\010\011\012\013\014\015\016"
 572      06070809 
 572      0A0B0C0D 
 572      0E
 573 000d 0F1010   		.ascii	"\017\020\020"
 574              		.section	.rodata.aPredivFactorTable.0,"a"
ARM GAS  C:\Users\HP\AppData\Local\Temp\ccnTSeuq.s 			page 11


 575              		.align	2
 576              		.set	.LANCHOR1,. + 0
 579              	aPredivFactorTable.0:
 580 0000 0102     		.ascii	"\001\002"
 581              		.text
 582              	.Letext0:
 583              		.file 2 "../d:\\program files\\gnu mcu\\arm-none-eabi-gcc-10.2.1-1.1\\arm-none-eabi\\include\\mach
 584              		.file 3 "../d:\\program files\\gnu mcu\\arm-none-eabi-gcc-10.2.1-1.1\\arm-none-eabi\\include\\sys\
 585              		.file 4 "../Drivers/CMSIS/Device/ST/STM32F1xx/Include/stm32f103x6.h"
 586              		.file 5 "../Drivers/CMSIS/Device/ST/STM32F1xx/Include/stm32f1xx.h"
 587              		.file 6 "../Drivers/STM32F1xx_HAL_Driver/Inc/stm32f1xx_hal_def.h"
 588              		.file 7 "../Drivers/STM32F1xx_HAL_Driver/Inc/stm32f1xx_hal_rcc_ex.h"
 589              		.file 8 "../Drivers/STM32F1xx_HAL_Driver/Inc/stm32f1xx_hal_rcc.h"
 590              		.file 9 "../Drivers/STM32F1xx_HAL_Driver/Inc/stm32f1xx_hal.h"
ARM GAS  C:\Users\HP\AppData\Local\Temp\ccnTSeuq.s 			page 12

